
build/kernel.bin:     file format elf32-i386


Disassembly of section .text:

c0100050 <higherhalf>:
c0100050:	fa                   	cli    
c0100051:	bc c0 3c 1d c0       	mov    $0xc01d3cc0,%esp
c0100056:	89 e5                	mov    %esp,%ebp
c0100058:	55                   	push   %ebp
c0100059:	50                   	push   %eax
c010005a:	53                   	push   %ebx
c010005b:	e8 08 19 00 00       	call   c0101968 <main>
c0100060:	81 c4 08 00 00 00    	add    $0x8,%esp
c0100066:	68 23 00 00 00       	push   $0x23
c010006b:	68 fc ff ff bf       	push   $0xbffffffc
c0100070:	9c                   	pushf  
c0100071:	8b 1c 24             	mov    (%esp),%ebx
c0100074:	81 cb 00 02 00 00    	or     $0x200,%ebx
c010007a:	89 1c 24             	mov    %ebx,(%esp)
c010007d:	68 1b 00 00 00       	push   $0x1b
c0100082:	50                   	push   %eax
c0100083:	b8 23 00 00 00       	mov    $0x23,%eax
c0100088:	8e d8                	mov    %eax,%ds
c010008a:	8e c0                	mov    %eax,%es
c010008c:	8e e0                	mov    %eax,%fs
c010008e:	8e e8                	mov    %eax,%gs
c0100090:	cf                   	iret   
c0100091:	eb fe                	jmp    c0100091 <higherhalf+0x41>

c0100093 <gdt_flush>:
c0100093:	8b 44 24 04          	mov    0x4(%esp),%eax
c0100097:	0f 01 10             	lgdtl  (%eax)
c010009a:	b8 10 00 00 00       	mov    $0x10,%eax
c010009f:	8e d8                	mov    %eax,%ds
c01000a1:	8e c0                	mov    %eax,%es
c01000a3:	8e e0                	mov    %eax,%fs
c01000a5:	8e e8                	mov    %eax,%gs
c01000a7:	8e d0                	mov    %eax,%ss
c01000a9:	ea b0 00 10 c0 08 00 	ljmp   $0x8,$0xc01000b0

c01000b0 <gdt_flush_ljmp>:
c01000b0:	c3                   	ret    

c01000b1 <tss_load>:
c01000b1:	0f 00 5c 24 04       	ltr    0x4(%esp)
c01000b6:	c3                   	ret    

c01000b7 <halt>:
c01000b7:	f4                   	hlt    

c01000b8 <outb>:
c01000b8:	66 8b 54 24 04       	mov    0x4(%esp),%dx
c01000bd:	8a 44 24 08          	mov    0x8(%esp),%al
c01000c1:	ee                   	out    %al,(%dx)
c01000c2:	c3                   	ret    

c01000c3 <inb>:
c01000c3:	66 8b 54 24 04       	mov    0x4(%esp),%dx
c01000c8:	ec                   	in     (%dx),%al
c01000c9:	c3                   	ret    

c01000ca <getStackFrameStart>:
c01000ca:	89 e8                	mov    %ebp,%eax
c01000cc:	c3                   	ret    

c01000cd <cpu_rdtsc>:
c01000cd:	0f 31                	rdtsc  
c01000cf:	c3                   	ret    

c01000d0 <cpu_getCR0>:
c01000d0:	0f 20 c0             	mov    %cr0,%eax
c01000d3:	c3                   	ret    

c01000d4 <cpu_getCR1>:
c01000d4:	b8 00 00 00 00       	mov    $0x0,%eax
c01000d9:	c3                   	ret    

c01000da <cpu_getCR2>:
c01000da:	0f 20 d0             	mov    %cr2,%eax
c01000dd:	c3                   	ret    

c01000de <cpu_getCR3>:
c01000de:	0f 20 d8             	mov    %cr3,%eax
c01000e1:	c3                   	ret    

c01000e2 <cpu_getCR4>:
c01000e2:	0f 20 e0             	mov    %cr4,%eax
c01000e5:	c3                   	ret    

c01000e6 <proc_save>:
c01000e6:	55                   	push   %ebp
c01000e7:	89 e5                	mov    %esp,%ebp
c01000e9:	81 ec 04 00 00 00    	sub    $0x4,%esp
c01000ef:	9c                   	pushf  
c01000f0:	8b 04 24             	mov    (%esp),%eax
c01000f3:	25 00 02 00 00       	and    $0x200,%eax
c01000f8:	89 45 fc             	mov    %eax,-0x4(%ebp)
c01000fb:	fa                   	cli    
c01000fc:	81 c4 04 00 00 00    	add    $0x4,%esp
c0100102:	8b 45 08             	mov    0x8(%ebp),%eax
c0100105:	89 20                	mov    %esp,(%eax)
c0100107:	89 78 04             	mov    %edi,0x4(%eax)
c010010a:	89 70 08             	mov    %esi,0x8(%eax)
c010010d:	89 68 0c             	mov    %ebp,0xc(%eax)
c0100110:	9c                   	pushf  
c0100111:	8f 40 10             	popl   0x10(%eax)
c0100114:	8b 45 fc             	mov    -0x4(%ebp),%eax
c0100117:	39 c0                	cmp    %eax,%eax
c0100119:	74 01                	je     c010011c <proc_saveIFD>
c010011b:	fb                   	sti    

c010011c <proc_saveIFD>:
c010011c:	b8 00 00 00 00       	mov    $0x0,%eax
c0100121:	c9                   	leave  
c0100122:	c3                   	ret    

c0100123 <proc_resume>:
c0100123:	55                   	push   %ebp
c0100124:	89 e5                	mov    %esp,%ebp
c0100126:	9c                   	pushf  
c0100127:	8b 04 24             	mov    (%esp),%eax
c010012a:	25 00 02 00 00       	and    $0x200,%eax
c010012f:	fa                   	cli    
c0100130:	81 c4 04 00 00 00    	add    $0x4,%esp
c0100136:	8b 45 0c             	mov    0xc(%ebp),%eax
c0100139:	8b 78 04             	mov    0x4(%eax),%edi
c010013c:	8b 70 08             	mov    0x8(%eax),%esi
c010013f:	8b 68 0c             	mov    0xc(%eax),%ebp
c0100142:	ff 70 10             	pushl  0x10(%eax)
c0100145:	9d                   	popf   
c0100146:	8b 4c 24 08          	mov    0x8(%esp),%ecx
c010014a:	0f 22 d9             	mov    %ecx,%cr3
c010014d:	8b 20                	mov    (%eax),%esp
c010014f:	8b 48 10             	mov    0x10(%eax),%ecx
c0100152:	39 c9                	cmp    %ecx,%ecx
c0100154:	74 01                	je     c0100157 <proc_resumeIFRes>
c0100156:	fb                   	sti    

c0100157 <proc_resumeIFRes>:
c0100157:	b8 01 00 00 00       	mov    $0x1,%eax
c010015c:	c9                   	leave  
c010015d:	c3                   	ret    

c010015e <paging_enable>:
c010015e:	0f 20 c0             	mov    %cr0,%eax
c0100161:	0d 00 00 00 80       	or     $0x80000000,%eax
c0100166:	0f 22 c0             	mov    %eax,%cr0
c0100169:	c3                   	ret    

c010016a <paging_flushAddr>:
c010016a:	0f 01 7c 24 04       	invlpg 0x4(%esp)
c010016f:	c3                   	ret    

c0100170 <paging_flushTLB>:
c0100170:	0f 20 d8             	mov    %cr3,%eax
c0100173:	0f 22 d8             	mov    %eax,%cr3
c0100176:	c3                   	ret    

c0100177 <paging_exchangePDir>:
c0100177:	8b 44 24 04          	mov    0x4(%esp),%eax
c010017b:	0f 22 d8             	mov    %eax,%cr3
c010017e:	c3                   	ret    

c010017f <intrpt_setEnabled>:
c010017f:	55                   	push   %ebp
c0100180:	89 e5                	mov    %esp,%ebp
c0100182:	8b 5c 24 08          	mov    0x8(%esp),%ebx
c0100186:	c1 e3 09             	shl    $0x9,%ebx
c0100189:	9c                   	pushf  
c010018a:	8b 0c 24             	mov    (%esp),%ecx
c010018d:	89 c8                	mov    %ecx,%eax
c010018f:	25 00 02 00 00       	and    $0x200,%eax
c0100194:	c1 e8 09             	shr    $0x9,%eax
c0100197:	09 d9                	or     %ebx,%ecx
c0100199:	89 0c 24             	mov    %ecx,(%esp)
c010019c:	9d                   	popf   
c010019d:	c9                   	leave  
c010019e:	c3                   	ret    

c010019f <intrpt_loadidt>:
c010019f:	8b 44 24 04          	mov    0x4(%esp),%eax
c01001a3:	0f 01 18             	lidtl  (%eax)
c01001a6:	c3                   	ret    

c01001a7 <isr0>:
c01001a7:	fa                   	cli    
c01001a8:	68 00 00 00 00       	push   $0x0
c01001ad:	68 00 00 00 00       	push   $0x0
c01001b2:	e9 ed 02 00 00       	jmp    c01004a4 <isrCommon>

c01001b7 <isr1>:
c01001b7:	fa                   	cli    
c01001b8:	68 00 00 00 00       	push   $0x0
c01001bd:	68 01 00 00 00       	push   $0x1
c01001c2:	e9 dd 02 00 00       	jmp    c01004a4 <isrCommon>

c01001c7 <isr2>:
c01001c7:	fa                   	cli    
c01001c8:	68 00 00 00 00       	push   $0x0
c01001cd:	68 02 00 00 00       	push   $0x2
c01001d2:	e9 cd 02 00 00       	jmp    c01004a4 <isrCommon>

c01001d7 <isr3>:
c01001d7:	fa                   	cli    
c01001d8:	68 00 00 00 00       	push   $0x0
c01001dd:	68 03 00 00 00       	push   $0x3
c01001e2:	e9 bd 02 00 00       	jmp    c01004a4 <isrCommon>

c01001e7 <isr4>:
c01001e7:	fa                   	cli    
c01001e8:	68 00 00 00 00       	push   $0x0
c01001ed:	68 04 00 00 00       	push   $0x4
c01001f2:	e9 ad 02 00 00       	jmp    c01004a4 <isrCommon>

c01001f7 <isr5>:
c01001f7:	fa                   	cli    
c01001f8:	68 00 00 00 00       	push   $0x0
c01001fd:	68 05 00 00 00       	push   $0x5
c0100202:	e9 9d 02 00 00       	jmp    c01004a4 <isrCommon>

c0100207 <isr6>:
c0100207:	fa                   	cli    
c0100208:	68 00 00 00 00       	push   $0x0
c010020d:	68 06 00 00 00       	push   $0x6
c0100212:	e9 8d 02 00 00       	jmp    c01004a4 <isrCommon>

c0100217 <isr7>:
c0100217:	fa                   	cli    
c0100218:	68 00 00 00 00       	push   $0x0
c010021d:	68 07 00 00 00       	push   $0x7
c0100222:	e9 7d 02 00 00       	jmp    c01004a4 <isrCommon>

c0100227 <isr8>:
c0100227:	fa                   	cli    
c0100228:	68 08 00 00 00       	push   $0x8
c010022d:	e9 72 02 00 00       	jmp    c01004a4 <isrCommon>

c0100232 <isr9>:
c0100232:	fa                   	cli    
c0100233:	68 00 00 00 00       	push   $0x0
c0100238:	68 09 00 00 00       	push   $0x9
c010023d:	e9 62 02 00 00       	jmp    c01004a4 <isrCommon>

c0100242 <isr10>:
c0100242:	fa                   	cli    
c0100243:	68 0a 00 00 00       	push   $0xa
c0100248:	e9 57 02 00 00       	jmp    c01004a4 <isrCommon>

c010024d <isr11>:
c010024d:	fa                   	cli    
c010024e:	68 0b 00 00 00       	push   $0xb
c0100253:	e9 4c 02 00 00       	jmp    c01004a4 <isrCommon>

c0100258 <isr12>:
c0100258:	fa                   	cli    
c0100259:	68 0c 00 00 00       	push   $0xc
c010025e:	e9 41 02 00 00       	jmp    c01004a4 <isrCommon>

c0100263 <isr13>:
c0100263:	fa                   	cli    
c0100264:	68 0d 00 00 00       	push   $0xd
c0100269:	e9 36 02 00 00       	jmp    c01004a4 <isrCommon>

c010026e <isr14>:
c010026e:	fa                   	cli    
c010026f:	68 0e 00 00 00       	push   $0xe
c0100274:	e9 2b 02 00 00       	jmp    c01004a4 <isrCommon>

c0100279 <isr15>:
c0100279:	fa                   	cli    
c010027a:	68 00 00 00 00       	push   $0x0
c010027f:	68 0f 00 00 00       	push   $0xf
c0100284:	e9 1b 02 00 00       	jmp    c01004a4 <isrCommon>

c0100289 <isr16>:
c0100289:	fa                   	cli    
c010028a:	68 00 00 00 00       	push   $0x0
c010028f:	68 10 00 00 00       	push   $0x10
c0100294:	e9 0b 02 00 00       	jmp    c01004a4 <isrCommon>

c0100299 <isr17>:
c0100299:	fa                   	cli    
c010029a:	68 11 00 00 00       	push   $0x11
c010029f:	e9 00 02 00 00       	jmp    c01004a4 <isrCommon>

c01002a4 <isr18>:
c01002a4:	fa                   	cli    
c01002a5:	68 00 00 00 00       	push   $0x0
c01002aa:	68 12 00 00 00       	push   $0x12
c01002af:	e9 f0 01 00 00       	jmp    c01004a4 <isrCommon>

c01002b4 <isr19>:
c01002b4:	fa                   	cli    
c01002b5:	68 00 00 00 00       	push   $0x0
c01002ba:	68 13 00 00 00       	push   $0x13
c01002bf:	e9 e0 01 00 00       	jmp    c01004a4 <isrCommon>

c01002c4 <isr20>:
c01002c4:	fa                   	cli    
c01002c5:	68 00 00 00 00       	push   $0x0
c01002ca:	68 14 00 00 00       	push   $0x14
c01002cf:	e9 d0 01 00 00       	jmp    c01004a4 <isrCommon>

c01002d4 <isr21>:
c01002d4:	fa                   	cli    
c01002d5:	68 00 00 00 00       	push   $0x0
c01002da:	68 15 00 00 00       	push   $0x15
c01002df:	e9 c0 01 00 00       	jmp    c01004a4 <isrCommon>

c01002e4 <isr22>:
c01002e4:	fa                   	cli    
c01002e5:	68 00 00 00 00       	push   $0x0
c01002ea:	68 16 00 00 00       	push   $0x16
c01002ef:	e9 b0 01 00 00       	jmp    c01004a4 <isrCommon>

c01002f4 <isr23>:
c01002f4:	fa                   	cli    
c01002f5:	68 00 00 00 00       	push   $0x0
c01002fa:	68 17 00 00 00       	push   $0x17
c01002ff:	e9 a0 01 00 00       	jmp    c01004a4 <isrCommon>

c0100304 <isr24>:
c0100304:	fa                   	cli    
c0100305:	68 00 00 00 00       	push   $0x0
c010030a:	68 18 00 00 00       	push   $0x18
c010030f:	e9 90 01 00 00       	jmp    c01004a4 <isrCommon>

c0100314 <isr25>:
c0100314:	fa                   	cli    
c0100315:	68 00 00 00 00       	push   $0x0
c010031a:	68 19 00 00 00       	push   $0x19
c010031f:	e9 80 01 00 00       	jmp    c01004a4 <isrCommon>

c0100324 <isr26>:
c0100324:	fa                   	cli    
c0100325:	68 00 00 00 00       	push   $0x0
c010032a:	68 1a 00 00 00       	push   $0x1a
c010032f:	e9 70 01 00 00       	jmp    c01004a4 <isrCommon>

c0100334 <isr27>:
c0100334:	fa                   	cli    
c0100335:	68 00 00 00 00       	push   $0x0
c010033a:	68 1b 00 00 00       	push   $0x1b
c010033f:	e9 60 01 00 00       	jmp    c01004a4 <isrCommon>

c0100344 <isr28>:
c0100344:	fa                   	cli    
c0100345:	68 00 00 00 00       	push   $0x0
c010034a:	68 1c 00 00 00       	push   $0x1c
c010034f:	e9 50 01 00 00       	jmp    c01004a4 <isrCommon>

c0100354 <isr29>:
c0100354:	fa                   	cli    
c0100355:	68 00 00 00 00       	push   $0x0
c010035a:	68 1d 00 00 00       	push   $0x1d
c010035f:	e9 40 01 00 00       	jmp    c01004a4 <isrCommon>

c0100364 <isr30>:
c0100364:	fa                   	cli    
c0100365:	68 00 00 00 00       	push   $0x0
c010036a:	68 1e 00 00 00       	push   $0x1e
c010036f:	e9 30 01 00 00       	jmp    c01004a4 <isrCommon>

c0100374 <isr31>:
c0100374:	fa                   	cli    
c0100375:	68 00 00 00 00       	push   $0x0
c010037a:	68 1f 00 00 00       	push   $0x1f
c010037f:	e9 20 01 00 00       	jmp    c01004a4 <isrCommon>

c0100384 <isr32>:
c0100384:	fa                   	cli    
c0100385:	68 00 00 00 00       	push   $0x0
c010038a:	68 20 00 00 00       	push   $0x20
c010038f:	e9 10 01 00 00       	jmp    c01004a4 <isrCommon>

c0100394 <isr33>:
c0100394:	fa                   	cli    
c0100395:	68 00 00 00 00       	push   $0x0
c010039a:	68 21 00 00 00       	push   $0x21
c010039f:	e9 00 01 00 00       	jmp    c01004a4 <isrCommon>

c01003a4 <isr34>:
c01003a4:	fa                   	cli    
c01003a5:	68 00 00 00 00       	push   $0x0
c01003aa:	68 22 00 00 00       	push   $0x22
c01003af:	e9 f0 00 00 00       	jmp    c01004a4 <isrCommon>

c01003b4 <isr35>:
c01003b4:	fa                   	cli    
c01003b5:	68 00 00 00 00       	push   $0x0
c01003ba:	68 23 00 00 00       	push   $0x23
c01003bf:	e9 e0 00 00 00       	jmp    c01004a4 <isrCommon>

c01003c4 <isr36>:
c01003c4:	fa                   	cli    
c01003c5:	68 00 00 00 00       	push   $0x0
c01003ca:	68 24 00 00 00       	push   $0x24
c01003cf:	e9 d0 00 00 00       	jmp    c01004a4 <isrCommon>

c01003d4 <isr37>:
c01003d4:	fa                   	cli    
c01003d5:	68 00 00 00 00       	push   $0x0
c01003da:	68 25 00 00 00       	push   $0x25
c01003df:	e9 c0 00 00 00       	jmp    c01004a4 <isrCommon>

c01003e4 <isr38>:
c01003e4:	fa                   	cli    
c01003e5:	68 00 00 00 00       	push   $0x0
c01003ea:	68 26 00 00 00       	push   $0x26
c01003ef:	e9 b0 00 00 00       	jmp    c01004a4 <isrCommon>

c01003f4 <isr39>:
c01003f4:	fa                   	cli    
c01003f5:	68 00 00 00 00       	push   $0x0
c01003fa:	68 27 00 00 00       	push   $0x27
c01003ff:	e9 a0 00 00 00       	jmp    c01004a4 <isrCommon>

c0100404 <isr40>:
c0100404:	fa                   	cli    
c0100405:	68 00 00 00 00       	push   $0x0
c010040a:	68 28 00 00 00       	push   $0x28
c010040f:	e9 90 00 00 00       	jmp    c01004a4 <isrCommon>

c0100414 <isr41>:
c0100414:	fa                   	cli    
c0100415:	68 00 00 00 00       	push   $0x0
c010041a:	68 29 00 00 00       	push   $0x29
c010041f:	e9 80 00 00 00       	jmp    c01004a4 <isrCommon>

c0100424 <isr42>:
c0100424:	fa                   	cli    
c0100425:	68 00 00 00 00       	push   $0x0
c010042a:	68 2a 00 00 00       	push   $0x2a
c010042f:	e9 70 00 00 00       	jmp    c01004a4 <isrCommon>

c0100434 <isr43>:
c0100434:	fa                   	cli    
c0100435:	68 00 00 00 00       	push   $0x0
c010043a:	68 2b 00 00 00       	push   $0x2b
c010043f:	e9 60 00 00 00       	jmp    c01004a4 <isrCommon>

c0100444 <isr44>:
c0100444:	fa                   	cli    
c0100445:	68 00 00 00 00       	push   $0x0
c010044a:	68 2c 00 00 00       	push   $0x2c
c010044f:	e9 50 00 00 00       	jmp    c01004a4 <isrCommon>

c0100454 <isr45>:
c0100454:	fa                   	cli    
c0100455:	68 00 00 00 00       	push   $0x0
c010045a:	68 2d 00 00 00       	push   $0x2d
c010045f:	e9 40 00 00 00       	jmp    c01004a4 <isrCommon>

c0100464 <isr46>:
c0100464:	fa                   	cli    
c0100465:	68 00 00 00 00       	push   $0x0
c010046a:	68 2e 00 00 00       	push   $0x2e
c010046f:	e9 30 00 00 00       	jmp    c01004a4 <isrCommon>

c0100474 <isr47>:
c0100474:	fa                   	cli    
c0100475:	68 00 00 00 00       	push   $0x0
c010047a:	68 2f 00 00 00       	push   $0x2f
c010047f:	e9 20 00 00 00       	jmp    c01004a4 <isrCommon>

c0100484 <isr48>:
c0100484:	fa                   	cli    
c0100485:	68 00 00 00 00       	push   $0x0
c010048a:	68 30 00 00 00       	push   $0x30
c010048f:	e9 10 00 00 00       	jmp    c01004a4 <isrCommon>

c0100494 <isrNull>:
c0100494:	fa                   	cli    
c0100495:	68 00 00 00 00       	push   $0x0
c010049a:	68 31 00 00 00       	push   $0x31
c010049f:	e9 00 00 00 00       	jmp    c01004a4 <isrCommon>

c01004a4 <isrCommon>:
c01004a4:	50                   	push   %eax
c01004a5:	53                   	push   %ebx
c01004a6:	51                   	push   %ecx
c01004a7:	52                   	push   %edx
c01004a8:	55                   	push   %ebp
c01004a9:	56                   	push   %esi
c01004aa:	57                   	push   %edi
c01004ab:	0f a8                	push   %gs
c01004ad:	0f a0                	push   %fs
c01004af:	1e                   	push   %ds
c01004b0:	06                   	push   %es
c01004b1:	54                   	push   %esp
c01004b2:	e8 5f 0e 00 00       	call   c0101316 <intrpt_handler>
c01004b7:	5c                   	pop    %esp
c01004b8:	07                   	pop    %es
c01004b9:	1f                   	pop    %ds
c01004ba:	0f a1                	pop    %fs
c01004bc:	0f a9                	pop    %gs
c01004be:	5f                   	pop    %edi
c01004bf:	5e                   	pop    %esi
c01004c0:	5d                   	pop    %ebp
c01004c1:	5a                   	pop    %edx
c01004c2:	59                   	pop    %ecx
c01004c3:	5b                   	pop    %ebx
c01004c4:	58                   	pop    %eax
c01004c5:	81 c4 08 00 00 00    	add    $0x8,%esp
c01004cb:	fb                   	sti    
c01004cc:	cf                   	iret   
c01004cd:	00 00                	add    %al,(%eax)
	...

c01004d0 <dbg_startTimer>:
c01004d0:	55                   	push   %ebp
c01004d1:	89 e5                	mov    %esp,%ebp
c01004d3:	83 ec 08             	sub    $0x8,%esp
c01004d6:	e8 f2 fb ff ff       	call   c01000cd <cpu_rdtsc>
c01004db:	a3 c0 3c 1d c0       	mov    %eax,0xc01d3cc0
c01004e0:	89 15 c4 3c 1d c0    	mov    %edx,0xc01d3cc4
c01004e6:	c9                   	leave  
c01004e7:	c3                   	ret    

c01004e8 <dbg_stopTimer>:
c01004e8:	55                   	push   %ebp
c01004e9:	89 e5                	mov    %esp,%ebp
c01004eb:	57                   	push   %edi
c01004ec:	56                   	push   %esi
c01004ed:	53                   	push   %ebx
c01004ee:	83 ec 2c             	sub    $0x2c,%esp
c01004f1:	e8 d7 fb ff ff       	call   c01000cd <cpu_rdtsc>
c01004f6:	89 c1                	mov    %eax,%ecx
c01004f8:	89 d3                	mov    %edx,%ebx
c01004fa:	a1 c0 3c 1d c0       	mov    0xc01d3cc0,%eax
c01004ff:	8b 15 c4 3c 1d c0    	mov    0xc01d3cc4,%edx
c0100505:	89 ce                	mov    %ecx,%esi
c0100507:	89 df                	mov    %ebx,%edi
c0100509:	29 c6                	sub    %eax,%esi
c010050b:	19 d7                	sbb    %edx,%edi
c010050d:	89 f0                	mov    %esi,%eax
c010050f:	89 fa                	mov    %edi,%edx
c0100511:	89 45 e0             	mov    %eax,-0x20(%ebp)
c0100514:	89 55 e4             	mov    %edx,-0x1c(%ebp)
c0100517:	8d 45 e0             	lea    -0x20(%ebp),%eax
c010051a:	89 45 ec             	mov    %eax,-0x14(%ebp)
c010051d:	8b 45 ec             	mov    -0x14(%ebp),%eax
c0100520:	8b 10                	mov    (%eax),%edx
c0100522:	8b 45 ec             	mov    -0x14(%ebp),%eax
c0100525:	83 c0 04             	add    $0x4,%eax
c0100528:	8b 00                	mov    (%eax),%eax
c010052a:	89 54 24 08          	mov    %edx,0x8(%esp)
c010052e:	89 44 24 04          	mov    %eax,0x4(%esp)
c0100532:	c7 04 24 f4 ae 16 c0 	movl   $0xc016aef4,(%esp)
c0100539:	e8 07 af 00 00       	call   c010b445 <vid_printf>
c010053e:	83 c4 2c             	add    $0x2c,%esp
c0100541:	5b                   	pop    %ebx
c0100542:	5e                   	pop    %esi
c0100543:	5f                   	pop    %edi
c0100544:	5d                   	pop    %ebp
c0100545:	c3                   	ret    
	...

c0100548 <elf_loadprog>:
c0100548:	55                   	push   %ebp
c0100549:	89 e5                	mov    %esp,%ebp
c010054b:	83 ec 38             	sub    $0x38,%esp
c010054e:	c7 45 e0 00 00 00 00 	movl   $0x0,-0x20(%ebp)
c0100555:	e8 06 49 00 00       	call   c0104e60 <proc_getRunning>
c010055a:	89 45 e4             	mov    %eax,-0x1c(%ebp)
c010055d:	8b 45 08             	mov    0x8(%ebp),%eax
c0100560:	89 45 f0             	mov    %eax,-0x10(%ebp)
c0100563:	c7 45 f4 00 00 00 00 	movl   $0x0,-0xc(%ebp)
c010056a:	8b 45 f0             	mov    -0x10(%ebp),%eax
c010056d:	8b 10                	mov    (%eax),%edx
c010056f:	b8 10 af 16 c0       	mov    $0xc016af10,%eax
c0100574:	8b 00                	mov    (%eax),%eax
c0100576:	39 c2                	cmp    %eax,%edx
c0100578:	74 18                	je     c0100592 <elf_loadprog+0x4a>
c010057a:	c7 04 24 15 af 16 c0 	movl   $0xc016af15,(%esp)
c0100581:	e8 bf ae 00 00       	call   c010b445 <vid_printf>
c0100586:	c7 45 dc ff ff ff ff 	movl   $0xffffffff,-0x24(%ebp)
c010058d:	e9 54 01 00 00       	jmp    c01006e6 <elf_loadprog+0x19e>
c0100592:	8b 45 e4             	mov    -0x1c(%ebp),%eax
c0100595:	c7 40 0c 00 00 00 00 	movl   $0x0,0xc(%eax)
c010059c:	8b 45 e4             	mov    -0x1c(%ebp),%eax
c010059f:	c7 40 10 00 00 00 00 	movl   $0x0,0x10(%eax)
c01005a6:	8b 45 f0             	mov    -0x10(%ebp),%eax
c01005a9:	8b 40 1c             	mov    0x1c(%eax),%eax
c01005ac:	03 45 08             	add    0x8(%ebp),%eax
c01005af:	89 45 ec             	mov    %eax,-0x14(%ebp)
c01005b2:	c7 45 e8 00 00 00 00 	movl   $0x0,-0x18(%ebp)
c01005b9:	e9 0c 01 00 00       	jmp    c01006ca <elf_loadprog+0x182>
c01005be:	8b 45 ec             	mov    -0x14(%ebp),%eax
c01005c1:	89 45 f4             	mov    %eax,-0xc(%ebp)
c01005c4:	8b 45 f4             	mov    -0xc(%ebp),%eax
c01005c7:	8b 00                	mov    (%eax),%eax
c01005c9:	83 f8 01             	cmp    $0x1,%eax
c01005cc:	0f 85 e7 00 00 00    	jne    c01006b9 <elf_loadprog+0x171>
c01005d2:	8b 45 f4             	mov    -0xc(%ebp),%eax
c01005d5:	8b 40 04             	mov    0x4(%eax),%eax
c01005d8:	03 45 08             	add    0x8(%ebp),%eax
c01005db:	89 45 fc             	mov    %eax,-0x4(%ebp)
c01005de:	83 7d e0 00          	cmpl   $0x0,-0x20(%ebp)
c01005e2:	75 22                	jne    c0100606 <elf_loadprog+0xbe>
c01005e4:	8b 45 f4             	mov    -0xc(%ebp),%eax
c01005e7:	8b 40 08             	mov    0x8(%eax),%eax
c01005ea:	85 c0                	test   %eax,%eax
c01005ec:	74 36                	je     c0100624 <elf_loadprog+0xdc>
c01005ee:	c7 04 24 32 af 16 c0 	movl   $0xc016af32,(%esp)
c01005f5:	e8 4b ae 00 00       	call   c010b445 <vid_printf>
c01005fa:	c7 45 dc ff ff ff ff 	movl   $0xffffffff,-0x24(%ebp)
c0100601:	e9 e0 00 00 00       	jmp    c01006e6 <elf_loadprog+0x19e>
c0100606:	83 7d e0 02          	cmpl   $0x2,-0x20(%ebp)
c010060a:	75 18                	jne    c0100624 <elf_loadprog+0xdc>
c010060c:	c7 04 24 48 af 16 c0 	movl   $0xc016af48,(%esp)
c0100613:	e8 2d ae 00 00       	call   c010b445 <vid_printf>
c0100618:	c7 45 dc ff ff ff ff 	movl   $0xffffffff,-0x24(%ebp)
c010061f:	e9 c2 00 00 00       	jmp    c01006e6 <elf_loadprog+0x19e>
c0100624:	8b 45 f4             	mov    -0xc(%ebp),%eax
c0100627:	8b 40 14             	mov    0x14(%eax),%eax
c010062a:	05 ff 0f 00 00       	add    $0xfff,%eax
c010062f:	c1 e8 0c             	shr    $0xc,%eax
c0100632:	89 45 f8             	mov    %eax,-0x8(%ebp)
c0100635:	83 7d e0 00          	cmpl   $0x0,-0x20(%ebp)
c0100639:	74 13                	je     c010064e <elf_loadprog+0x106>
c010063b:	8b 45 f4             	mov    -0xc(%ebp),%eax
c010063e:	8b 40 08             	mov    0x8(%eax),%eax
c0100641:	25 ff 0f 00 00       	and    $0xfff,%eax
c0100646:	85 c0                	test   %eax,%eax
c0100648:	74 04                	je     c010064e <elf_loadprog+0x106>
c010064a:	83 45 f8 01          	addl   $0x1,-0x8(%ebp)
c010064e:	8b 45 f8             	mov    -0x8(%ebp),%eax
c0100651:	c7 44 24 04 00 00 00 	movl   $0x0,0x4(%esp)
c0100658:	00 
c0100659:	89 04 24             	mov    %eax,(%esp)
c010065c:	e8 5f 54 00 00       	call   c0105ac0 <proc_changeSize>
c0100661:	8b 45 f4             	mov    -0xc(%ebp),%eax
c0100664:	8b 50 10             	mov    0x10(%eax),%edx
c0100667:	8b 45 f4             	mov    -0xc(%ebp),%eax
c010066a:	8b 40 08             	mov    0x8(%eax),%eax
c010066d:	89 c1                	mov    %eax,%ecx
c010066f:	89 54 24 08          	mov    %edx,0x8(%esp)
c0100673:	8b 45 fc             	mov    -0x4(%ebp),%eax
c0100676:	89 44 24 04          	mov    %eax,0x4(%esp)
c010067a:	89 0c 24             	mov    %ecx,(%esp)
c010067d:	e8 15 bb 00 00       	call   c010c197 <memcpy>
c0100682:	8b 45 f4             	mov    -0xc(%ebp),%eax
c0100685:	8b 50 14             	mov    0x14(%eax),%edx
c0100688:	8b 45 f4             	mov    -0xc(%ebp),%eax
c010068b:	8b 40 10             	mov    0x10(%eax),%eax
c010068e:	89 d1                	mov    %edx,%ecx
c0100690:	29 c1                	sub    %eax,%ecx
c0100692:	8b 45 f4             	mov    -0xc(%ebp),%eax
c0100695:	8b 50 08             	mov    0x8(%eax),%edx
c0100698:	8b 45 f4             	mov    -0xc(%ebp),%eax
c010069b:	8b 40 10             	mov    0x10(%eax),%eax
c010069e:	8d 04 02             	lea    (%edx,%eax,1),%eax
c01006a1:	89 4c 24 08          	mov    %ecx,0x8(%esp)
c01006a5:	c7 44 24 04 00 00 00 	movl   $0x0,0x4(%esp)
c01006ac:	00 
c01006ad:	89 04 24             	mov    %eax,(%esp)
c01006b0:	e8 dd bb 00 00       	call   c010c292 <memset>
c01006b5:	83 45 e0 01          	addl   $0x1,-0x20(%ebp)
c01006b9:	8b 45 f0             	mov    -0x10(%ebp),%eax
c01006bc:	0f b7 40 2a          	movzwl 0x2a(%eax),%eax
c01006c0:	0f b7 c0             	movzwl %ax,%eax
c01006c3:	01 45 ec             	add    %eax,-0x14(%ebp)
c01006c6:	83 45 e8 01          	addl   $0x1,-0x18(%ebp)
c01006ca:	8b 45 f0             	mov    -0x10(%ebp),%eax
c01006cd:	0f b7 40 2c          	movzwl 0x2c(%eax),%eax
c01006d1:	0f b7 c0             	movzwl %ax,%eax
c01006d4:	3b 45 e8             	cmp    -0x18(%ebp),%eax
c01006d7:	0f 87 e1 fe ff ff    	ja     c01005be <elf_loadprog+0x76>
c01006dd:	8b 45 f0             	mov    -0x10(%ebp),%eax
c01006e0:	8b 40 18             	mov    0x18(%eax),%eax
c01006e3:	89 45 dc             	mov    %eax,-0x24(%ebp)
c01006e6:	8b 45 dc             	mov    -0x24(%ebp),%eax
c01006e9:	c9                   	leave  
c01006ea:	c3                   	ret    
	...

c01006ec <gdt_init>:
c01006ec:	55                   	push   %ebp
c01006ed:	89 e5                	mov    %esp,%ebp
c01006ef:	83 ec 28             	sub    $0x28,%esp
c01006f2:	b8 00 40 1d c0       	mov    $0xc01d4000,%eax
c01006f7:	89 45 fc             	mov    %eax,-0x4(%ebp)
c01006fa:	66 c7 45 fa 2f 00    	movw   $0x2f,-0x6(%ebp)
c0100700:	c7 44 24 08 30 00 00 	movl   $0x30,0x8(%esp)
c0100707:	00 
c0100708:	c7 44 24 04 00 00 00 	movl   $0x0,0x4(%esp)
c010070f:	00 
c0100710:	c7 04 24 00 40 1d c0 	movl   $0xc01d4000,(%esp)
c0100717:	e8 76 bb 00 00       	call   c010c292 <memset>
c010071c:	c7 44 24 10 00 00 00 	movl   $0x0,0x10(%esp)
c0100723:	00 
c0100724:	c7 44 24 0c 9a 00 00 	movl   $0x9a,0xc(%esp)
c010072b:	00 
c010072c:	c7 44 24 08 ff ff 0f 	movl   $0xfffff,0x8(%esp)
c0100733:	00 
c0100734:	c7 44 24 04 00 00 00 	movl   $0x0,0x4(%esp)
c010073b:	00 
c010073c:	c7 04 24 01 00 00 00 	movl   $0x1,(%esp)
c0100743:	e8 a4 01 00 00       	call   c01008ec <gdt_set_desc>
c0100748:	c7 44 24 10 00 00 00 	movl   $0x0,0x10(%esp)
c010074f:	00 
c0100750:	c7 44 24 0c 92 00 00 	movl   $0x92,0xc(%esp)
c0100757:	00 
c0100758:	c7 44 24 08 ff ff 0f 	movl   $0xfffff,0x8(%esp)
c010075f:	00 
c0100760:	c7 44 24 04 00 00 00 	movl   $0x0,0x4(%esp)
c0100767:	00 
c0100768:	c7 04 24 02 00 00 00 	movl   $0x2,(%esp)
c010076f:	e8 78 01 00 00       	call   c01008ec <gdt_set_desc>
c0100774:	c7 44 24 10 03 00 00 	movl   $0x3,0x10(%esp)
c010077b:	00 
c010077c:	c7 44 24 0c 9a 00 00 	movl   $0x9a,0xc(%esp)
c0100783:	00 
c0100784:	c7 44 24 08 ff ff 0f 	movl   $0xfffff,0x8(%esp)
c010078b:	00 
c010078c:	c7 44 24 04 00 00 00 	movl   $0x0,0x4(%esp)
c0100793:	00 
c0100794:	c7 04 24 03 00 00 00 	movl   $0x3,(%esp)
c010079b:	e8 4c 01 00 00       	call   c01008ec <gdt_set_desc>
c01007a0:	c7 44 24 10 03 00 00 	movl   $0x3,0x10(%esp)
c01007a7:	00 
c01007a8:	c7 44 24 0c 92 00 00 	movl   $0x92,0xc(%esp)
c01007af:	00 
c01007b0:	c7 44 24 08 ff ff 0f 	movl   $0xfffff,0x8(%esp)
c01007b7:	00 
c01007b8:	c7 44 24 04 00 00 00 	movl   $0x0,0x4(%esp)
c01007bf:	00 
c01007c0:	c7 04 24 04 00 00 00 	movl   $0x4,(%esp)
c01007c7:	e8 20 01 00 00       	call   c01008ec <gdt_set_desc>
c01007cc:	c7 05 04 50 1d c0 fc 	movl   $0xffbffffc,0xc01d5004
c01007d3:	ff bf ff 
c01007d6:	66 c7 05 08 50 1d c0 	movw   $0x10,0xc01d5008
c01007dd:	10 00 
c01007df:	66 c7 05 66 50 1d c0 	movw   $0x2078,0xc01d5066
c01007e6:	78 20 
c01007e8:	c6 05 67 70 1d c0 ff 	movb   $0xff,0xc01d7067
c01007ef:	b8 00 50 1d c0       	mov    $0xc01d5000,%eax
c01007f4:	c7 44 24 08 67 20 00 	movl   $0x2067,0x8(%esp)
c01007fb:	00 
c01007fc:	89 44 24 04          	mov    %eax,0x4(%esp)
c0100800:	c7 04 24 05 00 00 00 	movl   $0x5,(%esp)
c0100807:	e8 6e 00 00 00       	call   c010087a <gdt_set_tss_desc>
c010080c:	8d 45 fa             	lea    -0x6(%ebp),%eax
c010080f:	89 04 24             	mov    %eax,(%esp)
c0100812:	e8 7c f8 ff ff       	call   c0100093 <gdt_flush>
c0100817:	c7 04 24 28 00 00 00 	movl   $0x28,(%esp)
c010081e:	e8 8e f8 ff ff       	call   c01000b1 <tss_load>
c0100823:	e8 e7 3b 00 00       	call   c010440f <paging_gdtFinished>
c0100828:	c9                   	leave  
c0100829:	c3                   	ret    

c010082a <tss_removeIOMap>:
c010082a:	55                   	push   %ebp
c010082b:	89 e5                	mov    %esp,%ebp
c010082d:	66 c7 05 66 50 1d c0 	movw   $0x2078,0xc01d5066
c0100834:	78 20 
c0100836:	5d                   	pop    %ebp
c0100837:	c3                   	ret    

c0100838 <tss_ioMapPresent>:
c0100838:	55                   	push   %ebp
c0100839:	89 e5                	mov    %esp,%ebp
c010083b:	0f b7 05 66 50 1d c0 	movzwl 0xc01d5066,%eax
c0100842:	66 3d 78 20          	cmp    $0x2078,%ax
c0100846:	0f 95 c0             	setne  %al
c0100849:	0f b6 c0             	movzbl %al,%eax
c010084c:	5d                   	pop    %ebp
c010084d:	c3                   	ret    

c010084e <tss_setIOMap>:
c010084e:	55                   	push   %ebp
c010084f:	89 e5                	mov    %esp,%ebp
c0100851:	83 ec 18             	sub    $0x18,%esp
c0100854:	66 c7 05 66 50 1d c0 	movw   $0x68,0xc01d5066
c010085b:	68 00 
c010085d:	c7 44 24 08 ff 1f 00 	movl   $0x1fff,0x8(%esp)
c0100864:	00 
c0100865:	8b 45 08             	mov    0x8(%ebp),%eax
c0100868:	89 44 24 04          	mov    %eax,0x4(%esp)
c010086c:	c7 04 24 68 50 1d c0 	movl   $0xc01d5068,(%esp)
c0100873:	e8 1f b9 00 00       	call   c010c197 <memcpy>
c0100878:	c9                   	leave  
c0100879:	c3                   	ret    

c010087a <gdt_set_tss_desc>:
c010087a:	55                   	push   %ebp
c010087b:	89 e5                	mov    %esp,%ebp
c010087d:	83 ec 04             	sub    $0x4,%esp
c0100880:	8b 45 08             	mov    0x8(%ebp),%eax
c0100883:	66 89 45 fc          	mov    %ax,-0x4(%ebp)
c0100887:	0f b7 55 fc          	movzwl -0x4(%ebp),%edx
c010088b:	8b 45 0c             	mov    0xc(%ebp),%eax
c010088e:	66 89 04 d5 02 40 1d 	mov    %ax,-0x3fe2bffe(,%edx,8)
c0100895:	c0 
c0100896:	0f b7 55 fc          	movzwl -0x4(%ebp),%edx
c010089a:	8b 45 0c             	mov    0xc(%ebp),%eax
c010089d:	c1 e8 10             	shr    $0x10,%eax
c01008a0:	88 04 d5 04 40 1d c0 	mov    %al,-0x3fe2bffc(,%edx,8)
c01008a7:	0f b7 55 fc          	movzwl -0x4(%ebp),%edx
c01008ab:	8b 45 0c             	mov    0xc(%ebp),%eax
c01008ae:	c1 e8 18             	shr    $0x18,%eax
c01008b1:	88 04 d5 07 40 1d c0 	mov    %al,-0x3fe2bff9(,%edx,8)
c01008b8:	0f b7 55 fc          	movzwl -0x4(%ebp),%edx
c01008bc:	8b 45 10             	mov    0x10(%ebp),%eax
c01008bf:	66 89 04 d5 00 40 1d 	mov    %ax,-0x3fe2c000(,%edx,8)
c01008c6:	c0 
c01008c7:	0f b7 55 fc          	movzwl -0x4(%ebp),%edx
c01008cb:	8b 45 10             	mov    0x10(%ebp),%eax
c01008ce:	c1 e8 10             	shr    $0x10,%eax
c01008d1:	83 e0 0f             	and    $0xf,%eax
c01008d4:	83 c8 40             	or     $0x40,%eax
c01008d7:	88 04 d5 06 40 1d c0 	mov    %al,-0x3fe2bffa(,%edx,8)
c01008de:	0f b7 45 fc          	movzwl -0x4(%ebp),%eax
c01008e2:	c6 04 c5 05 40 1d c0 	movb   $0x89,-0x3fe2bffb(,%eax,8)
c01008e9:	89 
c01008ea:	c9                   	leave  
c01008eb:	c3                   	ret    

c01008ec <gdt_set_desc>:
c01008ec:	55                   	push   %ebp
c01008ed:	89 e5                	mov    %esp,%ebp
c01008ef:	83 ec 0c             	sub    $0xc,%esp
c01008f2:	8b 45 08             	mov    0x8(%ebp),%eax
c01008f5:	8b 55 14             	mov    0x14(%ebp),%edx
c01008f8:	8b 4d 18             	mov    0x18(%ebp),%ecx
c01008fb:	66 89 45 fc          	mov    %ax,-0x4(%ebp)
c01008ff:	88 55 f8             	mov    %dl,-0x8(%ebp)
c0100902:	88 4d f4             	mov    %cl,-0xc(%ebp)
c0100905:	0f b7 55 fc          	movzwl -0x4(%ebp),%edx
c0100909:	8b 45 0c             	mov    0xc(%ebp),%eax
c010090c:	66 89 04 d5 02 40 1d 	mov    %ax,-0x3fe2bffe(,%edx,8)
c0100913:	c0 
c0100914:	0f b7 55 fc          	movzwl -0x4(%ebp),%edx
c0100918:	8b 45 0c             	mov    0xc(%ebp),%eax
c010091b:	c1 e8 10             	shr    $0x10,%eax
c010091e:	88 04 d5 04 40 1d c0 	mov    %al,-0x3fe2bffc(,%edx,8)
c0100925:	0f b7 55 fc          	movzwl -0x4(%ebp),%edx
c0100929:	8b 45 0c             	mov    0xc(%ebp),%eax
c010092c:	c1 e8 18             	shr    $0x18,%eax
c010092f:	88 04 d5 07 40 1d c0 	mov    %al,-0x3fe2bff9(,%edx,8)
c0100936:	0f b7 55 fc          	movzwl -0x4(%ebp),%edx
c010093a:	8b 45 10             	mov    0x10(%ebp),%eax
c010093d:	66 89 04 d5 00 40 1d 	mov    %ax,-0x3fe2c000(,%edx,8)
c0100944:	c0 
c0100945:	0f b7 55 fc          	movzwl -0x4(%ebp),%edx
c0100949:	8b 45 10             	mov    0x10(%ebp),%eax
c010094c:	c1 e8 10             	shr    $0x10,%eax
c010094f:	83 e0 0f             	and    $0xf,%eax
c0100952:	83 c8 c0             	or     $0xffffffc0,%eax
c0100955:	88 04 d5 06 40 1d c0 	mov    %al,-0x3fe2bffa(,%edx,8)
c010095c:	0f b7 4d fc          	movzwl -0x4(%ebp),%ecx
c0100960:	0f b6 45 f4          	movzbl -0xc(%ebp),%eax
c0100964:	83 e0 03             	and    $0x3,%eax
c0100967:	c1 e0 05             	shl    $0x5,%eax
c010096a:	89 c2                	mov    %eax,%edx
c010096c:	0f b6 45 f8          	movzbl -0x8(%ebp),%eax
c0100970:	09 d0                	or     %edx,%eax
c0100972:	88 04 cd 05 40 1d c0 	mov    %al,-0x3fe2bffb(,%ecx,8)
c0100979:	c9                   	leave  
c010097a:	c3                   	ret    
	...

c010097c <intrpt_no2Name>:
c010097c:	55                   	push   %ebp
c010097d:	89 e5                	mov    %esp,%ebp
c010097f:	83 ec 04             	sub    $0x4,%esp
c0100982:	83 7d 08 30          	cmpl   $0x30,0x8(%ebp)
c0100986:	77 0f                	ja     c0100997 <intrpt_no2Name+0x1b>
c0100988:	8b 45 08             	mov    0x8(%ebp),%eax
c010098b:	8b 04 85 00 e0 10 c0 	mov    -0x3fef2000(,%eax,4),%eax
c0100992:	89 45 fc             	mov    %eax,-0x4(%ebp)
c0100995:	eb 07                	jmp    c010099e <intrpt_no2Name+0x22>
c0100997:	c7 45 fc c7 b0 16 c0 	movl   $0xc016b0c7,-0x4(%ebp)
c010099e:	8b 45 fc             	mov    -0x4(%ebp),%eax
c01009a1:	c9                   	leave  
c01009a2:	c3                   	ret    

c01009a3 <intrpt_init>:
c01009a3:	55                   	push   %ebp
c01009a4:	89 e5                	mov    %esp,%ebp
c01009a6:	83 ec 28             	sub    $0x28,%esp
c01009a9:	b8 00 71 1d c0       	mov    $0xc01d7100,%eax
c01009ae:	89 45 f8             	mov    %eax,-0x8(%ebp)
c01009b1:	66 c7 45 f6 ff 07    	movw   $0x7ff,-0xa(%ebp)
c01009b7:	c7 44 24 08 00 00 00 	movl   $0x0,0x8(%esp)
c01009be:	00 
c01009bf:	c7 44 24 04 a7 01 10 	movl   $0xc01001a7,0x4(%esp)
c01009c6:	c0 
c01009c7:	c7 04 24 00 00 00 00 	movl   $0x0,(%esp)
c01009ce:	e8 71 0e 00 00       	call   c0101844 <intrpt_setIDT>
c01009d3:	c7 44 24 08 00 00 00 	movl   $0x0,0x8(%esp)
c01009da:	00 
c01009db:	c7 44 24 04 b7 01 10 	movl   $0xc01001b7,0x4(%esp)
c01009e2:	c0 
c01009e3:	c7 04 24 01 00 00 00 	movl   $0x1,(%esp)
c01009ea:	e8 55 0e 00 00       	call   c0101844 <intrpt_setIDT>
c01009ef:	c7 44 24 08 00 00 00 	movl   $0x0,0x8(%esp)
c01009f6:	00 
c01009f7:	c7 44 24 04 c7 01 10 	movl   $0xc01001c7,0x4(%esp)
c01009fe:	c0 
c01009ff:	c7 04 24 02 00 00 00 	movl   $0x2,(%esp)
c0100a06:	e8 39 0e 00 00       	call   c0101844 <intrpt_setIDT>
c0100a0b:	c7 44 24 08 00 00 00 	movl   $0x0,0x8(%esp)
c0100a12:	00 
c0100a13:	c7 44 24 04 d7 01 10 	movl   $0xc01001d7,0x4(%esp)
c0100a1a:	c0 
c0100a1b:	c7 04 24 03 00 00 00 	movl   $0x3,(%esp)
c0100a22:	e8 1d 0e 00 00       	call   c0101844 <intrpt_setIDT>
c0100a27:	c7 44 24 08 00 00 00 	movl   $0x0,0x8(%esp)
c0100a2e:	00 
c0100a2f:	c7 44 24 04 e7 01 10 	movl   $0xc01001e7,0x4(%esp)
c0100a36:	c0 
c0100a37:	c7 04 24 04 00 00 00 	movl   $0x4,(%esp)
c0100a3e:	e8 01 0e 00 00       	call   c0101844 <intrpt_setIDT>
c0100a43:	c7 44 24 08 00 00 00 	movl   $0x0,0x8(%esp)
c0100a4a:	00 
c0100a4b:	c7 44 24 04 f7 01 10 	movl   $0xc01001f7,0x4(%esp)
c0100a52:	c0 
c0100a53:	c7 04 24 05 00 00 00 	movl   $0x5,(%esp)
c0100a5a:	e8 e5 0d 00 00       	call   c0101844 <intrpt_setIDT>
c0100a5f:	c7 44 24 08 00 00 00 	movl   $0x0,0x8(%esp)
c0100a66:	00 
c0100a67:	c7 44 24 04 07 02 10 	movl   $0xc0100207,0x4(%esp)
c0100a6e:	c0 
c0100a6f:	c7 04 24 06 00 00 00 	movl   $0x6,(%esp)
c0100a76:	e8 c9 0d 00 00       	call   c0101844 <intrpt_setIDT>
c0100a7b:	c7 44 24 08 00 00 00 	movl   $0x0,0x8(%esp)
c0100a82:	00 
c0100a83:	c7 44 24 04 17 02 10 	movl   $0xc0100217,0x4(%esp)
c0100a8a:	c0 
c0100a8b:	c7 04 24 07 00 00 00 	movl   $0x7,(%esp)
c0100a92:	e8 ad 0d 00 00       	call   c0101844 <intrpt_setIDT>
c0100a97:	c7 44 24 08 00 00 00 	movl   $0x0,0x8(%esp)
c0100a9e:	00 
c0100a9f:	c7 44 24 04 27 02 10 	movl   $0xc0100227,0x4(%esp)
c0100aa6:	c0 
c0100aa7:	c7 04 24 08 00 00 00 	movl   $0x8,(%esp)
c0100aae:	e8 91 0d 00 00       	call   c0101844 <intrpt_setIDT>
c0100ab3:	c7 44 24 08 00 00 00 	movl   $0x0,0x8(%esp)
c0100aba:	00 
c0100abb:	c7 44 24 04 32 02 10 	movl   $0xc0100232,0x4(%esp)
c0100ac2:	c0 
c0100ac3:	c7 04 24 09 00 00 00 	movl   $0x9,(%esp)
c0100aca:	e8 75 0d 00 00       	call   c0101844 <intrpt_setIDT>
c0100acf:	c7 44 24 08 00 00 00 	movl   $0x0,0x8(%esp)
c0100ad6:	00 
c0100ad7:	c7 44 24 04 42 02 10 	movl   $0xc0100242,0x4(%esp)
c0100ade:	c0 
c0100adf:	c7 04 24 0a 00 00 00 	movl   $0xa,(%esp)
c0100ae6:	e8 59 0d 00 00       	call   c0101844 <intrpt_setIDT>
c0100aeb:	c7 44 24 08 00 00 00 	movl   $0x0,0x8(%esp)
c0100af2:	00 
c0100af3:	c7 44 24 04 4d 02 10 	movl   $0xc010024d,0x4(%esp)
c0100afa:	c0 
c0100afb:	c7 04 24 0b 00 00 00 	movl   $0xb,(%esp)
c0100b02:	e8 3d 0d 00 00       	call   c0101844 <intrpt_setIDT>
c0100b07:	c7 44 24 08 00 00 00 	movl   $0x0,0x8(%esp)
c0100b0e:	00 
c0100b0f:	c7 44 24 04 58 02 10 	movl   $0xc0100258,0x4(%esp)
c0100b16:	c0 
c0100b17:	c7 04 24 0c 00 00 00 	movl   $0xc,(%esp)
c0100b1e:	e8 21 0d 00 00       	call   c0101844 <intrpt_setIDT>
c0100b23:	c7 44 24 08 00 00 00 	movl   $0x0,0x8(%esp)
c0100b2a:	00 
c0100b2b:	c7 44 24 04 63 02 10 	movl   $0xc0100263,0x4(%esp)
c0100b32:	c0 
c0100b33:	c7 04 24 0d 00 00 00 	movl   $0xd,(%esp)
c0100b3a:	e8 05 0d 00 00       	call   c0101844 <intrpt_setIDT>
c0100b3f:	c7 44 24 08 00 00 00 	movl   $0x0,0x8(%esp)
c0100b46:	00 
c0100b47:	c7 44 24 04 6e 02 10 	movl   $0xc010026e,0x4(%esp)
c0100b4e:	c0 
c0100b4f:	c7 04 24 0e 00 00 00 	movl   $0xe,(%esp)
c0100b56:	e8 e9 0c 00 00       	call   c0101844 <intrpt_setIDT>
c0100b5b:	c7 44 24 08 00 00 00 	movl   $0x0,0x8(%esp)
c0100b62:	00 
c0100b63:	c7 44 24 04 79 02 10 	movl   $0xc0100279,0x4(%esp)
c0100b6a:	c0 
c0100b6b:	c7 04 24 0f 00 00 00 	movl   $0xf,(%esp)
c0100b72:	e8 cd 0c 00 00       	call   c0101844 <intrpt_setIDT>
c0100b77:	c7 44 24 08 00 00 00 	movl   $0x0,0x8(%esp)
c0100b7e:	00 
c0100b7f:	c7 44 24 04 89 02 10 	movl   $0xc0100289,0x4(%esp)
c0100b86:	c0 
c0100b87:	c7 04 24 10 00 00 00 	movl   $0x10,(%esp)
c0100b8e:	e8 b1 0c 00 00       	call   c0101844 <intrpt_setIDT>
c0100b93:	c7 44 24 08 00 00 00 	movl   $0x0,0x8(%esp)
c0100b9a:	00 
c0100b9b:	c7 44 24 04 99 02 10 	movl   $0xc0100299,0x4(%esp)
c0100ba2:	c0 
c0100ba3:	c7 04 24 11 00 00 00 	movl   $0x11,(%esp)
c0100baa:	e8 95 0c 00 00       	call   c0101844 <intrpt_setIDT>
c0100baf:	c7 44 24 08 00 00 00 	movl   $0x0,0x8(%esp)
c0100bb6:	00 
c0100bb7:	c7 44 24 04 a4 02 10 	movl   $0xc01002a4,0x4(%esp)
c0100bbe:	c0 
c0100bbf:	c7 04 24 12 00 00 00 	movl   $0x12,(%esp)
c0100bc6:	e8 79 0c 00 00       	call   c0101844 <intrpt_setIDT>
c0100bcb:	c7 44 24 08 00 00 00 	movl   $0x0,0x8(%esp)
c0100bd2:	00 
c0100bd3:	c7 44 24 04 b4 02 10 	movl   $0xc01002b4,0x4(%esp)
c0100bda:	c0 
c0100bdb:	c7 04 24 13 00 00 00 	movl   $0x13,(%esp)
c0100be2:	e8 5d 0c 00 00       	call   c0101844 <intrpt_setIDT>
c0100be7:	c7 44 24 08 00 00 00 	movl   $0x0,0x8(%esp)
c0100bee:	00 
c0100bef:	c7 44 24 04 c4 02 10 	movl   $0xc01002c4,0x4(%esp)
c0100bf6:	c0 
c0100bf7:	c7 04 24 14 00 00 00 	movl   $0x14,(%esp)
c0100bfe:	e8 41 0c 00 00       	call   c0101844 <intrpt_setIDT>
c0100c03:	c7 44 24 08 00 00 00 	movl   $0x0,0x8(%esp)
c0100c0a:	00 
c0100c0b:	c7 44 24 04 d4 02 10 	movl   $0xc01002d4,0x4(%esp)
c0100c12:	c0 
c0100c13:	c7 04 24 15 00 00 00 	movl   $0x15,(%esp)
c0100c1a:	e8 25 0c 00 00       	call   c0101844 <intrpt_setIDT>
c0100c1f:	c7 44 24 08 00 00 00 	movl   $0x0,0x8(%esp)
c0100c26:	00 
c0100c27:	c7 44 24 04 e4 02 10 	movl   $0xc01002e4,0x4(%esp)
c0100c2e:	c0 
c0100c2f:	c7 04 24 16 00 00 00 	movl   $0x16,(%esp)
c0100c36:	e8 09 0c 00 00       	call   c0101844 <intrpt_setIDT>
c0100c3b:	c7 44 24 08 00 00 00 	movl   $0x0,0x8(%esp)
c0100c42:	00 
c0100c43:	c7 44 24 04 f4 02 10 	movl   $0xc01002f4,0x4(%esp)
c0100c4a:	c0 
c0100c4b:	c7 04 24 17 00 00 00 	movl   $0x17,(%esp)
c0100c52:	e8 ed 0b 00 00       	call   c0101844 <intrpt_setIDT>
c0100c57:	c7 44 24 08 00 00 00 	movl   $0x0,0x8(%esp)
c0100c5e:	00 
c0100c5f:	c7 44 24 04 04 03 10 	movl   $0xc0100304,0x4(%esp)
c0100c66:	c0 
c0100c67:	c7 04 24 18 00 00 00 	movl   $0x18,(%esp)
c0100c6e:	e8 d1 0b 00 00       	call   c0101844 <intrpt_setIDT>
c0100c73:	c7 44 24 08 00 00 00 	movl   $0x0,0x8(%esp)
c0100c7a:	00 
c0100c7b:	c7 44 24 04 14 03 10 	movl   $0xc0100314,0x4(%esp)
c0100c82:	c0 
c0100c83:	c7 04 24 19 00 00 00 	movl   $0x19,(%esp)
c0100c8a:	e8 b5 0b 00 00       	call   c0101844 <intrpt_setIDT>
c0100c8f:	c7 44 24 08 00 00 00 	movl   $0x0,0x8(%esp)
c0100c96:	00 
c0100c97:	c7 44 24 04 24 03 10 	movl   $0xc0100324,0x4(%esp)
c0100c9e:	c0 
c0100c9f:	c7 04 24 1a 00 00 00 	movl   $0x1a,(%esp)
c0100ca6:	e8 99 0b 00 00       	call   c0101844 <intrpt_setIDT>
c0100cab:	c7 44 24 08 00 00 00 	movl   $0x0,0x8(%esp)
c0100cb2:	00 
c0100cb3:	c7 44 24 04 34 03 10 	movl   $0xc0100334,0x4(%esp)
c0100cba:	c0 
c0100cbb:	c7 04 24 1b 00 00 00 	movl   $0x1b,(%esp)
c0100cc2:	e8 7d 0b 00 00       	call   c0101844 <intrpt_setIDT>
c0100cc7:	c7 44 24 08 00 00 00 	movl   $0x0,0x8(%esp)
c0100cce:	00 
c0100ccf:	c7 44 24 04 44 03 10 	movl   $0xc0100344,0x4(%esp)
c0100cd6:	c0 
c0100cd7:	c7 04 24 1c 00 00 00 	movl   $0x1c,(%esp)
c0100cde:	e8 61 0b 00 00       	call   c0101844 <intrpt_setIDT>
c0100ce3:	c7 44 24 08 00 00 00 	movl   $0x0,0x8(%esp)
c0100cea:	00 
c0100ceb:	c7 44 24 04 54 03 10 	movl   $0xc0100354,0x4(%esp)
c0100cf2:	c0 
c0100cf3:	c7 04 24 1d 00 00 00 	movl   $0x1d,(%esp)
c0100cfa:	e8 45 0b 00 00       	call   c0101844 <intrpt_setIDT>
c0100cff:	c7 44 24 08 00 00 00 	movl   $0x0,0x8(%esp)
c0100d06:	00 
c0100d07:	c7 44 24 04 64 03 10 	movl   $0xc0100364,0x4(%esp)
c0100d0e:	c0 
c0100d0f:	c7 04 24 1e 00 00 00 	movl   $0x1e,(%esp)
c0100d16:	e8 29 0b 00 00       	call   c0101844 <intrpt_setIDT>
c0100d1b:	c7 44 24 08 00 00 00 	movl   $0x0,0x8(%esp)
c0100d22:	00 
c0100d23:	c7 44 24 04 74 03 10 	movl   $0xc0100374,0x4(%esp)
c0100d2a:	c0 
c0100d2b:	c7 04 24 1f 00 00 00 	movl   $0x1f,(%esp)
c0100d32:	e8 0d 0b 00 00       	call   c0101844 <intrpt_setIDT>
c0100d37:	c7 44 24 08 00 00 00 	movl   $0x0,0x8(%esp)
c0100d3e:	00 
c0100d3f:	c7 44 24 04 84 03 10 	movl   $0xc0100384,0x4(%esp)
c0100d46:	c0 
c0100d47:	c7 04 24 20 00 00 00 	movl   $0x20,(%esp)
c0100d4e:	e8 f1 0a 00 00       	call   c0101844 <intrpt_setIDT>
c0100d53:	c7 44 24 08 00 00 00 	movl   $0x0,0x8(%esp)
c0100d5a:	00 
c0100d5b:	c7 44 24 04 94 03 10 	movl   $0xc0100394,0x4(%esp)
c0100d62:	c0 
c0100d63:	c7 04 24 21 00 00 00 	movl   $0x21,(%esp)
c0100d6a:	e8 d5 0a 00 00       	call   c0101844 <intrpt_setIDT>
c0100d6f:	c7 44 24 08 00 00 00 	movl   $0x0,0x8(%esp)
c0100d76:	00 
c0100d77:	c7 44 24 04 a4 03 10 	movl   $0xc01003a4,0x4(%esp)
c0100d7e:	c0 
c0100d7f:	c7 04 24 22 00 00 00 	movl   $0x22,(%esp)
c0100d86:	e8 b9 0a 00 00       	call   c0101844 <intrpt_setIDT>
c0100d8b:	c7 44 24 08 00 00 00 	movl   $0x0,0x8(%esp)
c0100d92:	00 
c0100d93:	c7 44 24 04 b4 03 10 	movl   $0xc01003b4,0x4(%esp)
c0100d9a:	c0 
c0100d9b:	c7 04 24 23 00 00 00 	movl   $0x23,(%esp)
c0100da2:	e8 9d 0a 00 00       	call   c0101844 <intrpt_setIDT>
c0100da7:	c7 44 24 08 00 00 00 	movl   $0x0,0x8(%esp)
c0100dae:	00 
c0100daf:	c7 44 24 04 c4 03 10 	movl   $0xc01003c4,0x4(%esp)
c0100db6:	c0 
c0100db7:	c7 04 24 24 00 00 00 	movl   $0x24,(%esp)
c0100dbe:	e8 81 0a 00 00       	call   c0101844 <intrpt_setIDT>
c0100dc3:	c7 44 24 08 00 00 00 	movl   $0x0,0x8(%esp)
c0100dca:	00 
c0100dcb:	c7 44 24 04 d4 03 10 	movl   $0xc01003d4,0x4(%esp)
c0100dd2:	c0 
c0100dd3:	c7 04 24 25 00 00 00 	movl   $0x25,(%esp)
c0100dda:	e8 65 0a 00 00       	call   c0101844 <intrpt_setIDT>
c0100ddf:	c7 44 24 08 00 00 00 	movl   $0x0,0x8(%esp)
c0100de6:	00 
c0100de7:	c7 44 24 04 e4 03 10 	movl   $0xc01003e4,0x4(%esp)
c0100dee:	c0 
c0100def:	c7 04 24 26 00 00 00 	movl   $0x26,(%esp)
c0100df6:	e8 49 0a 00 00       	call   c0101844 <intrpt_setIDT>
c0100dfb:	c7 44 24 08 00 00 00 	movl   $0x0,0x8(%esp)
c0100e02:	00 
c0100e03:	c7 44 24 04 f4 03 10 	movl   $0xc01003f4,0x4(%esp)
c0100e0a:	c0 
c0100e0b:	c7 04 24 27 00 00 00 	movl   $0x27,(%esp)
c0100e12:	e8 2d 0a 00 00       	call   c0101844 <intrpt_setIDT>
c0100e17:	c7 44 24 08 00 00 00 	movl   $0x0,0x8(%esp)
c0100e1e:	00 
c0100e1f:	c7 44 24 04 04 04 10 	movl   $0xc0100404,0x4(%esp)
c0100e26:	c0 
c0100e27:	c7 04 24 28 00 00 00 	movl   $0x28,(%esp)
c0100e2e:	e8 11 0a 00 00       	call   c0101844 <intrpt_setIDT>
c0100e33:	c7 44 24 08 00 00 00 	movl   $0x0,0x8(%esp)
c0100e3a:	00 
c0100e3b:	c7 44 24 04 14 04 10 	movl   $0xc0100414,0x4(%esp)
c0100e42:	c0 
c0100e43:	c7 04 24 29 00 00 00 	movl   $0x29,(%esp)
c0100e4a:	e8 f5 09 00 00       	call   c0101844 <intrpt_setIDT>
c0100e4f:	c7 44 24 08 00 00 00 	movl   $0x0,0x8(%esp)
c0100e56:	00 
c0100e57:	c7 44 24 04 24 04 10 	movl   $0xc0100424,0x4(%esp)
c0100e5e:	c0 
c0100e5f:	c7 04 24 2a 00 00 00 	movl   $0x2a,(%esp)
c0100e66:	e8 d9 09 00 00       	call   c0101844 <intrpt_setIDT>
c0100e6b:	c7 44 24 08 00 00 00 	movl   $0x0,0x8(%esp)
c0100e72:	00 
c0100e73:	c7 44 24 04 34 04 10 	movl   $0xc0100434,0x4(%esp)
c0100e7a:	c0 
c0100e7b:	c7 04 24 2b 00 00 00 	movl   $0x2b,(%esp)
c0100e82:	e8 bd 09 00 00       	call   c0101844 <intrpt_setIDT>
c0100e87:	c7 44 24 08 00 00 00 	movl   $0x0,0x8(%esp)
c0100e8e:	00 
c0100e8f:	c7 44 24 04 44 04 10 	movl   $0xc0100444,0x4(%esp)
c0100e96:	c0 
c0100e97:	c7 04 24 2c 00 00 00 	movl   $0x2c,(%esp)
c0100e9e:	e8 a1 09 00 00       	call   c0101844 <intrpt_setIDT>
c0100ea3:	c7 44 24 08 00 00 00 	movl   $0x0,0x8(%esp)
c0100eaa:	00 
c0100eab:	c7 44 24 04 54 04 10 	movl   $0xc0100454,0x4(%esp)
c0100eb2:	c0 
c0100eb3:	c7 04 24 2d 00 00 00 	movl   $0x2d,(%esp)
c0100eba:	e8 85 09 00 00       	call   c0101844 <intrpt_setIDT>
c0100ebf:	c7 44 24 08 00 00 00 	movl   $0x0,0x8(%esp)
c0100ec6:	00 
c0100ec7:	c7 44 24 04 64 04 10 	movl   $0xc0100464,0x4(%esp)
c0100ece:	c0 
c0100ecf:	c7 04 24 2e 00 00 00 	movl   $0x2e,(%esp)
c0100ed6:	e8 69 09 00 00       	call   c0101844 <intrpt_setIDT>
c0100edb:	c7 44 24 08 00 00 00 	movl   $0x0,0x8(%esp)
c0100ee2:	00 
c0100ee3:	c7 44 24 04 74 04 10 	movl   $0xc0100474,0x4(%esp)
c0100eea:	c0 
c0100eeb:	c7 04 24 2f 00 00 00 	movl   $0x2f,(%esp)
c0100ef2:	e8 4d 09 00 00       	call   c0101844 <intrpt_setIDT>
c0100ef7:	c7 44 24 08 03 00 00 	movl   $0x3,0x8(%esp)
c0100efe:	00 
c0100eff:	c7 44 24 04 84 04 10 	movl   $0xc0100484,0x4(%esp)
c0100f06:	c0 
c0100f07:	c7 04 24 30 00 00 00 	movl   $0x30,(%esp)
c0100f0e:	e8 31 09 00 00       	call   c0101844 <intrpt_setIDT>
c0100f13:	c7 45 fc 31 00 00 00 	movl   $0x31,-0x4(%ebp)
c0100f1a:	eb 22                	jmp    c0100f3e <intrpt_init+0x59b>
c0100f1c:	8b 45 fc             	mov    -0x4(%ebp),%eax
c0100f1f:	0f b7 c0             	movzwl %ax,%eax
c0100f22:	c7 44 24 08 00 00 00 	movl   $0x0,0x8(%esp)
c0100f29:	00 
c0100f2a:	c7 44 24 04 94 04 10 	movl   $0xc0100494,0x4(%esp)
c0100f31:	c0 
c0100f32:	89 04 24             	mov    %eax,(%esp)
c0100f35:	e8 0a 09 00 00       	call   c0101844 <intrpt_setIDT>
c0100f3a:	83 45 fc 01          	addl   $0x1,-0x4(%ebp)
c0100f3e:	81 7d fc ff 00 00 00 	cmpl   $0xff,-0x4(%ebp)
c0100f45:	76 d5                	jbe    c0100f1c <intrpt_init+0x579>
c0100f47:	8d 45 f6             	lea    -0xa(%ebp),%eax
c0100f4a:	89 04 24             	mov    %eax,(%esp)
c0100f4d:	e8 4d f2 ff ff       	call   c010019f <intrpt_loadidt>
c0100f52:	e8 1d 08 00 00       	call   c0101774 <intrpt_initPic>
c0100f57:	c9                   	leave  
c0100f58:	c3                   	ret    

c0100f59 <intrpt_addListener>:
c0100f59:	55                   	push   %ebp
c0100f5a:	89 e5                	mov    %esp,%ebp
c0100f5c:	83 ec 28             	sub    $0x28,%esp
c0100f5f:	8b 45 08             	mov    0x8(%ebp),%eax
c0100f62:	66 89 45 ec          	mov    %ax,-0x14(%ebp)
c0100f66:	83 7d 14 08          	cmpl   $0x8,0x14(%ebp)
c0100f6a:	76 0c                	jbe    c0100f78 <intrpt_addListener+0x1f>
c0100f6c:	c7 45 e8 ed ff ff ff 	movl   $0xffffffed,-0x18(%ebp)
c0100f73:	e9 1d 01 00 00       	jmp    c0101095 <intrpt_addListener+0x13c>
c0100f78:	66 83 7d ec 1f       	cmpw   $0x1f,-0x14(%ebp)
c0100f7d:	76 07                	jbe    c0100f86 <intrpt_addListener+0x2d>
c0100f7f:	66 83 7d ec 2f       	cmpw   $0x2f,-0x14(%ebp)
c0100f84:	76 0c                	jbe    c0100f92 <intrpt_addListener+0x39>
c0100f86:	c7 45 e8 ec ff ff ff 	movl   $0xffffffec,-0x18(%ebp)
c0100f8d:	e9 03 01 00 00       	jmp    c0101095 <intrpt_addListener+0x13c>
c0100f92:	c7 04 24 14 00 00 00 	movl   $0x14,(%esp)
c0100f99:	e8 d6 0c 00 00       	call   c0101c74 <kheap_alloc>
c0100f9e:	89 45 f4             	mov    %eax,-0xc(%ebp)
c0100fa1:	83 7d f4 00          	cmpl   $0x0,-0xc(%ebp)
c0100fa5:	75 0c                	jne    c0100fb3 <intrpt_addListener+0x5a>
c0100fa7:	c7 45 e8 f5 ff ff ff 	movl   $0xfffffff5,-0x18(%ebp)
c0100fae:	e9 e2 00 00 00       	jmp    c0101095 <intrpt_addListener+0x13c>
c0100fb3:	8b 45 f4             	mov    -0xc(%ebp),%eax
c0100fb6:	8d 50 0a             	lea    0xa(%eax),%edx
c0100fb9:	8b 45 14             	mov    0x14(%ebp),%eax
c0100fbc:	89 44 24 08          	mov    %eax,0x8(%esp)
c0100fc0:	8b 45 10             	mov    0x10(%ebp),%eax
c0100fc3:	89 44 24 04          	mov    %eax,0x4(%esp)
c0100fc7:	89 14 24             	mov    %edx,(%esp)
c0100fca:	e8 c8 b1 00 00       	call   c010c197 <memcpy>
c0100fcf:	8b 45 14             	mov    0x14(%ebp),%eax
c0100fd2:	89 c2                	mov    %eax,%edx
c0100fd4:	8b 45 f4             	mov    -0xc(%ebp),%eax
c0100fd7:	88 50 09             	mov    %dl,0x9(%eax)
c0100fda:	8b 55 f4             	mov    -0xc(%ebp),%edx
c0100fdd:	8b 45 0c             	mov    0xc(%ebp),%eax
c0100fe0:	89 02                	mov    %eax,(%edx)
c0100fe2:	8b 45 0c             	mov    0xc(%ebp),%eax
c0100fe5:	89 44 24 04          	mov    %eax,0x4(%esp)
c0100fe9:	c7 04 24 01 04 00 00 	movl   $0x401,(%esp)
c0100ff0:	e8 23 71 00 00       	call   c0108118 <vfs_openFileForKernel>
c0100ff5:	89 45 fc             	mov    %eax,-0x4(%ebp)
c0100ff8:	83 7d fc 00          	cmpl   $0x0,-0x4(%ebp)
c0100ffc:	79 16                	jns    c0101014 <intrpt_addListener+0xbb>
c0100ffe:	8b 45 f4             	mov    -0xc(%ebp),%eax
c0101001:	89 04 24             	mov    %eax,(%esp)
c0101004:	e8 c2 0d 00 00       	call   c0101dcb <kheap_free>
c0101009:	8b 45 fc             	mov    -0x4(%ebp),%eax
c010100c:	89 45 e8             	mov    %eax,-0x18(%ebp)
c010100f:	e9 81 00 00 00       	jmp    c0101095 <intrpt_addListener+0x13c>
c0101014:	8b 55 f4             	mov    -0xc(%ebp),%edx
c0101017:	8b 45 fc             	mov    -0x4(%ebp),%eax
c010101a:	89 42 04             	mov    %eax,0x4(%edx)
c010101d:	8b 45 f4             	mov    -0xc(%ebp),%eax
c0101020:	c6 40 08 00          	movb   $0x0,0x8(%eax)
c0101024:	0f b7 45 ec          	movzwl -0x14(%ebp),%eax
c0101028:	83 e8 20             	sub    $0x20,%eax
c010102b:	8b 04 85 c0 70 1d c0 	mov    -0x3fe28f40(,%eax,4),%eax
c0101032:	89 45 f8             	mov    %eax,-0x8(%ebp)
c0101035:	83 7d f8 00          	cmpl   $0x0,-0x8(%ebp)
c0101039:	75 41                	jne    c010107c <intrpt_addListener+0x123>
c010103b:	e8 1c a8 00 00       	call   c010b85c <sll_create>
c0101040:	89 45 f8             	mov    %eax,-0x8(%ebp)
c0101043:	83 7d f8 00          	cmpl   $0x0,-0x8(%ebp)
c0101047:	75 22                	jne    c010106b <intrpt_addListener+0x112>
c0101049:	8b 45 f4             	mov    -0xc(%ebp),%eax
c010104c:	8b 40 04             	mov    0x4(%eax),%eax
c010104f:	89 04 24             	mov    %eax,(%esp)
c0101052:	e8 bf 74 00 00       	call   c0108516 <vfs_closeFile>
c0101057:	8b 45 f4             	mov    -0xc(%ebp),%eax
c010105a:	89 04 24             	mov    %eax,(%esp)
c010105d:	e8 69 0d 00 00       	call   c0101dcb <kheap_free>
c0101062:	c7 45 e8 f5 ff ff ff 	movl   $0xfffffff5,-0x18(%ebp)
c0101069:	eb 2a                	jmp    c0101095 <intrpt_addListener+0x13c>
c010106b:	0f b7 45 ec          	movzwl -0x14(%ebp),%eax
c010106f:	8d 50 e0             	lea    -0x20(%eax),%edx
c0101072:	8b 45 f8             	mov    -0x8(%ebp),%eax
c0101075:	89 04 95 c0 70 1d c0 	mov    %eax,-0x3fe28f40(,%edx,4)
c010107c:	8b 45 f4             	mov    -0xc(%ebp),%eax
c010107f:	89 44 24 04          	mov    %eax,0x4(%esp)
c0101083:	8b 45 f8             	mov    -0x8(%ebp),%eax
c0101086:	89 04 24             	mov    %eax,(%esp)
c0101089:	e8 0b aa 00 00       	call   c010ba99 <sll_append>
c010108e:	c7 45 e8 00 00 00 00 	movl   $0x0,-0x18(%ebp)
c0101095:	8b 45 e8             	mov    -0x18(%ebp),%eax
c0101098:	c9                   	leave  
c0101099:	c3                   	ret    

c010109a <intrpt_removeListener>:
c010109a:	55                   	push   %ebp
c010109b:	89 e5                	mov    %esp,%ebp
c010109d:	83 ec 28             	sub    $0x28,%esp
c01010a0:	8b 45 08             	mov    0x8(%ebp),%eax
c01010a3:	66 89 45 ec          	mov    %ax,-0x14(%ebp)
c01010a7:	66 83 7d ec 1f       	cmpw   $0x1f,-0x14(%ebp)
c01010ac:	76 07                	jbe    c01010b5 <intrpt_removeListener+0x1b>
c01010ae:	66 83 7d ec 2f       	cmpw   $0x2f,-0x14(%ebp)
c01010b3:	76 0c                	jbe    c01010c1 <intrpt_removeListener+0x27>
c01010b5:	c7 45 e8 ec ff ff ff 	movl   $0xffffffec,-0x18(%ebp)
c01010bc:	e9 a3 00 00 00       	jmp    c0101164 <intrpt_removeListener+0xca>
c01010c1:	0f b7 45 ec          	movzwl -0x14(%ebp),%eax
c01010c5:	83 e8 20             	sub    $0x20,%eax
c01010c8:	8b 04 85 c0 70 1d c0 	mov    -0x3fe28f40(,%eax,4),%eax
c01010cf:	89 45 f4             	mov    %eax,-0xc(%ebp)
c01010d2:	83 7d f4 00          	cmpl   $0x0,-0xc(%ebp)
c01010d6:	75 0c                	jne    c01010e4 <intrpt_removeListener+0x4a>
c01010d8:	c7 45 e8 eb ff ff ff 	movl   $0xffffffeb,-0x18(%ebp)
c01010df:	e9 80 00 00 00       	jmp    c0101164 <intrpt_removeListener+0xca>
c01010e4:	c7 45 fc 00 00 00 00 	movl   $0x0,-0x4(%ebp)
c01010eb:	8b 45 f4             	mov    -0xc(%ebp),%eax
c01010ee:	89 04 24             	mov    %eax,(%esp)
c01010f1:	e8 32 a8 00 00       	call   c010b928 <sll_begin>
c01010f6:	89 45 f8             	mov    %eax,-0x8(%ebp)
c01010f9:	eb 5c                	jmp    c0101157 <intrpt_removeListener+0xbd>
c01010fb:	8b 45 f8             	mov    -0x8(%ebp),%eax
c01010fe:	8b 40 04             	mov    0x4(%eax),%eax
c0101101:	8b 00                	mov    (%eax),%eax
c0101103:	3b 45 0c             	cmp    0xc(%ebp),%eax
c0101106:	75 41                	jne    c0101149 <intrpt_removeListener+0xaf>
c0101108:	8b 45 fc             	mov    -0x4(%ebp),%eax
c010110b:	89 44 24 08          	mov    %eax,0x8(%esp)
c010110f:	8b 45 f8             	mov    -0x8(%ebp),%eax
c0101112:	89 44 24 04          	mov    %eax,0x4(%esp)
c0101116:	8b 45 f4             	mov    -0xc(%ebp),%eax
c0101119:	89 04 24             	mov    %eax,(%esp)
c010111c:	e8 c7 aa 00 00       	call   c010bbe8 <sll_removeNode>
c0101121:	8b 45 f8             	mov    -0x8(%ebp),%eax
c0101124:	8b 40 04             	mov    0x4(%eax),%eax
c0101127:	8b 40 04             	mov    0x4(%eax),%eax
c010112a:	89 04 24             	mov    %eax,(%esp)
c010112d:	e8 e4 73 00 00       	call   c0108516 <vfs_closeFile>
c0101132:	8b 45 f8             	mov    -0x8(%ebp),%eax
c0101135:	8b 40 04             	mov    0x4(%eax),%eax
c0101138:	89 04 24             	mov    %eax,(%esp)
c010113b:	e8 8b 0c 00 00       	call   c0101dcb <kheap_free>
c0101140:	c7 45 e8 00 00 00 00 	movl   $0x0,-0x18(%ebp)
c0101147:	eb 1b                	jmp    c0101164 <intrpt_removeListener+0xca>
c0101149:	8b 45 f8             	mov    -0x8(%ebp),%eax
c010114c:	89 45 fc             	mov    %eax,-0x4(%ebp)
c010114f:	8b 45 f8             	mov    -0x8(%ebp),%eax
c0101152:	8b 00                	mov    (%eax),%eax
c0101154:	89 45 f8             	mov    %eax,-0x8(%ebp)
c0101157:	83 7d f8 00          	cmpl   $0x0,-0x8(%ebp)
c010115b:	75 9e                	jne    c01010fb <intrpt_removeListener+0x61>
c010115d:	c7 45 e8 eb ff ff ff 	movl   $0xffffffeb,-0x18(%ebp)
c0101164:	8b 45 e8             	mov    -0x18(%ebp),%eax
c0101167:	c9                   	leave  
c0101168:	c3                   	ret    

c0101169 <intrpt_handleListener>:
c0101169:	55                   	push   %ebp
c010116a:	89 e5                	mov    %esp,%ebp
c010116c:	83 ec 28             	sub    $0x28,%esp
c010116f:	8b 45 08             	mov    0x8(%ebp),%eax
c0101172:	89 04 24             	mov    %eax,(%esp)
c0101175:	e8 ae a7 00 00       	call   c010b928 <sll_begin>
c010117a:	89 45 f8             	mov    %eax,-0x8(%ebp)
c010117d:	eb 21                	jmp    c01011a0 <intrpt_handleListener+0x37>
c010117f:	8b 45 f8             	mov    -0x8(%ebp),%eax
c0101182:	8b 40 04             	mov    0x4(%eax),%eax
c0101185:	89 45 fc             	mov    %eax,-0x4(%ebp)
c0101188:	8b 45 fc             	mov    -0x4(%ebp),%eax
c010118b:	0f b6 40 08          	movzbl 0x8(%eax),%eax
c010118f:	8d 50 01             	lea    0x1(%eax),%edx
c0101192:	8b 45 fc             	mov    -0x4(%ebp),%eax
c0101195:	88 50 08             	mov    %dl,0x8(%eax)
c0101198:	8b 45 f8             	mov    -0x8(%ebp),%eax
c010119b:	8b 00                	mov    (%eax),%eax
c010119d:	89 45 f8             	mov    %eax,-0x8(%ebp)
c01011a0:	83 7d f8 00          	cmpl   $0x0,-0x8(%ebp)
c01011a4:	75 d9                	jne    c010117f <intrpt_handleListener+0x16>
c01011a6:	8b 45 08             	mov    0x8(%ebp),%eax
c01011a9:	89 04 24             	mov    %eax,(%esp)
c01011ac:	e8 77 a7 00 00       	call   c010b928 <sll_begin>
c01011b1:	89 45 f8             	mov    %eax,-0x8(%ebp)
c01011b4:	eb 5c                	jmp    c0101212 <intrpt_handleListener+0xa9>
c01011b6:	8b 45 f8             	mov    -0x8(%ebp),%eax
c01011b9:	8b 40 04             	mov    0x4(%eax),%eax
c01011bc:	89 45 fc             	mov    %eax,-0x4(%ebp)
c01011bf:	eb 3e                	jmp    c01011ff <intrpt_handleListener+0x96>
c01011c1:	8b 45 fc             	mov    -0x4(%ebp),%eax
c01011c4:	0f b6 40 09          	movzbl 0x9(%eax),%eax
c01011c8:	0f b6 d0             	movzbl %al,%edx
c01011cb:	8b 45 fc             	mov    -0x4(%ebp),%eax
c01011ce:	8d 48 0a             	lea    0xa(%eax),%ecx
c01011d1:	8b 45 fc             	mov    -0x4(%ebp),%eax
c01011d4:	8b 40 04             	mov    0x4(%eax),%eax
c01011d7:	89 54 24 0c          	mov    %edx,0xc(%esp)
c01011db:	89 4c 24 08          	mov    %ecx,0x8(%esp)
c01011df:	89 44 24 04          	mov    %eax,0x4(%esp)
c01011e3:	c7 04 24 01 04 00 00 	movl   $0x401,(%esp)
c01011ea:	e8 fa 71 00 00       	call   c01083e9 <vfs_writeFile>
c01011ef:	8b 45 fc             	mov    -0x4(%ebp),%eax
c01011f2:	0f b6 40 08          	movzbl 0x8(%eax),%eax
c01011f6:	8d 50 ff             	lea    -0x1(%eax),%edx
c01011f9:	8b 45 fc             	mov    -0x4(%ebp),%eax
c01011fc:	88 50 08             	mov    %dl,0x8(%eax)
c01011ff:	8b 45 fc             	mov    -0x4(%ebp),%eax
c0101202:	0f b6 40 08          	movzbl 0x8(%eax),%eax
c0101206:	84 c0                	test   %al,%al
c0101208:	75 b7                	jne    c01011c1 <intrpt_handleListener+0x58>
c010120a:	8b 45 f8             	mov    -0x8(%ebp),%eax
c010120d:	8b 00                	mov    (%eax),%eax
c010120f:	89 45 f8             	mov    %eax,-0x8(%ebp)
c0101212:	83 7d f8 00          	cmpl   $0x0,-0x8(%ebp)
c0101216:	75 9e                	jne    c01011b6 <intrpt_handleListener+0x4d>
c0101218:	c9                   	leave  
c0101219:	c3                   	ret    

c010121a <intrpt_handleSignal>:
c010121a:	55                   	push   %ebp
c010121b:	89 e5                	mov    %esp,%ebp
c010121d:	83 ec 18             	sub    $0x18,%esp
c0101220:	8d 45 f6             	lea    -0xa(%ebp),%eax
c0101223:	89 44 24 04          	mov    %eax,0x4(%esp)
c0101227:	8d 45 f5             	lea    -0xb(%ebp),%eax
c010122a:	89 04 24             	mov    %eax,(%esp)
c010122d:	e8 db 55 00 00       	call   c010680d <sig_hasSignal>
c0101232:	85 c0                	test   %eax,%eax
c0101234:	0f 84 da 00 00 00    	je     c0101314 <intrpt_handleSignal+0xfa>
c010123a:	e8 21 3c 00 00       	call   c0104e60 <proc_getRunning>
c010123f:	0f b7 50 02          	movzwl 0x2(%eax),%edx
c0101243:	0f b7 45 f6          	movzwl -0xa(%ebp),%eax
c0101247:	66 39 c2             	cmp    %ax,%dx
c010124a:	0f 85 c4 00 00 00    	jne    c0101314 <intrpt_handleSignal+0xfa>
c0101250:	0f b6 45 f5          	movzbl -0xb(%ebp),%eax
c0101254:	0f b6 d0             	movzbl %al,%edx
c0101257:	0f b7 45 f6          	movzwl -0xa(%ebp),%eax
c010125b:	0f b7 c0             	movzwl %ax,%eax
c010125e:	89 54 24 04          	mov    %edx,0x4(%esp)
c0101262:	89 04 24             	mov    %eax,(%esp)
c0101265:	e8 aa 57 00 00       	call   c0106a14 <sig_startHandling>
c010126a:	89 45 f8             	mov    %eax,-0x8(%ebp)
c010126d:	83 7d f8 00          	cmpl   $0x0,-0x8(%ebp)
c0101271:	0f 84 9d 00 00 00    	je     c0101314 <intrpt_handleSignal+0xfa>
c0101277:	8b 45 08             	mov    0x8(%ebp),%eax
c010127a:	8b 40 44             	mov    0x44(%eax),%eax
c010127d:	89 45 fc             	mov    %eax,-0x4(%ebp)
c0101280:	8b 45 08             	mov    0x8(%ebp),%eax
c0101283:	8b 50 38             	mov    0x38(%eax),%edx
c0101286:	8b 45 fc             	mov    -0x4(%ebp),%eax
c0101289:	89 10                	mov    %edx,(%eax)
c010128b:	83 6d fc 04          	subl   $0x4,-0x4(%ebp)
c010128f:	8b 45 08             	mov    0x8(%ebp),%eax
c0101292:	8b 50 2c             	mov    0x2c(%eax),%edx
c0101295:	8b 45 fc             	mov    -0x4(%ebp),%eax
c0101298:	89 10                	mov    %edx,(%eax)
c010129a:	83 6d fc 04          	subl   $0x4,-0x4(%ebp)
c010129e:	8b 45 08             	mov    0x8(%ebp),%eax
c01012a1:	8b 50 28             	mov    0x28(%eax),%edx
c01012a4:	8b 45 fc             	mov    -0x4(%ebp),%eax
c01012a7:	89 10                	mov    %edx,(%eax)
c01012a9:	83 6d fc 04          	subl   $0x4,-0x4(%ebp)
c01012ad:	8b 45 08             	mov    0x8(%ebp),%eax
c01012b0:	8b 50 24             	mov    0x24(%eax),%edx
c01012b3:	8b 45 fc             	mov    -0x4(%ebp),%eax
c01012b6:	89 10                	mov    %edx,(%eax)
c01012b8:	83 6d fc 04          	subl   $0x4,-0x4(%ebp)
c01012bc:	8b 45 08             	mov    0x8(%ebp),%eax
c01012bf:	8b 50 20             	mov    0x20(%eax),%edx
c01012c2:	8b 45 fc             	mov    -0x4(%ebp),%eax
c01012c5:	89 10                	mov    %edx,(%eax)
c01012c7:	83 6d fc 04          	subl   $0x4,-0x4(%ebp)
c01012cb:	8b 45 08             	mov    0x8(%ebp),%eax
c01012ce:	8b 50 14             	mov    0x14(%eax),%edx
c01012d1:	8b 45 fc             	mov    -0x4(%ebp),%eax
c01012d4:	89 10                	mov    %edx,(%eax)
c01012d6:	83 6d fc 04          	subl   $0x4,-0x4(%ebp)
c01012da:	8b 45 08             	mov    0x8(%ebp),%eax
c01012dd:	8b 50 18             	mov    0x18(%eax),%edx
c01012e0:	8b 45 fc             	mov    -0x4(%ebp),%eax
c01012e3:	89 10                	mov    %edx,(%eax)
c01012e5:	83 6d fc 04          	subl   $0x4,-0x4(%ebp)
c01012e9:	0f b6 45 f5          	movzbl -0xb(%ebp),%eax
c01012ed:	0f b6 d0             	movzbl %al,%edx
c01012f0:	8b 45 fc             	mov    -0x4(%ebp),%eax
c01012f3:	89 10                	mov    %edx,(%eax)
c01012f5:	83 6d fc 04          	subl   $0x4,-0x4(%ebp)
c01012f9:	8b 45 fc             	mov    -0x4(%ebp),%eax
c01012fc:	c7 00 0d 00 00 00    	movl   $0xd,(%eax)
c0101302:	8b 55 f8             	mov    -0x8(%ebp),%edx
c0101305:	8b 45 08             	mov    0x8(%ebp),%eax
c0101308:	89 50 38             	mov    %edx,0x38(%eax)
c010130b:	8b 55 fc             	mov    -0x4(%ebp),%edx
c010130e:	8b 45 08             	mov    0x8(%ebp),%eax
c0101311:	89 50 44             	mov    %edx,0x44(%eax)
c0101314:	c9                   	leave  
c0101315:	c3                   	ret    

c0101316 <intrpt_handler>:
c0101316:	55                   	push   %ebp
c0101317:	89 e5                	mov    %esp,%ebp
c0101319:	56                   	push   %esi
c010131a:	53                   	push   %ebx
c010131b:	83 ec 40             	sub    $0x40,%esp
c010131e:	e8 aa ed ff ff       	call   c01000cd <cpu_rdtsc>
c0101323:	a3 a0 70 1d c0       	mov    %eax,0xc01d70a0
c0101328:	89 15 a4 70 1d c0    	mov    %edx,0xc01d70a4
c010132e:	8b 0d a0 70 1d c0    	mov    0xc01d70a0,%ecx
c0101334:	8b 1d a4 70 1d c0    	mov    0xc01d70a4,%ebx
c010133a:	a1 a8 70 1d c0       	mov    0xc01d70a8,%eax
c010133f:	8b 15 ac 70 1d c0    	mov    0xc01d70ac,%edx
c0101345:	29 c1                	sub    %eax,%ecx
c0101347:	19 d3                	sbb    %edx,%ebx
c0101349:	a1 90 70 1d c0       	mov    0xc01d7090,%eax
c010134e:	8b 15 94 70 1d c0    	mov    0xc01d7094,%edx
c0101354:	01 c8                	add    %ecx,%eax
c0101356:	11 da                	adc    %ebx,%edx
c0101358:	a3 90 70 1d c0       	mov    %eax,0xc01d7090
c010135d:	89 15 94 70 1d c0    	mov    %edx,0xc01d7094
c0101363:	8b 45 38             	mov    0x38(%ebp),%eax
c0101366:	83 f8 1f             	cmp    $0x1f,%eax
c0101369:	76 2b                	jbe    c0101396 <intrpt_handler+0x80>
c010136b:	8b 45 38             	mov    0x38(%ebp),%eax
c010136e:	83 f8 2f             	cmp    $0x2f,%eax
c0101371:	77 23                	ja     c0101396 <intrpt_handler+0x80>
c0101373:	8b 45 38             	mov    0x38(%ebp),%eax
c0101376:	83 e8 20             	sub    $0x20,%eax
c0101379:	8b 04 85 c0 70 1d c0 	mov    -0x3fe28f40(,%eax,4),%eax
c0101380:	89 45 dc             	mov    %eax,-0x24(%ebp)
c0101383:	83 7d dc 00          	cmpl   $0x0,-0x24(%ebp)
c0101387:	74 51                	je     c01013da <intrpt_handler+0xc4>
c0101389:	8b 45 dc             	mov    -0x24(%ebp),%eax
c010138c:	89 04 24             	mov    %eax,(%esp)
c010138f:	e8 d5 fd ff ff       	call   c0101169 <intrpt_handleListener>
c0101394:	eb 44                	jmp    c01013da <intrpt_handler+0xc4>
c0101396:	a1 b0 70 1d c0       	mov    0xc01d70b0,%eax
c010139b:	85 c0                	test   %eax,%eax
c010139d:	74 3b                	je     c01013da <intrpt_handler+0xc4>
c010139f:	c7 05 b0 70 1d c0 00 	movl   $0x0,0xc01d70b0
c01013a6:	00 00 00 
c01013a9:	c7 45 e4 00 00 00 00 	movl   $0x0,-0x1c(%ebp)
c01013b0:	eb 22                	jmp    c01013d4 <intrpt_handler+0xbe>
c01013b2:	8b 45 e4             	mov    -0x1c(%ebp),%eax
c01013b5:	8b 04 85 c0 70 1d c0 	mov    -0x3fe28f40(,%eax,4),%eax
c01013bc:	89 45 e0             	mov    %eax,-0x20(%ebp)
c01013bf:	83 7d e0 00          	cmpl   $0x0,-0x20(%ebp)
c01013c3:	74 0b                	je     c01013d0 <intrpt_handler+0xba>
c01013c5:	8b 45 e0             	mov    -0x20(%ebp),%eax
c01013c8:	89 04 24             	mov    %eax,(%esp)
c01013cb:	e8 99 fd ff ff       	call   c0101169 <intrpt_handleListener>
c01013d0:	83 45 e4 01          	addl   $0x1,-0x1c(%ebp)
c01013d4:	83 7d e4 0f          	cmpl   $0xf,-0x1c(%ebp)
c01013d8:	76 d8                	jbe    c01013b2 <intrpt_handler+0x9c>
c01013da:	8b 45 38             	mov    0x38(%ebp),%eax
c01013dd:	83 e8 20             	sub    $0x20,%eax
c01013e0:	89 45 d0             	mov    %eax,-0x30(%ebp)
c01013e3:	83 7d d0 0f          	cmpl   $0xf,-0x30(%ebp)
c01013e7:	77 36                	ja     c010141f <intrpt_handler+0x109>
c01013e9:	b8 01 00 00 00       	mov    $0x1,%eax
c01013ee:	0f b6 4d d0          	movzbl -0x30(%ebp),%ecx
c01013f2:	d3 e0                	shl    %cl,%eax
c01013f4:	25 5b c1 00 00       	and    $0xc15b,%eax
c01013f9:	85 c0                	test   %eax,%eax
c01013fb:	74 22                	je     c010141f <intrpt_handler+0x109>
c01013fd:	8b 45 38             	mov    0x38(%ebp),%eax
c0101400:	83 e8 20             	sub    $0x20,%eax
c0101403:	0f b6 80 c8 e0 10 c0 	movzbl -0x3fef1f38(%eax),%eax
c010140a:	88 45 eb             	mov    %al,-0x15(%ebp)
c010140d:	80 7d eb 0c          	cmpb   $0xc,-0x15(%ebp)
c0101411:	74 0c                	je     c010141f <intrpt_handler+0x109>
c0101413:	0f b6 45 eb          	movzbl -0x15(%ebp),%eax
c0101417:	89 04 24             	mov    %eax,(%esp)
c010141a:	e8 31 55 00 00       	call   c0106950 <sig_addSignal>
c010141f:	a1 84 70 1d c0       	mov    0xc01d7084,%eax
c0101424:	85 c0                	test   %eax,%eax
c0101426:	74 0e                	je     c0101436 <intrpt_handler+0x120>
c0101428:	a1 88 70 1d c0       	mov    0xc01d7088,%eax
c010142d:	85 c0                	test   %eax,%eax
c010142f:	74 05                	je     c0101436 <intrpt_handler+0x120>
c0101431:	e8 45 93 00 00       	call   c010a77b <vfsr_checkForMsgs>
c0101436:	8b 45 38             	mov    0x38(%ebp),%eax
c0101439:	89 45 d4             	mov    %eax,-0x2c(%ebp)
c010143c:	83 7d d4 30          	cmpl   $0x30,-0x2c(%ebp)
c0101440:	0f 87 a3 02 00 00    	ja     c01016e9 <intrpt_handler+0x3d3>
c0101446:	8b 55 d4             	mov    -0x2c(%ebp),%edx
c0101449:	8b 04 95 cc b1 16 c0 	mov    -0x3fe94e34(,%edx,4),%eax
c0101450:	ff e0                	jmp    *%eax
c0101452:	8b 45 10             	mov    0x10(%ebp),%eax
c0101455:	83 f8 23             	cmp    $0x23,%eax
c0101458:	74 24                	je     c010147e <intrpt_handler+0x168>
c010145a:	c7 44 24 0c 51 02 00 	movl   $0x251,0xc(%esp)
c0101461:	00 
c0101462:	c7 44 24 08 d9 b0 16 	movl   $0xc016b0d9,0x8(%esp)
c0101469:	c0 
c010146a:	c7 44 24 04 e8 b0 16 	movl   $0xc016b0e8,0x4(%esp)
c0101471:	c0 
c0101472:	c7 04 24 f8 b0 16 c0 	movl   $0xc016b0f8,(%esp)
c0101479:	e8 62 65 00 00       	call   c01079e0 <panic>
c010147e:	a1 84 70 1d c0       	mov    0xc01d7084,%eax
c0101483:	85 c0                	test   %eax,%eax
c0101485:	74 0d                	je     c0101494 <intrpt_handler+0x17e>
c0101487:	a1 88 70 1d c0       	mov    0xc01d7088,%eax
c010148c:	85 c0                	test   %eax,%eax
c010148e:	0f 85 3f 01 00 00    	jne    c01015d3 <intrpt_handler+0x2bd>
c0101494:	c7 45 ec ff ff ff ff 	movl   $0xffffffff,-0x14(%ebp)
c010149b:	a1 88 70 1d c0       	mov    0xc01d7088,%eax
c01014a0:	85 c0                	test   %eax,%eax
c01014a2:	75 3c                	jne    c01014e0 <intrpt_handler+0x1ca>
c01014a4:	e8 b7 39 00 00       	call   c0104e60 <proc_getRunning>
c01014a9:	0f b7 40 02          	movzwl 0x2(%eax),%eax
c01014ad:	66 85 c0             	test   %ax,%ax
c01014b0:	75 2e                	jne    c01014e0 <intrpt_handler+0x1ca>
c01014b2:	c7 04 24 00 00 00 00 	movl   $0x0,(%esp)
c01014b9:	e8 c5 39 00 00       	call   c0104e83 <proc_getByPid>
c01014be:	8b 40 34             	mov    0x34(%eax),%eax
c01014c1:	83 f8 ff             	cmp    $0xffffffff,%eax
c01014c4:	74 1a                	je     c01014e0 <intrpt_handler+0x1ca>
c01014c6:	c7 45 ec 00 00 00 00 	movl   $0x0,-0x14(%ebp)
c01014cd:	c7 45 f0 01 00 00 00 	movl   $0x1,-0x10(%ebp)
c01014d4:	c7 05 88 70 1d c0 01 	movl   $0x1,0xc01d7088
c01014db:	00 00 00 
c01014de:	eb 21                	jmp    c0101501 <intrpt_handler+0x1eb>
c01014e0:	a1 84 70 1d c0       	mov    0xc01d7084,%eax
c01014e5:	85 c0                	test   %eax,%eax
c01014e7:	75 18                	jne    c0101501 <intrpt_handler+0x1eb>
c01014e9:	c7 45 ec 01 00 00 00 	movl   $0x1,-0x14(%ebp)
c01014f0:	c7 45 f0 07 00 00 00 	movl   $0x7,-0x10(%ebp)
c01014f7:	c7 05 84 70 1d c0 01 	movl   $0x1,0xc01d7084
c01014fe:	00 00 00 
c0101501:	83 7d ec ff          	cmpl   $0xffffffff,-0x14(%ebp)
c0101505:	0f 84 07 02 00 00    	je     c0101712 <intrpt_handler+0x3fc>
c010150b:	e9 b2 00 00 00       	jmp    c01015c2 <intrpt_handler+0x2ac>
c0101510:	e8 01 39 00 00       	call   c0104e16 <proc_getFreePid>
c0101515:	66 89 45 f6          	mov    %ax,-0xa(%ebp)
c0101519:	0f b7 45 f6          	movzwl -0xa(%ebp),%eax
c010151d:	89 04 24             	mov    %eax,(%esp)
c0101520:	e8 48 40 00 00       	call   c010556d <proc_clone>
c0101525:	85 c0                	test   %eax,%eax
c0101527:	0f 84 91 00 00 00    	je     c01015be <intrpt_handler+0x2a8>
c010152d:	e8 2e 39 00 00       	call   c0104e60 <proc_getRunning>
c0101532:	89 45 d8             	mov    %eax,-0x28(%ebp)
c0101535:	8b 45 d8             	mov    -0x28(%ebp),%eax
c0101538:	8b 40 10             	mov    0x10(%eax),%eax
c010153b:	f7 d8                	neg    %eax
c010153d:	c7 44 24 04 00 00 00 	movl   $0x0,0x4(%esp)
c0101544:	00 
c0101545:	89 04 24             	mov    %eax,(%esp)
c0101548:	e8 73 45 00 00       	call   c0105ac0 <proc_changeSize>
c010154d:	8b 55 ec             	mov    -0x14(%ebp),%edx
c0101550:	89 d0                	mov    %edx,%eax
c0101552:	c1 e0 02             	shl    $0x2,%eax
c0101555:	01 d0                	add    %edx,%eax
c0101557:	c1 e0 02             	shl    $0x2,%eax
c010155a:	05 40 06 16 c0       	add    $0xc0160640,%eax
c010155f:	89 04 24             	mov    %eax,(%esp)
c0101562:	e8 a2 b5 00 00       	call   c010cb09 <strlen>
c0101567:	8d 48 01             	lea    0x1(%eax),%ecx
c010156a:	8b 55 ec             	mov    -0x14(%ebp),%edx
c010156d:	89 d0                	mov    %edx,%eax
c010156f:	c1 e0 02             	shl    $0x2,%eax
c0101572:	01 d0                	add    %edx,%eax
c0101574:	c1 e0 02             	shl    $0x2,%eax
c0101577:	8d 90 40 06 16 c0    	lea    -0x3fe9f9c0(%eax),%edx
c010157d:	8b 45 d8             	mov    -0x28(%ebp),%eax
c0101580:	83 c0 78             	add    $0x78,%eax
c0101583:	89 4c 24 08          	mov    %ecx,0x8(%esp)
c0101587:	89 54 24 04          	mov    %edx,0x4(%esp)
c010158b:	89 04 24             	mov    %eax,(%esp)
c010158e:	e8 04 ac 00 00       	call   c010c197 <memcpy>
c0101593:	8b 55 ec             	mov    -0x14(%ebp),%edx
c0101596:	89 d0                	mov    %edx,%eax
c0101598:	c1 e0 02             	shl    $0x2,%eax
c010159b:	01 d0                	add    %edx,%eax
c010159d:	c1 e0 02             	shl    $0x2,%eax
c01015a0:	8b 80 50 06 16 c0    	mov    -0x3fe9f9b0(%eax),%eax
c01015a6:	89 04 24             	mov    %eax,(%esp)
c01015a9:	e8 9a ef ff ff       	call   c0100548 <elf_loadprog>
c01015ae:	8d 4d 08             	lea    0x8(%ebp),%ecx
c01015b1:	89 0c 24             	mov    %ecx,(%esp)
c01015b4:	e8 1a 44 00 00       	call   c01059d3 <proc_setupIntrptStack>
c01015b9:	e9 54 01 00 00       	jmp    c0101712 <intrpt_handler+0x3fc>
c01015be:	83 45 ec 01          	addl   $0x1,-0x14(%ebp)
c01015c2:	8b 45 ec             	mov    -0x14(%ebp),%eax
c01015c5:	3b 45 f0             	cmp    -0x10(%ebp),%eax
c01015c8:	0f 82 42 ff ff ff    	jb     c0101510 <intrpt_handler+0x1fa>
c01015ce:	e9 3f 01 00 00       	jmp    c0101712 <intrpt_handler+0x3fc>
c01015d3:	8b 45 38             	mov    0x38(%ebp),%eax
c01015d6:	89 04 24             	mov    %eax,(%esp)
c01015d9:	e8 47 03 00 00       	call   c0101925 <intrpt_eoi>
c01015de:	e8 f3 38 00 00       	call   c0104ed6 <proc_switch>
c01015e3:	e9 2a 01 00 00       	jmp    c0101712 <intrpt_handler+0x3fc>
c01015e8:	8d 45 08             	lea    0x8(%ebp),%eax
c01015eb:	89 04 24             	mov    %eax,(%esp)
c01015ee:	e8 75 57 00 00       	call   c0106d68 <sysc_handle>
c01015f3:	e9 1a 01 00 00       	jmp    c0101712 <intrpt_handler+0x3fc>
c01015f8:	8b 45 38             	mov    0x38(%ebp),%eax
c01015fb:	83 f8 0e             	cmp    $0xe,%eax
c01015fe:	75 46                	jne    c0101646 <intrpt_handler+0x330>
c0101600:	e8 d5 ea ff ff       	call   c01000da <cpu_getCR2>
c0101605:	89 04 24             	mov    %eax,(%esp)
c0101608:	e8 d4 29 00 00       	call   c0103fe1 <paging_handlePageFault>
c010160d:	85 c0                	test   %eax,%eax
c010160f:	0f 85 fd 00 00 00    	jne    c0101712 <intrpt_handler+0x3fc>
c0101615:	e8 46 38 00 00       	call   c0104e60 <proc_getRunning>
c010161a:	0f b7 40 02          	movzwl 0x2(%eax),%eax
c010161e:	0f b7 d8             	movzwl %ax,%ebx
c0101621:	8b 75 40             	mov    0x40(%ebp),%esi
c0101624:	e8 b1 ea ff ff       	call   c01000da <cpu_getCR2>
c0101629:	89 5c 24 0c          	mov    %ebx,0xc(%esp)
c010162d:	89 74 24 08          	mov    %esi,0x8(%esp)
c0101631:	89 44 24 04          	mov    %eax,0x4(%esp)
c0101635:	c7 04 24 40 b1 16 c0 	movl   $0xc016b140,(%esp)
c010163c:	e8 9f 63 00 00       	call   c01079e0 <panic>
c0101641:	e9 cc 00 00 00       	jmp    c0101712 <intrpt_handler+0x3fc>
c0101646:	8b 55 38             	mov    0x38(%ebp),%edx
c0101649:	a1 c4 e0 10 c0       	mov    0xc010e0c4,%eax
c010164e:	39 c2                	cmp    %eax,%edx
c0101650:	75 2e                	jne    c0101680 <intrpt_handler+0x36a>
c0101652:	a1 80 70 1d c0       	mov    0xc01d7080,%eax
c0101657:	83 c0 01             	add    $0x1,%eax
c010165a:	a3 80 70 1d c0       	mov    %eax,0xc01d7080
c010165f:	a1 80 70 1d c0       	mov    0xc01d7080,%eax
c0101664:	83 f8 02             	cmp    $0x2,%eax
c0101667:	76 29                	jbe    c0101692 <intrpt_handler+0x37c>
c0101669:	a1 80 70 1d c0       	mov    0xc01d7080,%eax
c010166e:	89 44 24 04          	mov    %eax,0x4(%esp)
c0101672:	c7 04 24 74 b1 16 c0 	movl   $0xc016b174,(%esp)
c0101679:	e8 62 63 00 00       	call   c01079e0 <panic>
c010167e:	eb 12                	jmp    c0101692 <intrpt_handler+0x37c>
c0101680:	c7 05 80 70 1d c0 00 	movl   $0x0,0xc01d7080
c0101687:	00 00 00 
c010168a:	8b 45 38             	mov    0x38(%ebp),%eax
c010168d:	a3 c4 e0 10 c0       	mov    %eax,0xc010e0c4
c0101692:	8b 45 38             	mov    0x38(%ebp),%eax
c0101695:	83 f8 0d             	cmp    $0xd,%eax
c0101698:	75 4f                	jne    c01016e9 <intrpt_handler+0x3d3>
c010169a:	e8 c1 37 00 00       	call   c0104e60 <proc_getRunning>
c010169f:	89 45 d8             	mov    %eax,-0x28(%ebp)
c01016a2:	8b 45 d8             	mov    -0x28(%ebp),%eax
c01016a5:	8b 40 6c             	mov    0x6c(%eax),%eax
c01016a8:	85 c0                	test   %eax,%eax
c01016aa:	74 23                	je     c01016cf <intrpt_handler+0x3b9>
c01016ac:	e8 87 f1 ff ff       	call   c0100838 <tss_ioMapPresent>
c01016b1:	85 c0                	test   %eax,%eax
c01016b3:	75 1a                	jne    c01016cf <intrpt_handler+0x3b9>
c01016b5:	8b 45 d8             	mov    -0x28(%ebp),%eax
c01016b8:	8b 40 6c             	mov    0x6c(%eax),%eax
c01016bb:	89 04 24             	mov    %eax,(%esp)
c01016be:	e8 8b f1 ff ff       	call   c010084e <tss_setIOMap>
c01016c3:	c7 05 80 70 1d c0 00 	movl   $0x0,0xc01d7080
c01016ca:	00 00 00 
c01016cd:	eb 43                	jmp    c0101712 <intrpt_handler+0x3fc>
c01016cf:	8b 45 40             	mov    0x40(%ebp),%eax
c01016d2:	89 44 24 04          	mov    %eax,0x4(%esp)
c01016d6:	c7 04 24 a0 b1 16 c0 	movl   $0xc016b1a0,(%esp)
c01016dd:	e8 63 9d 00 00       	call   c010b445 <vid_printf>
c01016e2:	e8 42 64 00 00       	call   c0107b29 <printStackTrace>
c01016e7:	eb 29                	jmp    c0101712 <intrpt_handler+0x3fc>
c01016e9:	8b 5d 40             	mov    0x40(%ebp),%ebx
c01016ec:	8b 45 38             	mov    0x38(%ebp),%eax
c01016ef:	89 04 24             	mov    %eax,(%esp)
c01016f2:	e8 85 f2 ff ff       	call   c010097c <intrpt_no2Name>
c01016f7:	8b 55 38             	mov    0x38(%ebp),%edx
c01016fa:	89 5c 24 0c          	mov    %ebx,0xc(%esp)
c01016fe:	89 44 24 08          	mov    %eax,0x8(%esp)
c0101702:	89 54 24 04          	mov    %edx,0x4(%esp)
c0101706:	c7 04 24 ac b1 16 c0 	movl   $0xc016b1ac,(%esp)
c010170d:	e8 33 9d 00 00       	call   c010b445 <vid_printf>
c0101712:	8d 55 08             	lea    0x8(%ebp),%edx
c0101715:	89 14 24             	mov    %edx,(%esp)
c0101718:	e8 fd fa ff ff       	call   c010121a <intrpt_handleSignal>
c010171d:	8b 45 38             	mov    0x38(%ebp),%eax
c0101720:	89 04 24             	mov    %eax,(%esp)
c0101723:	e8 fd 01 00 00       	call   c0101925 <intrpt_eoi>
c0101728:	e8 a0 e9 ff ff       	call   c01000cd <cpu_rdtsc>
c010172d:	a3 a8 70 1d c0       	mov    %eax,0xc01d70a8
c0101732:	89 15 ac 70 1d c0    	mov    %edx,0xc01d70ac
c0101738:	8b 0d a8 70 1d c0    	mov    0xc01d70a8,%ecx
c010173e:	8b 1d ac 70 1d c0    	mov    0xc01d70ac,%ebx
c0101744:	a1 a0 70 1d c0       	mov    0xc01d70a0,%eax
c0101749:	8b 15 a4 70 1d c0    	mov    0xc01d70a4,%edx
c010174f:	29 c1                	sub    %eax,%ecx
c0101751:	19 d3                	sbb    %edx,%ebx
c0101753:	a1 98 70 1d c0       	mov    0xc01d7098,%eax
c0101758:	8b 15 9c 70 1d c0    	mov    0xc01d709c,%edx
c010175e:	01 c8                	add    %ecx,%eax
c0101760:	11 da                	adc    %ebx,%edx
c0101762:	a3 98 70 1d c0       	mov    %eax,0xc01d7098
c0101767:	89 15 9c 70 1d c0    	mov    %edx,0xc01d709c
c010176d:	83 c4 40             	add    $0x40,%esp
c0101770:	5b                   	pop    %ebx
c0101771:	5e                   	pop    %esi
c0101772:	5d                   	pop    %ebp
c0101773:	c3                   	ret    

c0101774 <intrpt_initPic>:
c0101774:	55                   	push   %ebp
c0101775:	89 e5                	mov    %esp,%ebp
c0101777:	83 ec 08             	sub    $0x8,%esp
c010177a:	c7 44 24 04 11 00 00 	movl   $0x11,0x4(%esp)
c0101781:	00 
c0101782:	c7 04 24 20 00 00 00 	movl   $0x20,(%esp)
c0101789:	e8 2a e9 ff ff       	call   c01000b8 <outb>
c010178e:	c7 44 24 04 11 00 00 	movl   $0x11,0x4(%esp)
c0101795:	00 
c0101796:	c7 04 24 a0 00 00 00 	movl   $0xa0,(%esp)
c010179d:	e8 16 e9 ff ff       	call   c01000b8 <outb>
c01017a2:	c7 44 24 04 20 00 00 	movl   $0x20,0x4(%esp)
c01017a9:	00 
c01017aa:	c7 04 24 21 00 00 00 	movl   $0x21,(%esp)
c01017b1:	e8 02 e9 ff ff       	call   c01000b8 <outb>
c01017b6:	c7 44 24 04 28 00 00 	movl   $0x28,0x4(%esp)
c01017bd:	00 
c01017be:	c7 04 24 a1 00 00 00 	movl   $0xa1,(%esp)
c01017c5:	e8 ee e8 ff ff       	call   c01000b8 <outb>
c01017ca:	c7 44 24 04 04 00 00 	movl   $0x4,0x4(%esp)
c01017d1:	00 
c01017d2:	c7 04 24 21 00 00 00 	movl   $0x21,(%esp)
c01017d9:	e8 da e8 ff ff       	call   c01000b8 <outb>
c01017de:	c7 44 24 04 02 00 00 	movl   $0x2,0x4(%esp)
c01017e5:	00 
c01017e6:	c7 04 24 a1 00 00 00 	movl   $0xa1,(%esp)
c01017ed:	e8 c6 e8 ff ff       	call   c01000b8 <outb>
c01017f2:	c7 44 24 04 01 00 00 	movl   $0x1,0x4(%esp)
c01017f9:	00 
c01017fa:	c7 04 24 21 00 00 00 	movl   $0x21,(%esp)
c0101801:	e8 b2 e8 ff ff       	call   c01000b8 <outb>
c0101806:	c7 44 24 04 01 00 00 	movl   $0x1,0x4(%esp)
c010180d:	00 
c010180e:	c7 04 24 a1 00 00 00 	movl   $0xa1,(%esp)
c0101815:	e8 9e e8 ff ff       	call   c01000b8 <outb>
c010181a:	c7 44 24 04 00 00 00 	movl   $0x0,0x4(%esp)
c0101821:	00 
c0101822:	c7 04 24 21 00 00 00 	movl   $0x21,(%esp)
c0101829:	e8 8a e8 ff ff       	call   c01000b8 <outb>
c010182e:	c7 44 24 04 00 00 00 	movl   $0x0,0x4(%esp)
c0101835:	00 
c0101836:	c7 04 24 a1 00 00 00 	movl   $0xa1,(%esp)
c010183d:	e8 76 e8 ff ff       	call   c01000b8 <outb>
c0101842:	c9                   	leave  
c0101843:	c3                   	ret    

c0101844 <intrpt_setIDT>:
c0101844:	55                   	push   %ebp
c0101845:	89 e5                	mov    %esp,%ebp
c0101847:	83 ec 10             	sub    $0x10,%esp
c010184a:	8b 45 08             	mov    0x8(%ebp),%eax
c010184d:	8b 55 10             	mov    0x10(%ebp),%edx
c0101850:	66 89 45 fc          	mov    %ax,-0x4(%ebp)
c0101854:	88 55 f8             	mov    %dl,-0x8(%ebp)
c0101857:	0f b7 55 fc          	movzwl -0x4(%ebp),%edx
c010185b:	0f b6 04 d5 04 71 1d 	movzbl -0x3fe28efc(,%edx,8),%eax
c0101862:	c0 
c0101863:	83 e0 00             	and    $0x0,%eax
c0101866:	88 04 d5 04 71 1d c0 	mov    %al,-0x3fe28efc(,%edx,8)
c010186d:	0f b6 04 d5 05 71 1d 	movzbl -0x3fe28efb(,%edx,8),%eax
c0101874:	c0 
c0101875:	83 e0 e0             	and    $0xffffffe0,%eax
c0101878:	83 c8 0e             	or     $0xe,%eax
c010187b:	88 04 d5 05 71 1d c0 	mov    %al,-0x3fe28efb(,%edx,8)
c0101882:	0f b7 4d fc          	movzwl -0x4(%ebp),%ecx
c0101886:	0f b6 45 f8          	movzbl -0x8(%ebp),%eax
c010188a:	83 e0 03             	and    $0x3,%eax
c010188d:	83 e0 03             	and    $0x3,%eax
c0101890:	89 c2                	mov    %eax,%edx
c0101892:	c1 e2 05             	shl    $0x5,%edx
c0101895:	0f b6 04 cd 05 71 1d 	movzbl -0x3fe28efb(,%ecx,8),%eax
c010189c:	c0 
c010189d:	83 e0 9f             	and    $0xffffff9f,%eax
c01018a0:	09 d0                	or     %edx,%eax
c01018a2:	88 04 cd 05 71 1d c0 	mov    %al,-0x3fe28efb(,%ecx,8)
c01018a9:	0f b7 45 fc          	movzwl -0x4(%ebp),%eax
c01018ad:	89 45 f0             	mov    %eax,-0x10(%ebp)
c01018b0:	66 83 7d fc 02       	cmpw   $0x2,-0x4(%ebp)
c01018b5:	74 10                	je     c01018c7 <intrpt_setIDT+0x83>
c01018b7:	66 83 7d fc 0f       	cmpw   $0xf,-0x4(%ebp)
c01018bc:	74 09                	je     c01018c7 <intrpt_setIDT+0x83>
c01018be:	c7 45 f4 01 00 00 00 	movl   $0x1,-0xc(%ebp)
c01018c5:	eb 07                	jmp    c01018ce <intrpt_setIDT+0x8a>
c01018c7:	c7 45 f4 00 00 00 00 	movl   $0x0,-0xc(%ebp)
c01018ce:	0f b6 45 f4          	movzbl -0xc(%ebp),%eax
c01018d2:	83 e0 01             	and    $0x1,%eax
c01018d5:	89 c2                	mov    %eax,%edx
c01018d7:	c1 e2 07             	shl    $0x7,%edx
c01018da:	8b 4d f0             	mov    -0x10(%ebp),%ecx
c01018dd:	0f b6 04 cd 05 71 1d 	movzbl -0x3fe28efb(,%ecx,8),%eax
c01018e4:	c0 
c01018e5:	83 e0 7f             	and    $0x7f,%eax
c01018e8:	09 d0                	or     %edx,%eax
c01018ea:	8b 55 f0             	mov    -0x10(%ebp),%edx
c01018ed:	88 04 d5 05 71 1d c0 	mov    %al,-0x3fe28efb(,%edx,8)
c01018f4:	0f b7 45 fc          	movzwl -0x4(%ebp),%eax
c01018f8:	66 c7 04 c5 02 71 1d 	movw   $0x8,-0x3fe28efe(,%eax,8)
c01018ff:	c0 08 00 
c0101902:	0f b7 55 fc          	movzwl -0x4(%ebp),%edx
c0101906:	8b 45 0c             	mov    0xc(%ebp),%eax
c0101909:	c1 e8 10             	shr    $0x10,%eax
c010190c:	66 89 04 d5 06 71 1d 	mov    %ax,-0x3fe28efa(,%edx,8)
c0101913:	c0 
c0101914:	0f b7 55 fc          	movzwl -0x4(%ebp),%edx
c0101918:	8b 45 0c             	mov    0xc(%ebp),%eax
c010191b:	66 89 04 d5 00 71 1d 	mov    %ax,-0x3fe28f00(,%edx,8)
c0101922:	c0 
c0101923:	c9                   	leave  
c0101924:	c3                   	ret    

c0101925 <intrpt_eoi>:
c0101925:	55                   	push   %ebp
c0101926:	89 e5                	mov    %esp,%ebp
c0101928:	83 ec 08             	sub    $0x8,%esp
c010192b:	83 7d 08 1f          	cmpl   $0x1f,0x8(%ebp)
c010192f:	76 34                	jbe    c0101965 <intrpt_eoi+0x40>
c0101931:	83 7d 08 30          	cmpl   $0x30,0x8(%ebp)
c0101935:	77 2e                	ja     c0101965 <intrpt_eoi+0x40>
c0101937:	83 7d 08 27          	cmpl   $0x27,0x8(%ebp)
c010193b:	76 14                	jbe    c0101951 <intrpt_eoi+0x2c>
c010193d:	c7 44 24 04 20 00 00 	movl   $0x20,0x4(%esp)
c0101944:	00 
c0101945:	c7 04 24 a0 00 00 00 	movl   $0xa0,(%esp)
c010194c:	e8 67 e7 ff ff       	call   c01000b8 <outb>
c0101951:	c7 44 24 04 20 00 00 	movl   $0x20,0x4(%esp)
c0101958:	00 
c0101959:	c7 04 24 20 00 00 00 	movl   $0x20,(%esp)
c0101960:	e8 53 e7 ff ff       	call   c01000b8 <outb>
c0101965:	c9                   	leave  
c0101966:	c3                   	ret    
	...

c0101968 <main>:
c0101968:	8d 4c 24 04          	lea    0x4(%esp),%ecx
c010196c:	83 e4 f0             	and    $0xfffffff0,%esp
c010196f:	ff 71 fc             	pushl  -0x4(%ecx)
c0101972:	55                   	push   %ebp
c0101973:	89 e5                	mov    %esp,%ebp
c0101975:	56                   	push   %esi
c0101976:	53                   	push   %ebx
c0101977:	51                   	push   %ecx
c0101978:	83 ec 2c             	sub    $0x2c,%esp
c010197b:	89 cb                	mov    %ecx,%ebx
c010197d:	e8 8e 19 00 00       	call   c0103310 <paging_init>
c0101982:	e8 65 ed ff ff       	call   c01006ec <gdt_init>
c0101987:	8b 03                	mov    (%ebx),%eax
c0101989:	89 04 24             	mov    %eax,(%esp)
c010198c:	e8 63 16 00 00       	call   c0102ff4 <mboot_init>
c0101991:	e8 2e 95 00 00       	call   c010aec4 <vid_init>
c0101996:	c7 04 24 90 b2 16 c0 	movl   $0xc016b290,(%esp)
c010199d:	e8 a3 9a 00 00       	call   c010b445 <vid_printf>
c01019a2:	c7 04 24 c1 b2 16 c0 	movl   $0xc016b2c1,(%esp)
c01019a9:	e8 96 99 00 00       	call   c010b344 <vid_getswidth>
c01019ae:	0f b6 c0             	movzbl %al,%eax
c01019b1:	89 04 24             	mov    %eax,(%esp)
c01019b4:	e8 cf 96 00 00       	call   c010b088 <vid_toLineEnd>
c01019b9:	c7 44 24 04 c1 b2 16 	movl   $0xc016b2c1,0x4(%esp)
c01019c0:	c0 
c01019c1:	c7 04 24 c6 b2 16 c0 	movl   $0xc016b2c6,(%esp)
c01019c8:	e8 78 9a 00 00       	call   c010b445 <vid_printf>
c01019cd:	e8 d7 16 00 00       	call   c01030a9 <mboot_dbg_print>
c01019d2:	e8 f9 ea ff ff       	call   c01004d0 <dbg_startTimer>
c01019d7:	c7 04 24 d0 b2 16 c0 	movl   $0xc016b2d0,(%esp)
c01019de:	e8 62 9a 00 00       	call   c010b445 <vid_printf>
c01019e3:	e8 c8 0e 00 00       	call   c01028b0 <mm_init>
c01019e8:	e8 b1 1a 00 00       	call   c010349e <paging_mapHigherHalf>
c01019ed:	e8 7d 02 00 00       	call   c0101c6f <kheap_init>
c01019f2:	e8 4b 1b 00 00       	call   c0103542 <paging_initCOWList>
c01019f7:	c7 04 24 c1 b2 16 c0 	movl   $0xc016b2c1,(%esp)
c01019fe:	e8 41 99 00 00       	call   c010b344 <vid_getswidth>
c0101a03:	0f b6 c0             	movzbl %al,%eax
c0101a06:	89 04 24             	mov    %eax,(%esp)
c0101a09:	e8 7a 96 00 00       	call   c010b088 <vid_toLineEnd>
c0101a0e:	c7 44 24 04 c1 b2 16 	movl   $0xc016b2c1,0x4(%esp)
c0101a15:	c0 
c0101a16:	c7 04 24 c6 b2 16 c0 	movl   $0xc016b2c6,(%esp)
c0101a1d:	e8 23 9a 00 00       	call   c010b445 <vid_printf>
c0101a22:	e8 c1 ea ff ff       	call   c01004e8 <dbg_stopTimer>
c0101a27:	e8 a4 ea ff ff       	call   c01004d0 <dbg_startTimer>
c0101a2c:	c7 04 24 f2 b2 16 c0 	movl   $0xc016b2f2,(%esp)
c0101a33:	e8 0d 9a 00 00       	call   c010b445 <vid_printf>
c0101a38:	e8 57 62 00 00       	call   c0107c94 <vfs_init>
c0101a3d:	e8 06 7d 00 00       	call   c0109748 <vfsinfo_init>
c0101a42:	c7 04 24 c1 b2 16 c0 	movl   $0xc016b2c1,(%esp)
c0101a49:	e8 f6 98 00 00       	call   c010b344 <vid_getswidth>
c0101a4e:	0f b6 c0             	movzbl %al,%eax
c0101a51:	89 04 24             	mov    %eax,(%esp)
c0101a54:	e8 2f 96 00 00       	call   c010b088 <vid_toLineEnd>
c0101a59:	c7 44 24 04 c1 b2 16 	movl   $0xc016b2c1,0x4(%esp)
c0101a60:	c0 
c0101a61:	c7 04 24 c6 b2 16 c0 	movl   $0xc016b2c6,(%esp)
c0101a68:	e8 d8 99 00 00       	call   c010b445 <vid_printf>
c0101a6d:	e8 76 ea ff ff       	call   c01004e8 <dbg_stopTimer>
c0101a72:	e8 59 ea ff ff       	call   c01004d0 <dbg_startTimer>
c0101a77:	c7 04 24 08 b3 16 c0 	movl   $0xc016b308,(%esp)
c0101a7e:	e8 c2 99 00 00       	call   c010b445 <vid_printf>
c0101a83:	e8 94 31 00 00       	call   c0104c1c <proc_init>
c0101a88:	e8 13 46 00 00       	call   c01060a0 <sched_init>
c0101a8d:	c7 04 24 c1 b2 16 c0 	movl   $0xc016b2c1,(%esp)
c0101a94:	e8 ab 98 00 00       	call   c010b344 <vid_getswidth>
c0101a99:	0f b6 c0             	movzbl %al,%eax
c0101a9c:	89 04 24             	mov    %eax,(%esp)
c0101a9f:	e8 e4 95 00 00       	call   c010b088 <vid_toLineEnd>
c0101aa4:	c7 44 24 04 c1 b2 16 	movl   $0xc016b2c1,0x4(%esp)
c0101aab:	c0 
c0101aac:	c7 04 24 c6 b2 16 c0 	movl   $0xc016b2c6,(%esp)
c0101ab3:	e8 8d 99 00 00       	call   c010b445 <vid_printf>
c0101ab8:	e8 2b ea ff ff       	call   c01004e8 <dbg_stopTimer>
c0101abd:	e8 0e ea ff ff       	call   c01004d0 <dbg_startTimer>
c0101ac2:	c7 04 24 2b b3 16 c0 	movl   $0xc016b32b,(%esp)
c0101ac9:	e8 77 99 00 00       	call   c010b445 <vid_printf>
c0101ace:	e8 d0 ee ff ff       	call   c01009a3 <intrpt_init>
c0101ad3:	c7 04 24 c1 b2 16 c0 	movl   $0xc016b2c1,(%esp)
c0101ada:	e8 65 98 00 00       	call   c010b344 <vid_getswidth>
c0101adf:	0f b6 c0             	movzbl %al,%eax
c0101ae2:	89 04 24             	mov    %eax,(%esp)
c0101ae5:	e8 9e 95 00 00       	call   c010b088 <vid_toLineEnd>
c0101aea:	c7 44 24 04 c1 b2 16 	movl   $0xc016b2c1,0x4(%esp)
c0101af1:	c0 
c0101af2:	c7 04 24 c6 b2 16 c0 	movl   $0xc016b2c6,(%esp)
c0101af9:	e8 47 99 00 00       	call   c010b445 <vid_printf>
c0101afe:	e8 e5 e9 ff ff       	call   c01004e8 <dbg_stopTimer>
c0101b03:	c7 04 24 03 00 00 00 	movl   $0x3,(%esp)
c0101b0a:	e8 99 0e 00 00       	call   c01029a8 <mm_getFreeFrmCount>
c0101b0f:	c1 e0 0c             	shl    $0xc,%eax
c0101b12:	89 c6                	mov    %eax,%esi
c0101b14:	c1 ee 0a             	shr    $0xa,%esi
c0101b17:	e8 96 2c 00 00       	call   c01047b2 <paging_dbg_getPageCount>
c0101b1c:	89 c3                	mov    %eax,%ebx
c0101b1e:	c7 04 24 03 00 00 00 	movl   $0x3,(%esp)
c0101b25:	e8 7e 0e 00 00       	call   c01029a8 <mm_getFreeFrmCount>
c0101b2a:	89 74 24 0c          	mov    %esi,0xc(%esp)
c0101b2e:	89 5c 24 08          	mov    %ebx,0x8(%esp)
c0101b32:	89 44 24 04          	mov    %eax,0x4(%esp)
c0101b36:	c7 04 24 40 b3 16 c0 	movl   $0xc016b340,(%esp)
c0101b3d:	e8 03 99 00 00       	call   c010b445 <vid_printf>
c0101b42:	c7 04 24 e0 06 16 c0 	movl   $0xc01606e0,(%esp)
c0101b49:	e8 fa e9 ff ff       	call   c0100548 <elf_loadprog>
c0101b4e:	89 45 f0             	mov    %eax,-0x10(%ebp)
c0101b51:	c7 44 24 04 01 00 00 	movl   $0x1,0x4(%esp)
c0101b58:	00 
c0101b59:	c7 04 24 02 00 00 00 	movl   $0x2,(%esp)
c0101b60:	e8 5b 3f 00 00       	call   c0105ac0 <proc_changeSize>
c0101b65:	8b 45 f0             	mov    -0x10(%ebp),%eax
c0101b68:	83 c4 2c             	add    $0x2c,%esp
c0101b6b:	59                   	pop    %ecx
c0101b6c:	5b                   	pop    %ebx
c0101b6d:	5e                   	pop    %esi
c0101b6e:	5d                   	pop    %ebp
c0101b6f:	8d 61 fc             	lea    -0x4(%ecx),%esp
c0101b72:	c3                   	ret    
	...

c0101b74 <kbd_handleIntrpt>:
c0101b74:	55                   	push   %ebp
c0101b75:	89 e5                	mov    %esp,%ebp
c0101b77:	83 ec 28             	sub    $0x28,%esp
c0101b7a:	c7 04 24 60 00 00 00 	movl   $0x60,(%esp)
c0101b81:	e8 3d e5 ff ff       	call   c01000c3 <inb>
c0101b86:	88 45 f7             	mov    %al,-0x9(%ebp)
c0101b89:	0f b6 45 f7          	movzbl -0x9(%ebp),%eax
c0101b8d:	25 80 00 00 00       	and    $0x80,%eax
c0101b92:	89 45 f8             	mov    %eax,-0x8(%ebp)
c0101b95:	c6 45 ff 00          	movb   $0x0,-0x1(%ebp)
c0101b99:	0f b6 45 f7          	movzbl -0x9(%ebp),%eax
c0101b9d:	89 45 ec             	mov    %eax,-0x14(%ebp)
c0101ba0:	83 7d ec 36          	cmpl   $0x36,-0x14(%ebp)
c0101ba4:	74 0f                	je     c0101bb5 <kbd_handleIntrpt+0x41>
c0101ba6:	81 7d ec e0 00 00 00 	cmpl   $0xe0,-0x14(%ebp)
c0101bad:	74 60                	je     c0101c0f <kbd_handleIntrpt+0x9b>
c0101baf:	83 7d ec 2a          	cmpl   $0x2a,-0x14(%ebp)
c0101bb3:	75 11                	jne    c0101bc6 <kbd_handleIntrpt+0x52>
c0101bb5:	83 7d f8 00          	cmpl   $0x0,-0x8(%ebp)
c0101bb9:	0f 94 c0             	sete   %al
c0101bbc:	0f b6 c0             	movzbl %al,%eax
c0101bbf:	a3 00 79 1d c0       	mov    %eax,0xc01d7900
c0101bc4:	eb 49                	jmp    c0101c0f <kbd_handleIntrpt+0x9b>
c0101bc6:	80 7d f7 58          	cmpb   $0x58,-0x9(%ebp)
c0101bca:	77 43                	ja     c0101c0f <kbd_handleIntrpt+0x9b>
c0101bcc:	a1 00 79 1d c0       	mov    0xc01d7900,%eax
c0101bd1:	85 c0                	test   %eax,%eax
c0101bd3:	74 11                	je     c0101be6 <kbd_handleIntrpt+0x72>
c0101bd5:	0f b6 45 f7          	movzbl -0x9(%ebp),%eax
c0101bd9:	0f b6 04 85 62 a0 16 	movzbl -0x3fe95f9e(,%eax,4),%eax
c0101be0:	c0 
c0101be1:	88 45 ff             	mov    %al,-0x1(%ebp)
c0101be4:	eb 29                	jmp    c0101c0f <kbd_handleIntrpt+0x9b>
c0101be6:	a1 04 79 1d c0       	mov    0xc01d7904,%eax
c0101beb:	85 c0                	test   %eax,%eax
c0101bed:	74 11                	je     c0101c00 <kbd_handleIntrpt+0x8c>
c0101bef:	0f b6 45 f7          	movzbl -0x9(%ebp),%eax
c0101bf3:	0f b6 04 85 63 a0 16 	movzbl -0x3fe95f9d(,%eax,4),%eax
c0101bfa:	c0 
c0101bfb:	88 45 ff             	mov    %al,-0x1(%ebp)
c0101bfe:	eb 0f                	jmp    c0101c0f <kbd_handleIntrpt+0x9b>
c0101c00:	0f b6 45 f7          	movzbl -0x9(%ebp),%eax
c0101c04:	0f b6 04 85 61 a0 16 	movzbl -0x3fe95f9f(,%eax,4),%eax
c0101c0b:	c0 
c0101c0c:	88 45 ff             	mov    %al,-0x1(%ebp)
c0101c0f:	0f b6 45 f7          	movzbl -0x9(%ebp),%eax
c0101c13:	89 44 24 04          	mov    %eax,0x4(%esp)
c0101c17:	c7 04 24 72 b3 16 c0 	movl   $0xc016b372,(%esp)
c0101c1e:	e8 22 98 00 00       	call   c010b445 <vid_printf>
c0101c23:	c7 44 24 04 20 00 00 	movl   $0x20,0x4(%esp)
c0101c2a:	00 
c0101c2b:	c7 04 24 20 00 00 00 	movl   $0x20,(%esp)
c0101c32:	e8 81 e4 ff ff       	call   c01000b8 <outb>
c0101c37:	c9                   	leave  
c0101c38:	c3                   	ret    
c0101c39:	00 00                	add    %al,(%eax)
	...

c0101c3c <kheap_getFreeMem>:
c0101c3c:	55                   	push   %ebp
c0101c3d:	89 e5                	mov    %esp,%ebp
c0101c3f:	83 ec 10             	sub    $0x10,%esp
c0101c42:	c7 45 f8 00 00 00 00 	movl   $0x0,-0x8(%ebp)
c0101c49:	a1 20 79 1d c0       	mov    0xc01d7920,%eax
c0101c4e:	89 45 fc             	mov    %eax,-0x4(%ebp)
c0101c51:	eb 11                	jmp    c0101c64 <kheap_getFreeMem+0x28>
c0101c53:	8b 45 fc             	mov    -0x4(%ebp),%eax
c0101c56:	8b 00                	mov    (%eax),%eax
c0101c58:	01 45 f8             	add    %eax,-0x8(%ebp)
c0101c5b:	8b 45 fc             	mov    -0x4(%ebp),%eax
c0101c5e:	8b 40 08             	mov    0x8(%eax),%eax
c0101c61:	89 45 fc             	mov    %eax,-0x4(%ebp)
c0101c64:	83 7d fc 00          	cmpl   $0x0,-0x4(%ebp)
c0101c68:	75 e9                	jne    c0101c53 <kheap_getFreeMem+0x17>
c0101c6a:	8b 45 f8             	mov    -0x8(%ebp),%eax
c0101c6d:	c9                   	leave  
c0101c6e:	c3                   	ret    

c0101c6f <kheap_init>:
c0101c6f:	55                   	push   %ebp
c0101c70:	89 e5                	mov    %esp,%ebp
c0101c72:	5d                   	pop    %ebp
c0101c73:	c3                   	ret    

c0101c74 <kheap_alloc>:
c0101c74:	55                   	push   %ebp
c0101c75:	89 e5                	mov    %esp,%ebp
c0101c77:	83 ec 28             	sub    $0x28,%esp
c0101c7a:	c7 45 f4 00 00 00 00 	movl   $0x0,-0xc(%ebp)
c0101c81:	a1 20 79 1d c0       	mov    0xc01d7920,%eax
c0101c86:	89 45 f0             	mov    %eax,-0x10(%ebp)
c0101c89:	eb 19                	jmp    c0101ca4 <kheap_alloc+0x30>
c0101c8b:	8b 45 f0             	mov    -0x10(%ebp),%eax
c0101c8e:	8b 00                	mov    (%eax),%eax
c0101c90:	3b 45 08             	cmp    0x8(%ebp),%eax
c0101c93:	73 15                	jae    c0101caa <kheap_alloc+0x36>
c0101c95:	8b 45 f0             	mov    -0x10(%ebp),%eax
c0101c98:	89 45 f4             	mov    %eax,-0xc(%ebp)
c0101c9b:	8b 45 f0             	mov    -0x10(%ebp),%eax
c0101c9e:	8b 40 08             	mov    0x8(%eax),%eax
c0101ca1:	89 45 f0             	mov    %eax,-0x10(%ebp)
c0101ca4:	83 7d f0 00          	cmpl   $0x0,-0x10(%ebp)
c0101ca8:	75 e1                	jne    c0101c8b <kheap_alloc+0x17>
c0101caa:	83 7d f0 00          	cmpl   $0x0,-0x10(%ebp)
c0101cae:	75 30                	jne    c0101ce0 <kheap_alloc+0x6c>
c0101cb0:	8b 45 08             	mov    0x8(%ebp),%eax
c0101cb3:	89 04 24             	mov    %eax,(%esp)
c0101cb6:	e8 f5 07 00 00       	call   c01024b0 <kheap_loadNewSpace>
c0101cbb:	85 c0                	test   %eax,%eax
c0101cbd:	75 0c                	jne    c0101ccb <kheap_alloc+0x57>
c0101cbf:	c7 45 ec 00 00 00 00 	movl   $0x0,-0x14(%ebp)
c0101cc6:	e9 fb 00 00 00       	jmp    c0101dc6 <kheap_alloc+0x152>
c0101ccb:	a1 20 79 1d c0       	mov    0xc01d7920,%eax
c0101cd0:	89 45 f0             	mov    %eax,-0x10(%ebp)
c0101cd3:	8b 45 f0             	mov    -0x10(%ebp),%eax
c0101cd6:	8b 40 08             	mov    0x8(%eax),%eax
c0101cd9:	a3 20 79 1d c0       	mov    %eax,0xc01d7920
c0101cde:	eb 1f                	jmp    c0101cff <kheap_alloc+0x8b>
c0101ce0:	83 7d f4 00          	cmpl   $0x0,-0xc(%ebp)
c0101ce4:	75 0d                	jne    c0101cf3 <kheap_alloc+0x7f>
c0101ce6:	8b 45 f0             	mov    -0x10(%ebp),%eax
c0101ce9:	8b 40 08             	mov    0x8(%eax),%eax
c0101cec:	a3 20 79 1d c0       	mov    %eax,0xc01d7920
c0101cf1:	eb 0c                	jmp    c0101cff <kheap_alloc+0x8b>
c0101cf3:	8b 45 f0             	mov    -0x10(%ebp),%eax
c0101cf6:	8b 50 08             	mov    0x8(%eax),%edx
c0101cf9:	8b 45 f4             	mov    -0xc(%ebp),%eax
c0101cfc:	89 50 08             	mov    %edx,0x8(%eax)
c0101cff:	8b 45 f0             	mov    -0x10(%ebp),%eax
c0101d02:	8b 00                	mov    (%eax),%eax
c0101d04:	3b 45 08             	cmp    0x8(%ebp),%eax
c0101d07:	76 74                	jbe    c0101d7d <kheap_alloc+0x109>
c0101d09:	a1 24 79 1d c0       	mov    0xc01d7924,%eax
c0101d0e:	85 c0                	test   %eax,%eax
c0101d10:	75 15                	jne    c0101d27 <kheap_alloc+0xb3>
c0101d12:	e8 e0 08 00 00       	call   c01025f7 <kheap_loadNewAreas>
c0101d17:	85 c0                	test   %eax,%eax
c0101d19:	75 0c                	jne    c0101d27 <kheap_alloc+0xb3>
c0101d1b:	c7 45 ec 00 00 00 00 	movl   $0x0,-0x14(%ebp)
c0101d22:	e9 9f 00 00 00       	jmp    c0101dc6 <kheap_alloc+0x152>
c0101d27:	e8 55 06 00 00       	call   c0102381 <kheap_allocArea>
c0101d2c:	89 45 f8             	mov    %eax,-0x8(%ebp)
c0101d2f:	83 7d f8 00          	cmpl   $0x0,-0x8(%ebp)
c0101d33:	75 0c                	jne    c0101d41 <kheap_alloc+0xcd>
c0101d35:	c7 45 ec 00 00 00 00 	movl   $0x0,-0x14(%ebp)
c0101d3c:	e9 85 00 00 00       	jmp    c0101dc6 <kheap_alloc+0x152>
c0101d41:	8b 45 f0             	mov    -0x10(%ebp),%eax
c0101d44:	8b 40 04             	mov    0x4(%eax),%eax
c0101d47:	89 c2                	mov    %eax,%edx
c0101d49:	03 55 08             	add    0x8(%ebp),%edx
c0101d4c:	8b 45 f8             	mov    -0x8(%ebp),%eax
c0101d4f:	89 50 04             	mov    %edx,0x4(%eax)
c0101d52:	8b 45 f0             	mov    -0x10(%ebp),%eax
c0101d55:	8b 00                	mov    (%eax),%eax
c0101d57:	89 c2                	mov    %eax,%edx
c0101d59:	2b 55 08             	sub    0x8(%ebp),%edx
c0101d5c:	8b 45 f8             	mov    -0x8(%ebp),%eax
c0101d5f:	89 10                	mov    %edx,(%eax)
c0101d61:	8b 55 f0             	mov    -0x10(%ebp),%edx
c0101d64:	8b 45 08             	mov    0x8(%ebp),%eax
c0101d67:	89 02                	mov    %eax,(%edx)
c0101d69:	8b 15 20 79 1d c0    	mov    0xc01d7920,%edx
c0101d6f:	8b 45 f8             	mov    -0x8(%ebp),%eax
c0101d72:	89 50 08             	mov    %edx,0x8(%eax)
c0101d75:	8b 45 f8             	mov    -0x8(%ebp),%eax
c0101d78:	a3 20 79 1d c0       	mov    %eax,0xc01d7920
c0101d7d:	8b 45 f0             	mov    -0x10(%ebp),%eax
c0101d80:	8b 10                	mov    (%eax),%edx
c0101d82:	8b 45 f0             	mov    -0x10(%ebp),%eax
c0101d85:	8b 40 04             	mov    0x4(%eax),%eax
c0101d88:	89 54 24 04          	mov    %edx,0x4(%esp)
c0101d8c:	89 04 24             	mov    %eax,(%esp)
c0101d8f:	e8 94 05 00 00       	call   c0102328 <kheap_incRefs>
c0101d94:	8b 45 f0             	mov    -0x10(%ebp),%eax
c0101d97:	8b 40 04             	mov    0x4(%eax),%eax
c0101d9a:	25 ff 03 00 00       	and    $0x3ff,%eax
c0101d9f:	c1 e0 02             	shl    $0x2,%eax
c0101da2:	05 40 79 1d c0       	add    $0xc01d7940,%eax
c0101da7:	89 45 fc             	mov    %eax,-0x4(%ebp)
c0101daa:	8b 45 fc             	mov    -0x4(%ebp),%eax
c0101dad:	8b 10                	mov    (%eax),%edx
c0101daf:	8b 45 f0             	mov    -0x10(%ebp),%eax
c0101db2:	89 50 08             	mov    %edx,0x8(%eax)
c0101db5:	8b 55 fc             	mov    -0x4(%ebp),%edx
c0101db8:	8b 45 f0             	mov    -0x10(%ebp),%eax
c0101dbb:	89 02                	mov    %eax,(%edx)
c0101dbd:	8b 45 f0             	mov    -0x10(%ebp),%eax
c0101dc0:	8b 40 04             	mov    0x4(%eax),%eax
c0101dc3:	89 45 ec             	mov    %eax,-0x14(%ebp)
c0101dc6:	8b 45 ec             	mov    -0x14(%ebp),%eax
c0101dc9:	c9                   	leave  
c0101dca:	c3                   	ret    

c0101dcb <kheap_free>:
c0101dcb:	55                   	push   %ebp
c0101dcc:	89 e5                	mov    %esp,%ebp
c0101dce:	83 ec 48             	sub    $0x48,%esp
c0101dd1:	83 7d 08 00          	cmpl   $0x0,0x8(%ebp)
c0101dd5:	0f 84 24 03 00 00    	je     c01020ff <kheap_free+0x334>
c0101ddb:	c7 45 d0 00 00 00 00 	movl   $0x0,-0x30(%ebp)
c0101de2:	8b 45 08             	mov    0x8(%ebp),%eax
c0101de5:	25 ff 03 00 00       	and    $0x3ff,%eax
c0101dea:	8b 04 85 40 79 1d c0 	mov    -0x3fe286c0(,%eax,4),%eax
c0101df1:	89 45 cc             	mov    %eax,-0x34(%ebp)
c0101df4:	eb 1a                	jmp    c0101e10 <kheap_free+0x45>
c0101df6:	8b 45 cc             	mov    -0x34(%ebp),%eax
c0101df9:	8b 40 04             	mov    0x4(%eax),%eax
c0101dfc:	3b 45 08             	cmp    0x8(%ebp),%eax
c0101dff:	74 15                	je     c0101e16 <kheap_free+0x4b>
c0101e01:	8b 45 cc             	mov    -0x34(%ebp),%eax
c0101e04:	89 45 d0             	mov    %eax,-0x30(%ebp)
c0101e07:	8b 45 cc             	mov    -0x34(%ebp),%eax
c0101e0a:	8b 40 08             	mov    0x8(%eax),%eax
c0101e0d:	89 45 cc             	mov    %eax,-0x34(%ebp)
c0101e10:	83 7d cc 00          	cmpl   $0x0,-0x34(%ebp)
c0101e14:	75 e0                	jne    c0101df6 <kheap_free+0x2b>
c0101e16:	83 7d cc 00          	cmpl   $0x0,-0x34(%ebp)
c0101e1a:	0f 84 df 02 00 00    	je     c01020ff <kheap_free+0x334>
c0101e20:	83 7d d0 00          	cmpl   $0x0,-0x30(%ebp)
c0101e24:	74 0e                	je     c0101e34 <kheap_free+0x69>
c0101e26:	8b 45 cc             	mov    -0x34(%ebp),%eax
c0101e29:	8b 50 08             	mov    0x8(%eax),%edx
c0101e2c:	8b 45 d0             	mov    -0x30(%ebp),%eax
c0101e2f:	89 50 08             	mov    %edx,0x8(%eax)
c0101e32:	eb 18                	jmp    c0101e4c <kheap_free+0x81>
c0101e34:	8b 45 08             	mov    0x8(%ebp),%eax
c0101e37:	89 c2                	mov    %eax,%edx
c0101e39:	81 e2 ff 03 00 00    	and    $0x3ff,%edx
c0101e3f:	8b 45 cc             	mov    -0x34(%ebp),%eax
c0101e42:	8b 40 08             	mov    0x8(%eax),%eax
c0101e45:	89 04 95 40 79 1d c0 	mov    %eax,-0x3fe286c0(,%edx,4)
c0101e4c:	8b 45 cc             	mov    -0x34(%ebp),%eax
c0101e4f:	8b 00                	mov    (%eax),%eax
c0101e51:	8b 55 08             	mov    0x8(%ebp),%edx
c0101e54:	89 44 24 04          	mov    %eax,0x4(%esp)
c0101e58:	89 14 24             	mov    %edx,(%esp)
c0101e5b:	e8 0a 04 00 00       	call   c010226a <kheap_decRefs>
c0101e60:	85 c0                	test   %eax,%eax
c0101e62:	0f 85 bf 01 00 00    	jne    c0102027 <kheap_free+0x25c>
c0101e68:	c7 45 d8 00 00 00 00 	movl   $0x0,-0x28(%ebp)
c0101e6f:	c7 45 dc 00 00 00 00 	movl   $0x0,-0x24(%ebp)
c0101e76:	c7 45 e8 00 00 00 00 	movl   $0x0,-0x18(%ebp)
c0101e7d:	a1 20 79 1d c0       	mov    0xc01d7920,%eax
c0101e82:	89 45 d4             	mov    %eax,-0x2c(%ebp)
c0101e85:	eb 58                	jmp    c0101edf <kheap_free+0x114>
c0101e87:	8b 45 d4             	mov    -0x2c(%ebp),%eax
c0101e8a:	8b 50 04             	mov    0x4(%eax),%edx
c0101e8d:	8b 45 d4             	mov    -0x2c(%ebp),%eax
c0101e90:	8b 00                	mov    (%eax),%eax
c0101e92:	8d 04 02             	lea    (%edx,%eax,1),%eax
c0101e95:	3b 45 08             	cmp    0x8(%ebp),%eax
c0101e98:	75 0c                	jne    c0101ea6 <kheap_free+0xdb>
c0101e9a:	8b 45 d4             	mov    -0x2c(%ebp),%eax
c0101e9d:	89 45 d8             	mov    %eax,-0x28(%ebp)
c0101ea0:	8b 45 e8             	mov    -0x18(%ebp),%eax
c0101ea3:	89 45 e4             	mov    %eax,-0x1c(%ebp)
c0101ea6:	8b 45 d4             	mov    -0x2c(%ebp),%eax
c0101ea9:	8b 50 04             	mov    0x4(%eax),%edx
c0101eac:	8b 45 cc             	mov    -0x34(%ebp),%eax
c0101eaf:	8b 00                	mov    (%eax),%eax
c0101eb1:	03 45 08             	add    0x8(%ebp),%eax
c0101eb4:	39 c2                	cmp    %eax,%edx
c0101eb6:	75 0c                	jne    c0101ec4 <kheap_free+0xf9>
c0101eb8:	8b 45 d4             	mov    -0x2c(%ebp),%eax
c0101ebb:	89 45 dc             	mov    %eax,-0x24(%ebp)
c0101ebe:	8b 45 e8             	mov    -0x18(%ebp),%eax
c0101ec1:	89 45 e0             	mov    %eax,-0x20(%ebp)
c0101ec4:	83 7d d8 00          	cmpl   $0x0,-0x28(%ebp)
c0101ec8:	74 06                	je     c0101ed0 <kheap_free+0x105>
c0101eca:	83 7d dc 00          	cmpl   $0x0,-0x24(%ebp)
c0101ece:	75 15                	jne    c0101ee5 <kheap_free+0x11a>
c0101ed0:	8b 45 d4             	mov    -0x2c(%ebp),%eax
c0101ed3:	89 45 e8             	mov    %eax,-0x18(%ebp)
c0101ed6:	8b 45 d4             	mov    -0x2c(%ebp),%eax
c0101ed9:	8b 40 08             	mov    0x8(%eax),%eax
c0101edc:	89 45 d4             	mov    %eax,-0x2c(%ebp)
c0101edf:	83 7d d4 00          	cmpl   $0x0,-0x2c(%ebp)
c0101ee3:	75 a2                	jne    c0101e87 <kheap_free+0xbc>
c0101ee5:	83 7d d8 00          	cmpl   $0x0,-0x28(%ebp)
c0101ee9:	0f 84 c6 00 00 00    	je     c0101fb5 <kheap_free+0x1ea>
c0101eef:	83 7d dc 00          	cmpl   $0x0,-0x24(%ebp)
c0101ef3:	0f 84 bc 00 00 00    	je     c0101fb5 <kheap_free+0x1ea>
c0101ef9:	8b 45 cc             	mov    -0x34(%ebp),%eax
c0101efc:	8b 08                	mov    (%eax),%ecx
c0101efe:	8b 45 d8             	mov    -0x28(%ebp),%eax
c0101f01:	8b 10                	mov    (%eax),%edx
c0101f03:	8b 45 dc             	mov    -0x24(%ebp),%eax
c0101f06:	8b 00                	mov    (%eax),%eax
c0101f08:	8d 04 02             	lea    (%edx,%eax,1),%eax
c0101f0b:	8d 14 01             	lea    (%ecx,%eax,1),%edx
c0101f0e:	8b 45 cc             	mov    -0x34(%ebp),%eax
c0101f11:	89 10                	mov    %edx,(%eax)
c0101f13:	8b 45 d8             	mov    -0x28(%ebp),%eax
c0101f16:	8b 50 04             	mov    0x4(%eax),%edx
c0101f19:	8b 45 cc             	mov    -0x34(%ebp),%eax
c0101f1c:	89 50 04             	mov    %edx,0x4(%eax)
c0101f1f:	83 7d e0 00          	cmpl   $0x0,-0x20(%ebp)
c0101f23:	74 0e                	je     c0101f33 <kheap_free+0x168>
c0101f25:	8b 45 dc             	mov    -0x24(%ebp),%eax
c0101f28:	8b 50 08             	mov    0x8(%eax),%edx
c0101f2b:	8b 45 e0             	mov    -0x20(%ebp),%eax
c0101f2e:	89 50 08             	mov    %edx,0x8(%eax)
c0101f31:	eb 0b                	jmp    c0101f3e <kheap_free+0x173>
c0101f33:	8b 45 dc             	mov    -0x24(%ebp),%eax
c0101f36:	8b 40 08             	mov    0x8(%eax),%eax
c0101f39:	a3 20 79 1d c0       	mov    %eax,0xc01d7920
c0101f3e:	8b 45 e4             	mov    -0x1c(%ebp),%eax
c0101f41:	3b 45 dc             	cmp    -0x24(%ebp),%eax
c0101f44:	75 21                	jne    c0101f67 <kheap_free+0x19c>
c0101f46:	83 7d e0 00          	cmpl   $0x0,-0x20(%ebp)
c0101f4a:	74 0e                	je     c0101f5a <kheap_free+0x18f>
c0101f4c:	8b 45 d8             	mov    -0x28(%ebp),%eax
c0101f4f:	8b 50 08             	mov    0x8(%eax),%edx
c0101f52:	8b 45 e0             	mov    -0x20(%ebp),%eax
c0101f55:	89 50 08             	mov    %edx,0x8(%eax)
c0101f58:	eb 2c                	jmp    c0101f86 <kheap_free+0x1bb>
c0101f5a:	8b 45 d8             	mov    -0x28(%ebp),%eax
c0101f5d:	8b 40 08             	mov    0x8(%eax),%eax
c0101f60:	a3 20 79 1d c0       	mov    %eax,0xc01d7920
c0101f65:	eb 1f                	jmp    c0101f86 <kheap_free+0x1bb>
c0101f67:	83 7d e4 00          	cmpl   $0x0,-0x1c(%ebp)
c0101f6b:	74 0e                	je     c0101f7b <kheap_free+0x1b0>
c0101f6d:	8b 45 d8             	mov    -0x28(%ebp),%eax
c0101f70:	8b 50 08             	mov    0x8(%eax),%edx
c0101f73:	8b 45 e4             	mov    -0x1c(%ebp),%eax
c0101f76:	89 50 08             	mov    %edx,0x8(%eax)
c0101f79:	eb 0b                	jmp    c0101f86 <kheap_free+0x1bb>
c0101f7b:	8b 45 d8             	mov    -0x28(%ebp),%eax
c0101f7e:	8b 40 08             	mov    0x8(%eax),%eax
c0101f81:	a3 20 79 1d c0       	mov    %eax,0xc01d7920
c0101f86:	8b 15 20 79 1d c0    	mov    0xc01d7920,%edx
c0101f8c:	8b 45 cc             	mov    -0x34(%ebp),%eax
c0101f8f:	89 50 08             	mov    %edx,0x8(%eax)
c0101f92:	8b 45 cc             	mov    -0x34(%ebp),%eax
c0101f95:	a3 20 79 1d c0       	mov    %eax,0xc01d7920
c0101f9a:	8b 45 d8             	mov    -0x28(%ebp),%eax
c0101f9d:	89 04 24             	mov    %eax,(%esp)
c0101fa0:	e8 34 04 00 00       	call   c01023d9 <kheap_freeArea>
c0101fa5:	8b 45 dc             	mov    -0x24(%ebp),%eax
c0101fa8:	89 04 24             	mov    %eax,(%esp)
c0101fab:	e8 29 04 00 00       	call   c01023d9 <kheap_freeArea>
c0101fb0:	e9 41 01 00 00       	jmp    c01020f6 <kheap_free+0x32b>
c0101fb5:	83 7d d8 00          	cmpl   $0x0,-0x28(%ebp)
c0101fb9:	74 21                	je     c0101fdc <kheap_free+0x211>
c0101fbb:	8b 45 d8             	mov    -0x28(%ebp),%eax
c0101fbe:	8b 10                	mov    (%eax),%edx
c0101fc0:	8b 45 cc             	mov    -0x34(%ebp),%eax
c0101fc3:	8b 00                	mov    (%eax),%eax
c0101fc5:	01 c2                	add    %eax,%edx
c0101fc7:	8b 45 d8             	mov    -0x28(%ebp),%eax
c0101fca:	89 10                	mov    %edx,(%eax)
c0101fcc:	8b 45 cc             	mov    -0x34(%ebp),%eax
c0101fcf:	89 04 24             	mov    %eax,(%esp)
c0101fd2:	e8 02 04 00 00       	call   c01023d9 <kheap_freeArea>
c0101fd7:	e9 1a 01 00 00       	jmp    c01020f6 <kheap_free+0x32b>
c0101fdc:	83 7d dc 00          	cmpl   $0x0,-0x24(%ebp)
c0101fe0:	74 2d                	je     c010200f <kheap_free+0x244>
c0101fe2:	8b 45 cc             	mov    -0x34(%ebp),%eax
c0101fe5:	8b 50 04             	mov    0x4(%eax),%edx
c0101fe8:	8b 45 dc             	mov    -0x24(%ebp),%eax
c0101feb:	89 50 04             	mov    %edx,0x4(%eax)
c0101fee:	8b 45 dc             	mov    -0x24(%ebp),%eax
c0101ff1:	8b 10                	mov    (%eax),%edx
c0101ff3:	8b 45 cc             	mov    -0x34(%ebp),%eax
c0101ff6:	8b 00                	mov    (%eax),%eax
c0101ff8:	01 c2                	add    %eax,%edx
c0101ffa:	8b 45 dc             	mov    -0x24(%ebp),%eax
c0101ffd:	89 10                	mov    %edx,(%eax)
c0101fff:	8b 45 cc             	mov    -0x34(%ebp),%eax
c0102002:	89 04 24             	mov    %eax,(%esp)
c0102005:	e8 cf 03 00 00       	call   c01023d9 <kheap_freeArea>
c010200a:	e9 e7 00 00 00       	jmp    c01020f6 <kheap_free+0x32b>
c010200f:	a1 20 79 1d c0       	mov    0xc01d7920,%eax
c0102014:	8b 55 cc             	mov    -0x34(%ebp),%edx
c0102017:	89 42 08             	mov    %eax,0x8(%edx)
c010201a:	8b 45 cc             	mov    -0x34(%ebp),%eax
c010201d:	a3 20 79 1d c0       	mov    %eax,0xc01d7920
c0102022:	e9 cf 00 00 00       	jmp    c01020f6 <kheap_free+0x32b>
c0102027:	8b 45 08             	mov    0x8(%ebp),%eax
c010202a:	25 00 f0 ff ff       	and    $0xfffff000,%eax
c010202f:	89 45 f8             	mov    %eax,-0x8(%ebp)
c0102032:	8b 45 cc             	mov    -0x34(%ebp),%eax
c0102035:	8b 00                	mov    (%eax),%eax
c0102037:	05 ff 0f 00 00       	add    $0xfff,%eax
c010203c:	03 45 08             	add    0x8(%ebp),%eax
c010203f:	25 00 f0 ff ff       	and    $0xfffff000,%eax
c0102044:	89 45 fc             	mov    %eax,-0x4(%ebp)
c0102047:	c7 45 f0 00 00 00 00 	movl   $0x0,-0x10(%ebp)
c010204e:	a1 20 79 1d c0       	mov    0xc01d7920,%eax
c0102053:	89 45 ec             	mov    %eax,-0x14(%ebp)
c0102056:	e9 86 00 00 00       	jmp    c01020e1 <kheap_free+0x316>
c010205b:	8b 45 ec             	mov    -0x14(%ebp),%eax
c010205e:	8b 40 04             	mov    0x4(%eax),%eax
c0102061:	3b 45 f8             	cmp    -0x8(%ebp),%eax
c0102064:	72 0b                	jb     c0102071 <kheap_free+0x2a6>
c0102066:	8b 45 ec             	mov    -0x14(%ebp),%eax
c0102069:	8b 40 04             	mov    0x4(%eax),%eax
c010206c:	3b 45 fc             	cmp    -0x4(%ebp),%eax
c010206f:	76 26                	jbe    c0102097 <kheap_free+0x2cc>
c0102071:	8b 45 ec             	mov    -0x14(%ebp),%eax
c0102074:	8b 50 04             	mov    0x4(%eax),%edx
c0102077:	8b 45 ec             	mov    -0x14(%ebp),%eax
c010207a:	8b 00                	mov    (%eax),%eax
c010207c:	8d 04 02             	lea    (%edx,%eax,1),%eax
c010207f:	3b 45 f8             	cmp    -0x8(%ebp),%eax
c0102082:	76 4e                	jbe    c01020d2 <kheap_free+0x307>
c0102084:	8b 45 ec             	mov    -0x14(%ebp),%eax
c0102087:	8b 50 04             	mov    0x4(%eax),%edx
c010208a:	8b 45 ec             	mov    -0x14(%ebp),%eax
c010208d:	8b 00                	mov    (%eax),%eax
c010208f:	8d 04 02             	lea    (%edx,%eax,1),%eax
c0102092:	3b 45 fc             	cmp    -0x4(%ebp),%eax
c0102095:	73 3b                	jae    c01020d2 <kheap_free+0x307>
c0102097:	83 7d f0 00          	cmpl   $0x0,-0x10(%ebp)
c010209b:	75 0d                	jne    c01020aa <kheap_free+0x2df>
c010209d:	8b 45 ec             	mov    -0x14(%ebp),%eax
c01020a0:	8b 40 08             	mov    0x8(%eax),%eax
c01020a3:	a3 20 79 1d c0       	mov    %eax,0xc01d7920
c01020a8:	eb 0c                	jmp    c01020b6 <kheap_free+0x2eb>
c01020aa:	8b 45 ec             	mov    -0x14(%ebp),%eax
c01020ad:	8b 50 08             	mov    0x8(%eax),%edx
c01020b0:	8b 45 f0             	mov    -0x10(%ebp),%eax
c01020b3:	89 50 08             	mov    %edx,0x8(%eax)
c01020b6:	8b 45 ec             	mov    -0x14(%ebp),%eax
c01020b9:	8b 40 08             	mov    0x8(%eax),%eax
c01020bc:	89 45 f4             	mov    %eax,-0xc(%ebp)
c01020bf:	8b 45 ec             	mov    -0x14(%ebp),%eax
c01020c2:	89 04 24             	mov    %eax,(%esp)
c01020c5:	e8 0f 03 00 00       	call   c01023d9 <kheap_freeArea>
c01020ca:	8b 45 f4             	mov    -0xc(%ebp),%eax
c01020cd:	89 45 ec             	mov    %eax,-0x14(%ebp)
c01020d0:	eb 0f                	jmp    c01020e1 <kheap_free+0x316>
c01020d2:	8b 45 ec             	mov    -0x14(%ebp),%eax
c01020d5:	89 45 f0             	mov    %eax,-0x10(%ebp)
c01020d8:	8b 45 ec             	mov    -0x14(%ebp),%eax
c01020db:	8b 40 08             	mov    0x8(%eax),%eax
c01020de:	89 45 ec             	mov    %eax,-0x14(%ebp)
c01020e1:	83 7d ec 00          	cmpl   $0x0,-0x14(%ebp)
c01020e5:	0f 85 70 ff ff ff    	jne    c010205b <kheap_free+0x290>
c01020eb:	8b 45 cc             	mov    -0x34(%ebp),%eax
c01020ee:	89 04 24             	mov    %eax,(%esp)
c01020f1:	e8 e3 02 00 00       	call   c01023d9 <kheap_freeArea>
c01020f6:	66 c7 05 40 89 1d c0 	movw   $0x0,0xc01d8940
c01020fd:	00 00 
c01020ff:	c9                   	leave  
c0102100:	c3                   	ret    

c0102101 <kheap_realloc>:
c0102101:	55                   	push   %ebp
c0102102:	89 e5                	mov    %esp,%ebp
c0102104:	83 ec 28             	sub    $0x28,%esp
c0102107:	8b 45 08             	mov    0x8(%ebp),%eax
c010210a:	25 ff 03 00 00       	and    $0x3ff,%eax
c010210f:	8b 04 85 40 79 1d c0 	mov    -0x3fe286c0(,%eax,4),%eax
c0102116:	89 45 f4             	mov    %eax,-0xc(%ebp)
c0102119:	eb 14                	jmp    c010212f <kheap_realloc+0x2e>
c010211b:	8b 45 f4             	mov    -0xc(%ebp),%eax
c010211e:	8b 40 04             	mov    0x4(%eax),%eax
c0102121:	3b 45 08             	cmp    0x8(%ebp),%eax
c0102124:	74 0f                	je     c0102135 <kheap_realloc+0x34>
c0102126:	8b 45 f4             	mov    -0xc(%ebp),%eax
c0102129:	8b 40 08             	mov    0x8(%eax),%eax
c010212c:	89 45 f4             	mov    %eax,-0xc(%ebp)
c010212f:	83 7d f4 00          	cmpl   $0x0,-0xc(%ebp)
c0102133:	75 e6                	jne    c010211b <kheap_realloc+0x1a>
c0102135:	83 7d f4 00          	cmpl   $0x0,-0xc(%ebp)
c0102139:	75 0c                	jne    c0102147 <kheap_realloc+0x46>
c010213b:	c7 45 ec 00 00 00 00 	movl   $0x0,-0x14(%ebp)
c0102142:	e9 1e 01 00 00       	jmp    c0102265 <kheap_realloc+0x164>
c0102147:	a1 20 79 1d c0       	mov    0xc01d7920,%eax
c010214c:	89 45 f8             	mov    %eax,-0x8(%ebp)
c010214f:	c7 45 fc 00 00 00 00 	movl   $0x0,-0x4(%ebp)
c0102156:	e9 b7 00 00 00       	jmp    c0102212 <kheap_realloc+0x111>
c010215b:	8b 45 f8             	mov    -0x8(%ebp),%eax
c010215e:	8b 48 04             	mov    0x4(%eax),%ecx
c0102161:	8b 45 f4             	mov    -0xc(%ebp),%eax
c0102164:	8b 50 04             	mov    0x4(%eax),%edx
c0102167:	8b 45 f4             	mov    -0xc(%ebp),%eax
c010216a:	8b 00                	mov    (%eax),%eax
c010216c:	8d 04 02             	lea    (%edx,%eax,1),%eax
c010216f:	39 c1                	cmp    %eax,%ecx
c0102171:	0f 85 8c 00 00 00    	jne    c0102203 <kheap_realloc+0x102>
c0102177:	8b 45 f4             	mov    -0xc(%ebp),%eax
c010217a:	8b 10                	mov    (%eax),%edx
c010217c:	8b 45 f8             	mov    -0x8(%ebp),%eax
c010217f:	8b 00                	mov    (%eax),%eax
c0102181:	8d 04 02             	lea    (%edx,%eax,1),%eax
c0102184:	3b 45 0c             	cmp    0xc(%ebp),%eax
c0102187:	0f 82 8f 00 00 00    	jb     c010221c <kheap_realloc+0x11b>
c010218d:	8b 45 f4             	mov    -0xc(%ebp),%eax
c0102190:	8b 10                	mov    (%eax),%edx
c0102192:	8b 45 f8             	mov    -0x8(%ebp),%eax
c0102195:	8b 00                	mov    (%eax),%eax
c0102197:	8d 04 02             	lea    (%edx,%eax,1),%eax
c010219a:	3b 45 0c             	cmp    0xc(%ebp),%eax
c010219d:	76 2a                	jbe    c01021c9 <kheap_realloc+0xc8>
c010219f:	8b 45 f4             	mov    -0xc(%ebp),%eax
c01021a2:	8b 40 04             	mov    0x4(%eax),%eax
c01021a5:	89 c2                	mov    %eax,%edx
c01021a7:	03 55 0c             	add    0xc(%ebp),%edx
c01021aa:	8b 45 f8             	mov    -0x8(%ebp),%eax
c01021ad:	89 50 04             	mov    %edx,0x4(%eax)
c01021b0:	8b 45 f4             	mov    -0xc(%ebp),%eax
c01021b3:	8b 10                	mov    (%eax),%edx
c01021b5:	8b 45 f8             	mov    -0x8(%ebp),%eax
c01021b8:	8b 00                	mov    (%eax),%eax
c01021ba:	8d 04 02             	lea    (%edx,%eax,1),%eax
c01021bd:	89 c2                	mov    %eax,%edx
c01021bf:	2b 55 0c             	sub    0xc(%ebp),%edx
c01021c2:	8b 45 f8             	mov    -0x8(%ebp),%eax
c01021c5:	89 10                	mov    %edx,(%eax)
c01021c7:	eb 2a                	jmp    c01021f3 <kheap_realloc+0xf2>
c01021c9:	83 7d fc 00          	cmpl   $0x0,-0x4(%ebp)
c01021cd:	75 0d                	jne    c01021dc <kheap_realloc+0xdb>
c01021cf:	8b 45 f8             	mov    -0x8(%ebp),%eax
c01021d2:	8b 40 08             	mov    0x8(%eax),%eax
c01021d5:	a3 20 79 1d c0       	mov    %eax,0xc01d7920
c01021da:	eb 0c                	jmp    c01021e8 <kheap_realloc+0xe7>
c01021dc:	8b 45 f8             	mov    -0x8(%ebp),%eax
c01021df:	8b 50 08             	mov    0x8(%eax),%edx
c01021e2:	8b 45 fc             	mov    -0x4(%ebp),%eax
c01021e5:	89 50 08             	mov    %edx,0x8(%eax)
c01021e8:	8b 45 f8             	mov    -0x8(%ebp),%eax
c01021eb:	89 04 24             	mov    %eax,(%esp)
c01021ee:	e8 e6 01 00 00       	call   c01023d9 <kheap_freeArea>
c01021f3:	8b 55 f4             	mov    -0xc(%ebp),%edx
c01021f6:	8b 45 0c             	mov    0xc(%ebp),%eax
c01021f9:	89 02                	mov    %eax,(%edx)
c01021fb:	8b 45 08             	mov    0x8(%ebp),%eax
c01021fe:	89 45 ec             	mov    %eax,-0x14(%ebp)
c0102201:	eb 62                	jmp    c0102265 <kheap_realloc+0x164>
c0102203:	8b 45 f4             	mov    -0xc(%ebp),%eax
c0102206:	89 45 fc             	mov    %eax,-0x4(%ebp)
c0102209:	8b 45 f8             	mov    -0x8(%ebp),%eax
c010220c:	8b 40 08             	mov    0x8(%eax),%eax
c010220f:	89 45 f8             	mov    %eax,-0x8(%ebp)
c0102212:	83 7d f8 00          	cmpl   $0x0,-0x8(%ebp)
c0102216:	0f 85 3f ff ff ff    	jne    c010215b <kheap_realloc+0x5a>
c010221c:	8b 45 0c             	mov    0xc(%ebp),%eax
c010221f:	89 04 24             	mov    %eax,(%esp)
c0102222:	e8 4d fa ff ff       	call   c0101c74 <kheap_alloc>
c0102227:	89 45 f8             	mov    %eax,-0x8(%ebp)
c010222a:	83 7d f8 00          	cmpl   $0x0,-0x8(%ebp)
c010222e:	75 09                	jne    c0102239 <kheap_realloc+0x138>
c0102230:	c7 45 ec 00 00 00 00 	movl   $0x0,-0x14(%ebp)
c0102237:	eb 2c                	jmp    c0102265 <kheap_realloc+0x164>
c0102239:	8b 45 f4             	mov    -0xc(%ebp),%eax
c010223c:	8b 00                	mov    (%eax),%eax
c010223e:	89 44 24 08          	mov    %eax,0x8(%esp)
c0102242:	8b 45 08             	mov    0x8(%ebp),%eax
c0102245:	89 44 24 04          	mov    %eax,0x4(%esp)
c0102249:	8b 45 f8             	mov    -0x8(%ebp),%eax
c010224c:	89 04 24             	mov    %eax,(%esp)
c010224f:	e8 43 9f 00 00       	call   c010c197 <memcpy>
c0102254:	8b 45 08             	mov    0x8(%ebp),%eax
c0102257:	89 04 24             	mov    %eax,(%esp)
c010225a:	e8 6c fb ff ff       	call   c0101dcb <kheap_free>
c010225f:	8b 45 f8             	mov    -0x8(%ebp),%eax
c0102262:	89 45 ec             	mov    %eax,-0x14(%ebp)
c0102265:	8b 45 ec             	mov    -0x14(%ebp),%eax
c0102268:	c9                   	leave  
c0102269:	c3                   	ret    

c010226a <kheap_decRefs>:
c010226a:	55                   	push   %ebp
c010226b:	89 e5                	mov    %esp,%ebp
c010226d:	83 ec 28             	sub    $0x28,%esp
c0102270:	66 c7 45 f6 00 00    	movw   $0x0,-0xa(%ebp)
c0102276:	8b 45 08             	mov    0x8(%ebp),%eax
c0102279:	25 00 f0 ff ff       	and    $0xfffff000,%eax
c010227e:	89 45 f8             	mov    %eax,-0x8(%ebp)
c0102281:	8b 55 0c             	mov    0xc(%ebp),%edx
c0102284:	8b 45 08             	mov    0x8(%ebp),%eax
c0102287:	01 d0                	add    %edx,%eax
c0102289:	05 ff 0f 00 00       	add    $0xfff,%eax
c010228e:	25 00 f0 ff ff       	and    $0xfffff000,%eax
c0102293:	89 45 fc             	mov    %eax,-0x4(%ebp)
c0102296:	8b 55 f8             	mov    -0x8(%ebp),%edx
c0102299:	8b 45 fc             	mov    -0x4(%ebp),%eax
c010229c:	29 d0                	sub    %edx,%eax
c010229e:	c1 e8 0c             	shr    $0xc,%eax
c01022a1:	66 89 45 f4          	mov    %ax,-0xc(%ebp)
c01022a5:	eb 3f                	jmp    c01022e6 <kheap_decRefs+0x7c>
c01022a7:	8b 45 f8             	mov    -0x8(%ebp),%eax
c01022aa:	05 00 00 c0 3f       	add    $0x3fc00000,%eax
c01022af:	c1 e8 0c             	shr    $0xc,%eax
c01022b2:	66 89 45 f2          	mov    %ax,-0xe(%ebp)
c01022b6:	0f b7 45 f2          	movzwl -0xe(%ebp),%eax
c01022ba:	0f b7 94 00 60 89 1d 	movzwl -0x3fe276a0(%eax,%eax,1),%edx
c01022c1:	c0 
c01022c2:	83 ea 01             	sub    $0x1,%edx
c01022c5:	66 89 94 00 60 89 1d 	mov    %dx,-0x3fe276a0(%eax,%eax,1)
c01022cc:	c0 
c01022cd:	0f b7 84 00 60 89 1d 	movzwl -0x3fe276a0(%eax,%eax,1),%eax
c01022d4:	c0 
c01022d5:	66 85 c0             	test   %ax,%ax
c01022d8:	75 05                	jne    c01022df <kheap_decRefs+0x75>
c01022da:	66 83 45 f6 01       	addw   $0x1,-0xa(%ebp)
c01022df:	81 45 f8 00 10 00 00 	addl   $0x1000,-0x8(%ebp)
c01022e6:	8b 45 f8             	mov    -0x8(%ebp),%eax
c01022e9:	3b 45 fc             	cmp    -0x4(%ebp),%eax
c01022ec:	72 b9                	jb     c01022a7 <kheap_decRefs+0x3d>
c01022ee:	0f b7 45 f6          	movzwl -0xa(%ebp),%eax
c01022f2:	66 3b 45 f4          	cmp    -0xc(%ebp),%ax
c01022f6:	75 24                	jne    c010231c <kheap_decRefs+0xb2>
c01022f8:	0f b7 45 f4          	movzwl -0xc(%ebp),%eax
c01022fc:	c7 44 24 08 01 00 00 	movl   $0x1,0x8(%esp)
c0102303:	00 
c0102304:	89 44 24 04          	mov    %eax,0x4(%esp)
c0102308:	8b 45 08             	mov    0x8(%ebp),%eax
c010230b:	89 04 24             	mov    %eax,(%esp)
c010230e:	e8 a4 18 00 00       	call   c0103bb7 <paging_unmap>
c0102313:	c7 45 ec 01 00 00 00 	movl   $0x1,-0x14(%ebp)
c010231a:	eb 07                	jmp    c0102323 <kheap_decRefs+0xb9>
c010231c:	c7 45 ec 00 00 00 00 	movl   $0x0,-0x14(%ebp)
c0102323:	8b 45 ec             	mov    -0x14(%ebp),%eax
c0102326:	c9                   	leave  
c0102327:	c3                   	ret    

c0102328 <kheap_incRefs>:
c0102328:	55                   	push   %ebp
c0102329:	89 e5                	mov    %esp,%ebp
c010232b:	83 ec 10             	sub    $0x10,%esp
c010232e:	8b 45 08             	mov    0x8(%ebp),%eax
c0102331:	25 00 f0 ff ff       	and    $0xfffff000,%eax
c0102336:	89 45 f8             	mov    %eax,-0x8(%ebp)
c0102339:	8b 55 0c             	mov    0xc(%ebp),%edx
c010233c:	8b 45 08             	mov    0x8(%ebp),%eax
c010233f:	01 d0                	add    %edx,%eax
c0102341:	05 ff 0f 00 00       	add    $0xfff,%eax
c0102346:	25 00 f0 ff ff       	and    $0xfffff000,%eax
c010234b:	89 45 fc             	mov    %eax,-0x4(%ebp)
c010234e:	eb 27                	jmp    c0102377 <kheap_incRefs+0x4f>
c0102350:	8b 45 f8             	mov    -0x8(%ebp),%eax
c0102353:	05 00 00 c0 3f       	add    $0x3fc00000,%eax
c0102358:	89 c2                	mov    %eax,%edx
c010235a:	c1 ea 0c             	shr    $0xc,%edx
c010235d:	0f b7 84 12 60 89 1d 	movzwl -0x3fe276a0(%edx,%edx,1),%eax
c0102364:	c0 
c0102365:	83 c0 01             	add    $0x1,%eax
c0102368:	66 89 84 12 60 89 1d 	mov    %ax,-0x3fe276a0(%edx,%edx,1)
c010236f:	c0 
c0102370:	81 45 f8 00 10 00 00 	addl   $0x1000,-0x8(%ebp)
c0102377:	8b 45 f8             	mov    -0x8(%ebp),%eax
c010237a:	3b 45 fc             	cmp    -0x4(%ebp),%eax
c010237d:	72 d1                	jb     c0102350 <kheap_incRefs+0x28>
c010237f:	c9                   	leave  
c0102380:	c3                   	ret    

c0102381 <kheap_allocArea>:
c0102381:	55                   	push   %ebp
c0102382:	89 e5                	mov    %esp,%ebp
c0102384:	83 ec 14             	sub    $0x14,%esp
c0102387:	a1 24 79 1d c0       	mov    0xc01d7924,%eax
c010238c:	85 c0                	test   %eax,%eax
c010238e:	75 09                	jne    c0102399 <kheap_allocArea+0x18>
c0102390:	c7 45 ec 00 00 00 00 	movl   $0x0,-0x14(%ebp)
c0102397:	eb 3b                	jmp    c01023d4 <kheap_allocArea+0x53>
c0102399:	a1 24 79 1d c0       	mov    0xc01d7924,%eax
c010239e:	89 45 fc             	mov    %eax,-0x4(%ebp)
c01023a1:	a1 24 79 1d c0       	mov    0xc01d7924,%eax
c01023a6:	8b 40 08             	mov    0x8(%eax),%eax
c01023a9:	a3 24 79 1d c0       	mov    %eax,0xc01d7924
c01023ae:	8b 45 fc             	mov    -0x4(%ebp),%eax
c01023b1:	05 00 00 c0 3f       	add    $0x3fc00000,%eax
c01023b6:	89 c2                	mov    %eax,%edx
c01023b8:	c1 ea 0c             	shr    $0xc,%edx
c01023bb:	0f b7 84 12 60 89 1d 	movzwl -0x3fe276a0(%edx,%edx,1),%eax
c01023c2:	c0 
c01023c3:	83 c0 01             	add    $0x1,%eax
c01023c6:	66 89 84 12 60 89 1d 	mov    %ax,-0x3fe276a0(%edx,%edx,1)
c01023cd:	c0 
c01023ce:	8b 45 fc             	mov    -0x4(%ebp),%eax
c01023d1:	89 45 ec             	mov    %eax,-0x14(%ebp)
c01023d4:	8b 45 ec             	mov    -0x14(%ebp),%eax
c01023d7:	c9                   	leave  
c01023d8:	c3                   	ret    

c01023d9 <kheap_freeArea>:
c01023d9:	55                   	push   %ebp
c01023da:	89 e5                	mov    %esp,%ebp
c01023dc:	83 ec 28             	sub    $0x28,%esp
c01023df:	8b 45 08             	mov    0x8(%ebp),%eax
c01023e2:	05 00 00 c0 3f       	add    $0x3fc00000,%eax
c01023e7:	c1 e8 0c             	shr    $0xc,%eax
c01023ea:	66 89 45 f6          	mov    %ax,-0xa(%ebp)
c01023ee:	0f b7 45 f6          	movzwl -0xa(%ebp),%eax
c01023f2:	0f b7 94 00 60 89 1d 	movzwl -0x3fe276a0(%eax,%eax,1),%edx
c01023f9:	c0 
c01023fa:	83 ea 01             	sub    $0x1,%edx
c01023fd:	66 89 94 00 60 89 1d 	mov    %dx,-0x3fe276a0(%eax,%eax,1)
c0102404:	c0 
c0102405:	0f b7 84 00 60 89 1d 	movzwl -0x3fe276a0(%eax,%eax,1),%eax
c010240c:	c0 
c010240d:	66 85 c0             	test   %ax,%ax
c0102410:	0f 85 85 00 00 00    	jne    c010249b <kheap_freeArea+0xc2>
c0102416:	c7 45 f8 00 00 00 00 	movl   $0x0,-0x8(%ebp)
c010241d:	8b 45 08             	mov    0x8(%ebp),%eax
c0102420:	25 00 f0 ff ff       	and    $0xfffff000,%eax
c0102425:	89 45 fc             	mov    %eax,-0x4(%ebp)
c0102428:	a1 24 79 1d c0       	mov    0xc01d7924,%eax
c010242d:	89 45 08             	mov    %eax,0x8(%ebp)
c0102430:	eb 46                	jmp    c0102478 <kheap_freeArea+0x9f>
c0102432:	8b 45 08             	mov    0x8(%ebp),%eax
c0102435:	25 00 f0 ff ff       	and    $0xfffff000,%eax
c010243a:	3b 45 fc             	cmp    -0x4(%ebp),%eax
c010243d:	75 2a                	jne    c0102469 <kheap_freeArea+0x90>
c010243f:	83 7d f8 00          	cmpl   $0x0,-0x8(%ebp)
c0102443:	75 0d                	jne    c0102452 <kheap_freeArea+0x79>
c0102445:	8b 45 08             	mov    0x8(%ebp),%eax
c0102448:	8b 40 08             	mov    0x8(%eax),%eax
c010244b:	a3 24 79 1d c0       	mov    %eax,0xc01d7924
c0102450:	eb 0c                	jmp    c010245e <kheap_freeArea+0x85>
c0102452:	8b 45 08             	mov    0x8(%ebp),%eax
c0102455:	8b 50 08             	mov    0x8(%eax),%edx
c0102458:	8b 45 f8             	mov    -0x8(%ebp),%eax
c010245b:	89 50 08             	mov    %edx,0x8(%eax)
c010245e:	8b 45 08             	mov    0x8(%ebp),%eax
c0102461:	8b 40 08             	mov    0x8(%eax),%eax
c0102464:	89 45 08             	mov    %eax,0x8(%ebp)
c0102467:	eb 0f                	jmp    c0102478 <kheap_freeArea+0x9f>
c0102469:	8b 45 08             	mov    0x8(%ebp),%eax
c010246c:	89 45 f8             	mov    %eax,-0x8(%ebp)
c010246f:	8b 45 08             	mov    0x8(%ebp),%eax
c0102472:	8b 40 08             	mov    0x8(%eax),%eax
c0102475:	89 45 08             	mov    %eax,0x8(%ebp)
c0102478:	83 7d 08 00          	cmpl   $0x0,0x8(%ebp)
c010247c:	75 b4                	jne    c0102432 <kheap_freeArea+0x59>
c010247e:	c7 44 24 08 01 00 00 	movl   $0x1,0x8(%esp)
c0102485:	00 
c0102486:	c7 44 24 04 01 00 00 	movl   $0x1,0x4(%esp)
c010248d:	00 
c010248e:	8b 45 fc             	mov    -0x4(%ebp),%eax
c0102491:	89 04 24             	mov    %eax,(%esp)
c0102494:	e8 1e 17 00 00       	call   c0103bb7 <paging_unmap>
c0102499:	eb 13                	jmp    c01024ae <kheap_freeArea+0xd5>
c010249b:	a1 24 79 1d c0       	mov    0xc01d7924,%eax
c01024a0:	8b 55 08             	mov    0x8(%ebp),%edx
c01024a3:	89 42 08             	mov    %eax,0x8(%edx)
c01024a6:	8b 45 08             	mov    0x8(%ebp),%eax
c01024a9:	a3 24 79 1d c0       	mov    %eax,0xc01d7924
c01024ae:	c9                   	leave  
c01024af:	c3                   	ret    

c01024b0 <kheap_loadNewSpace>:
c01024b0:	55                   	push   %ebp
c01024b1:	89 e5                	mov    %esp,%ebp
c01024b3:	83 ec 38             	sub    $0x38,%esp
c01024b6:	c7 45 fc 00 00 00 00 	movl   $0x0,-0x4(%ebp)
c01024bd:	a1 24 79 1d c0       	mov    0xc01d7924,%eax
c01024c2:	85 c0                	test   %eax,%eax
c01024c4:	75 15                	jne    c01024db <kheap_loadNewSpace+0x2b>
c01024c6:	e8 2c 01 00 00       	call   c01025f7 <kheap_loadNewAreas>
c01024cb:	85 c0                	test   %eax,%eax
c01024cd:	75 0c                	jne    c01024db <kheap_loadNewSpace+0x2b>
c01024cf:	c7 45 dc 00 00 00 00 	movl   $0x0,-0x24(%ebp)
c01024d6:	e9 17 01 00 00       	jmp    c01025f2 <kheap_loadNewSpace+0x142>
c01024db:	8b 45 08             	mov    0x8(%ebp),%eax
c01024de:	05 ff 0f 00 00       	add    $0xfff,%eax
c01024e3:	c1 e8 0c             	shr    $0xc,%eax
c01024e6:	89 45 f4             	mov    %eax,-0xc(%ebp)
c01024e9:	0f b7 05 40 89 1d c0 	movzwl 0xc01d8940,%eax
c01024f0:	66 89 45 fa          	mov    %ax,-0x6(%ebp)
c01024f4:	eb 7b                	jmp    c0102571 <kheap_loadNewSpace+0xc1>
c01024f6:	c7 45 fc 01 00 00 00 	movl   $0x1,-0x4(%ebp)
c01024fd:	8b 45 f4             	mov    -0xc(%ebp),%eax
c0102500:	89 45 f0             	mov    %eax,-0x10(%ebp)
c0102503:	eb 23                	jmp    c0102528 <kheap_loadNewSpace+0x78>
c0102505:	0f b7 45 fa          	movzwl -0x6(%ebp),%eax
c0102509:	0f b7 84 00 60 89 1d 	movzwl -0x3fe276a0(%eax,%eax,1),%eax
c0102510:	c0 
c0102511:	66 85 c0             	test   %ax,%ax
c0102514:	74 09                	je     c010251f <kheap_loadNewSpace+0x6f>
c0102516:	c7 45 fc 00 00 00 00 	movl   $0x0,-0x4(%ebp)
c010251d:	eb 0f                	jmp    c010252e <kheap_loadNewSpace+0x7e>
c010251f:	66 83 45 fa 01       	addw   $0x1,-0x6(%ebp)
c0102524:	83 6d f0 01          	subl   $0x1,-0x10(%ebp)
c0102528:	83 7d f0 00          	cmpl   $0x0,-0x10(%ebp)
c010252c:	7f d7                	jg     c0102505 <kheap_loadNewSpace+0x55>
c010252e:	83 7d fc 00          	cmpl   $0x0,-0x4(%ebp)
c0102532:	74 38                	je     c010256c <kheap_loadNewSpace+0xbc>
c0102534:	8b 55 f4             	mov    -0xc(%ebp),%edx
c0102537:	0f b7 45 fa          	movzwl -0x6(%ebp),%eax
c010253b:	2b 45 f4             	sub    -0xc(%ebp),%eax
c010253e:	05 00 04 0c 00       	add    $0xc0400,%eax
c0102543:	c1 e0 0c             	shl    $0xc,%eax
c0102546:	c7 44 24 10 00 00 00 	movl   $0x0,0x10(%esp)
c010254d:	00 
c010254e:	c7 44 24 0c 03 00 00 	movl   $0x3,0xc(%esp)
c0102555:	00 
c0102556:	89 54 24 08          	mov    %edx,0x8(%esp)
c010255a:	c7 44 24 04 00 00 00 	movl   $0x0,0x4(%esp)
c0102561:	00 
c0102562:	89 04 24             	mov    %eax,(%esp)
c0102565:	e8 e7 12 00 00       	call   c0103851 <paging_map>
c010256a:	eb 17                	jmp    c0102583 <kheap_loadNewSpace+0xd3>
c010256c:	66 83 45 fa 01       	addw   $0x1,-0x6(%ebp)
c0102571:	0f b7 45 fa          	movzwl -0x6(%ebp),%eax
c0102575:	03 45 f4             	add    -0xc(%ebp),%eax
c0102578:	3d 00 04 00 00       	cmp    $0x400,%eax
c010257d:	0f 8e 73 ff ff ff    	jle    c01024f6 <kheap_loadNewSpace+0x46>
c0102583:	83 7d fc 00          	cmpl   $0x0,-0x4(%ebp)
c0102587:	75 09                	jne    c0102592 <kheap_loadNewSpace+0xe2>
c0102589:	c7 45 dc 00 00 00 00 	movl   $0x0,-0x24(%ebp)
c0102590:	eb 60                	jmp    c01025f2 <kheap_loadNewSpace+0x142>
c0102592:	0f b7 45 fa          	movzwl -0x6(%ebp),%eax
c0102596:	66 a3 40 89 1d c0    	mov    %ax,0xc01d8940
c010259c:	e8 e0 fd ff ff       	call   c0102381 <kheap_allocArea>
c01025a1:	89 45 ec             	mov    %eax,-0x14(%ebp)
c01025a4:	83 7d ec 00          	cmpl   $0x0,-0x14(%ebp)
c01025a8:	75 09                	jne    c01025b3 <kheap_loadNewSpace+0x103>
c01025aa:	c7 45 dc 00 00 00 00 	movl   $0x0,-0x24(%ebp)
c01025b1:	eb 3f                	jmp    c01025f2 <kheap_loadNewSpace+0x142>
c01025b3:	0f b7 45 fa          	movzwl -0x6(%ebp),%eax
c01025b7:	2b 45 f4             	sub    -0xc(%ebp),%eax
c01025ba:	05 00 04 0c 00       	add    $0xc0400,%eax
c01025bf:	c1 e0 0c             	shl    $0xc,%eax
c01025c2:	89 c2                	mov    %eax,%edx
c01025c4:	8b 45 ec             	mov    -0x14(%ebp),%eax
c01025c7:	89 50 04             	mov    %edx,0x4(%eax)
c01025ca:	8b 45 f4             	mov    -0xc(%ebp),%eax
c01025cd:	c1 e0 0c             	shl    $0xc,%eax
c01025d0:	89 c2                	mov    %eax,%edx
c01025d2:	8b 45 ec             	mov    -0x14(%ebp),%eax
c01025d5:	89 10                	mov    %edx,(%eax)
c01025d7:	8b 15 20 79 1d c0    	mov    0xc01d7920,%edx
c01025dd:	8b 45 ec             	mov    -0x14(%ebp),%eax
c01025e0:	89 50 08             	mov    %edx,0x8(%eax)
c01025e3:	8b 45 ec             	mov    -0x14(%ebp),%eax
c01025e6:	a3 20 79 1d c0       	mov    %eax,0xc01d7920
c01025eb:	c7 45 dc 01 00 00 00 	movl   $0x1,-0x24(%ebp)
c01025f2:	8b 45 dc             	mov    -0x24(%ebp),%eax
c01025f5:	c9                   	leave  
c01025f6:	c3                   	ret    

c01025f7 <kheap_loadNewAreas>:
c01025f7:	55                   	push   %ebp
c01025f8:	89 e5                	mov    %esp,%ebp
c01025fa:	83 ec 28             	sub    $0x28,%esp
c01025fd:	0f b7 05 40 89 1d c0 	movzwl 0xc01d8940,%eax
c0102604:	66 89 45 fe          	mov    %ax,-0x2(%ebp)
c0102608:	eb 16                	jmp    c0102620 <kheap_loadNewAreas+0x29>
c010260a:	0f b7 45 fe          	movzwl -0x2(%ebp),%eax
c010260e:	0f b7 84 00 60 89 1d 	movzwl -0x3fe276a0(%eax,%eax,1),%eax
c0102615:	c0 
c0102616:	66 85 c0             	test   %ax,%ax
c0102619:	74 0d                	je     c0102628 <kheap_loadNewAreas+0x31>
c010261b:	66 83 45 fe 01       	addw   $0x1,-0x2(%ebp)
c0102620:	66 81 7d fe ff 03    	cmpw   $0x3ff,-0x2(%ebp)
c0102626:	76 e2                	jbe    c010260a <kheap_loadNewAreas+0x13>
c0102628:	66 81 7d fe 00 04    	cmpw   $0x400,-0x2(%ebp)
c010262e:	75 0c                	jne    c010263c <kheap_loadNewAreas+0x45>
c0102630:	c7 45 ec 00 00 00 00 	movl   $0x0,-0x14(%ebp)
c0102637:	e9 9b 00 00 00       	jmp    c01026d7 <kheap_loadNewAreas+0xe0>
c010263c:	0f b7 45 fe          	movzwl -0x2(%ebp),%eax
c0102640:	05 00 04 0c 00       	add    $0xc0400,%eax
c0102645:	c1 e0 0c             	shl    $0xc,%eax
c0102648:	c7 44 24 10 00 00 00 	movl   $0x0,0x10(%esp)
c010264f:	00 
c0102650:	c7 44 24 0c 03 00 00 	movl   $0x3,0xc(%esp)
c0102657:	00 
c0102658:	c7 44 24 08 01 00 00 	movl   $0x1,0x8(%esp)
c010265f:	00 
c0102660:	c7 44 24 04 00 00 00 	movl   $0x0,0x4(%esp)
c0102667:	00 
c0102668:	89 04 24             	mov    %eax,(%esp)
c010266b:	e8 e1 11 00 00       	call   c0103851 <paging_map>
c0102670:	0f b7 45 fe          	movzwl -0x2(%ebp),%eax
c0102674:	05 00 04 0c 00       	add    $0xc0400,%eax
c0102679:	c1 e0 0c             	shl    $0xc,%eax
c010267c:	89 45 f4             	mov    %eax,-0xc(%ebp)
c010267f:	8b 45 f4             	mov    -0xc(%ebp),%eax
c0102682:	05 fc 0f 00 00       	add    $0xffc,%eax
c0102687:	89 45 f8             	mov    %eax,-0x8(%ebp)
c010268a:	8b 15 24 79 1d c0    	mov    0xc01d7924,%edx
c0102690:	8b 45 f4             	mov    -0xc(%ebp),%eax
c0102693:	89 50 08             	mov    %edx,0x8(%eax)
c0102696:	8b 45 f4             	mov    -0xc(%ebp),%eax
c0102699:	a3 24 79 1d c0       	mov    %eax,0xc01d7924
c010269e:	83 45 f4 0c          	addl   $0xc,-0xc(%ebp)
c01026a2:	eb 17                	jmp    c01026bb <kheap_loadNewAreas+0xc4>
c01026a4:	a1 24 79 1d c0       	mov    0xc01d7924,%eax
c01026a9:	8b 55 f4             	mov    -0xc(%ebp),%edx
c01026ac:	89 42 08             	mov    %eax,0x8(%edx)
c01026af:	8b 45 f4             	mov    -0xc(%ebp),%eax
c01026b2:	a3 24 79 1d c0       	mov    %eax,0xc01d7924
c01026b7:	83 45 f4 0c          	addl   $0xc,-0xc(%ebp)
c01026bb:	8b 45 f4             	mov    -0xc(%ebp),%eax
c01026be:	3b 45 f8             	cmp    -0x8(%ebp),%eax
c01026c1:	72 e1                	jb     c01026a4 <kheap_loadNewAreas+0xad>
c01026c3:	0f b7 45 fe          	movzwl -0x2(%ebp),%eax
c01026c7:	83 c0 01             	add    $0x1,%eax
c01026ca:	66 a3 40 89 1d c0    	mov    %ax,0xc01d8940
c01026d0:	c7 45 ec 01 00 00 00 	movl   $0x1,-0x14(%ebp)
c01026d7:	8b 45 ec             	mov    -0x14(%ebp),%eax
c01026da:	c9                   	leave  
c01026db:	c3                   	ret    

c01026dc <kheap_dbg_printPageRefs>:
c01026dc:	55                   	push   %ebp
c01026dd:	89 e5                	mov    %esp,%ebp
c01026df:	83 ec 28             	sub    $0x28,%esp
c01026e2:	c7 04 24 80 b3 16 c0 	movl   $0xc016b380,(%esp)
c01026e9:	e8 57 8d 00 00       	call   c010b445 <vid_printf>
c01026ee:	c7 45 fc 00 00 00 00 	movl   $0x0,-0x4(%ebp)
c01026f5:	eb 39                	jmp    c0102730 <kheap_dbg_printPageRefs+0x54>
c01026f7:	8b 45 fc             	mov    -0x4(%ebp),%eax
c01026fa:	0f b7 84 00 60 89 1d 	movzwl -0x3fe276a0(%eax,%eax,1),%eax
c0102701:	c0 
c0102702:	66 85 c0             	test   %ax,%ax
c0102705:	74 25                	je     c010272c <kheap_dbg_printPageRefs+0x50>
c0102707:	8b 45 fc             	mov    -0x4(%ebp),%eax
c010270a:	0f b7 84 00 60 89 1d 	movzwl -0x3fe276a0(%eax,%eax,1),%eax
c0102711:	c0 
c0102712:	0f b7 c0             	movzwl %ax,%eax
c0102715:	89 44 24 08          	mov    %eax,0x8(%esp)
c0102719:	8b 45 fc             	mov    -0x4(%ebp),%eax
c010271c:	89 44 24 04          	mov    %eax,0x4(%esp)
c0102720:	c7 04 24 92 b3 16 c0 	movl   $0xc016b392,(%esp)
c0102727:	e8 19 8d 00 00       	call   c010b445 <vid_printf>
c010272c:	83 45 fc 01          	addl   $0x1,-0x4(%ebp)
c0102730:	81 7d fc ff 03 00 00 	cmpl   $0x3ff,-0x4(%ebp)
c0102737:	76 be                	jbe    c01026f7 <kheap_dbg_printPageRefs+0x1b>
c0102739:	c9                   	leave  
c010273a:	c3                   	ret    

c010273b <kheap_dbg_print>:
c010273b:	55                   	push   %ebp
c010273c:	89 e5                	mov    %esp,%ebp
c010273e:	83 ec 28             	sub    $0x28,%esp
c0102741:	c7 04 24 a0 b3 16 c0 	movl   $0xc016b3a0,(%esp)
c0102748:	e8 f8 8c 00 00       	call   c010b445 <vid_printf>
c010274d:	a1 20 79 1d c0       	mov    0xc01d7920,%eax
c0102752:	89 45 f8             	mov    %eax,-0x8(%ebp)
c0102755:	eb 39                	jmp    c0102790 <kheap_dbg_print+0x55>
c0102757:	8b 45 f8             	mov    -0x8(%ebp),%eax
c010275a:	8b 50 08             	mov    0x8(%eax),%edx
c010275d:	8b 45 f8             	mov    -0x8(%ebp),%eax
c0102760:	8b 08                	mov    (%eax),%ecx
c0102762:	8b 45 f8             	mov    -0x8(%ebp),%eax
c0102765:	8b 40 04             	mov    0x4(%eax),%eax
c0102768:	89 54 24 10          	mov    %edx,0x10(%esp)
c010276c:	89 4c 24 0c          	mov    %ecx,0xc(%esp)
c0102770:	89 44 24 08          	mov    %eax,0x8(%esp)
c0102774:	8b 45 f8             	mov    -0x8(%ebp),%eax
c0102777:	89 44 24 04          	mov    %eax,0x4(%esp)
c010277b:	c7 04 24 b0 b3 16 c0 	movl   $0xc016b3b0,(%esp)
c0102782:	e8 be 8c 00 00       	call   c010b445 <vid_printf>
c0102787:	8b 45 f8             	mov    -0x8(%ebp),%eax
c010278a:	8b 40 08             	mov    0x8(%eax),%eax
c010278d:	89 45 f8             	mov    %eax,-0x8(%ebp)
c0102790:	83 7d f8 00          	cmpl   $0x0,-0x8(%ebp)
c0102794:	75 c1                	jne    c0102757 <kheap_dbg_print+0x1c>
c0102796:	c7 04 24 d8 b3 16 c0 	movl   $0xc016b3d8,(%esp)
c010279d:	e8 a3 8c 00 00       	call   c010b445 <vid_printf>
c01027a2:	c7 45 fc 00 00 00 00 	movl   $0x0,-0x4(%ebp)
c01027a9:	eb 6b                	jmp    c0102816 <kheap_dbg_print+0xdb>
c01027ab:	8b 45 fc             	mov    -0x4(%ebp),%eax
c01027ae:	8b 04 85 40 79 1d c0 	mov    -0x3fe286c0(,%eax,4),%eax
c01027b5:	89 45 f8             	mov    %eax,-0x8(%ebp)
c01027b8:	83 7d f8 00          	cmpl   $0x0,-0x8(%ebp)
c01027bc:	74 54                	je     c0102812 <kheap_dbg_print+0xd7>
c01027be:	8b 45 fc             	mov    -0x4(%ebp),%eax
c01027c1:	89 44 24 04          	mov    %eax,0x4(%esp)
c01027c5:	c7 04 24 e6 b3 16 c0 	movl   $0xc016b3e6,(%esp)
c01027cc:	e8 74 8c 00 00       	call   c010b445 <vid_printf>
c01027d1:	eb 39                	jmp    c010280c <kheap_dbg_print+0xd1>
c01027d3:	8b 45 f8             	mov    -0x8(%ebp),%eax
c01027d6:	8b 50 08             	mov    0x8(%eax),%edx
c01027d9:	8b 45 f8             	mov    -0x8(%ebp),%eax
c01027dc:	8b 08                	mov    (%eax),%ecx
c01027de:	8b 45 f8             	mov    -0x8(%ebp),%eax
c01027e1:	8b 40 04             	mov    0x4(%eax),%eax
c01027e4:	89 54 24 10          	mov    %edx,0x10(%esp)
c01027e8:	89 4c 24 0c          	mov    %ecx,0xc(%esp)
c01027ec:	89 44 24 08          	mov    %eax,0x8(%esp)
c01027f0:	8b 45 f8             	mov    -0x8(%ebp),%eax
c01027f3:	89 44 24 04          	mov    %eax,0x4(%esp)
c01027f7:	c7 04 24 ec b3 16 c0 	movl   $0xc016b3ec,(%esp)
c01027fe:	e8 42 8c 00 00       	call   c010b445 <vid_printf>
c0102803:	8b 45 f8             	mov    -0x8(%ebp),%eax
c0102806:	8b 40 08             	mov    0x8(%eax),%eax
c0102809:	89 45 f8             	mov    %eax,-0x8(%ebp)
c010280c:	83 7d f8 00          	cmpl   $0x0,-0x8(%ebp)
c0102810:	75 c1                	jne    c01027d3 <kheap_dbg_print+0x98>
c0102812:	83 45 fc 01          	addl   $0x1,-0x4(%ebp)
c0102816:	81 7d fc ff 03 00 00 	cmpl   $0x3ff,-0x4(%ebp)
c010281d:	76 8c                	jbe    c01027ab <kheap_dbg_print+0x70>
c010281f:	c9                   	leave  
c0102820:	c3                   	ret    
c0102821:	00 00                	add    %al,(%eax)
	...

c0102824 <ksym_print>:
c0102824:	55                   	push   %ebp
c0102825:	89 e5                	mov    %esp,%ebp
c0102827:	83 ec 28             	sub    $0x28,%esp
c010282a:	c7 04 24 50 c8 16 c0 	movl   $0xc016c850,(%esp)
c0102831:	e8 0f 8c 00 00       	call   c010b445 <vid_printf>
c0102836:	c7 45 fc 00 00 00 00 	movl   $0x0,-0x4(%ebp)
c010283d:	eb 2c                	jmp    c010286b <ksym_print+0x47>
c010283f:	8b 45 fc             	mov    -0x4(%ebp),%eax
c0102842:	8b 14 c5 e4 a1 16 c0 	mov    -0x3fe95e1c(,%eax,8),%edx
c0102849:	8b 45 fc             	mov    -0x4(%ebp),%eax
c010284c:	8b 04 c5 e0 a1 16 c0 	mov    -0x3fe95e20(,%eax,8),%eax
c0102853:	89 54 24 08          	mov    %edx,0x8(%esp)
c0102857:	89 44 24 04          	mov    %eax,0x4(%esp)
c010285b:	c7 04 24 61 c8 16 c0 	movl   $0xc016c861,(%esp)
c0102862:	e8 de 8b 00 00       	call   c010b445 <vid_printf>
c0102867:	83 45 fc 01          	addl   $0x1,-0x4(%ebp)
c010286b:	81 7d fc 76 01 00 00 	cmpl   $0x176,-0x4(%ebp)
c0102872:	76 cb                	jbe    c010283f <ksym_print+0x1b>
c0102874:	c9                   	leave  
c0102875:	c3                   	ret    

c0102876 <ksym_getSymbolAt>:
c0102876:	55                   	push   %ebp
c0102877:	89 e5                	mov    %esp,%ebp
c0102879:	83 ec 14             	sub    $0x14,%esp
c010287c:	c7 45 fc 90 ad 16 c0 	movl   $0xc016ad90,-0x4(%ebp)
c0102883:	eb 16                	jmp    c010289b <ksym_getSymbolAt+0x25>
c0102885:	8b 45 fc             	mov    -0x4(%ebp),%eax
c0102888:	8b 00                	mov    (%eax),%eax
c010288a:	3b 45 08             	cmp    0x8(%ebp),%eax
c010288d:	73 08                	jae    c0102897 <ksym_getSymbolAt+0x21>
c010288f:	8b 45 fc             	mov    -0x4(%ebp),%eax
c0102892:	89 45 ec             	mov    %eax,-0x14(%ebp)
c0102895:	eb 14                	jmp    c01028ab <ksym_getSymbolAt+0x35>
c0102897:	83 6d fc 08          	subl   $0x8,-0x4(%ebp)
c010289b:	81 7d fc e0 a1 16 c0 	cmpl   $0xc016a1e0,-0x4(%ebp)
c01028a2:	73 e1                	jae    c0102885 <ksym_getSymbolAt+0xf>
c01028a4:	c7 45 ec e0 a1 16 c0 	movl   $0xc016a1e0,-0x14(%ebp)
c01028ab:	8b 45 ec             	mov    -0x14(%ebp),%eax
c01028ae:	c9                   	leave  
c01028af:	c3                   	ret    

c01028b0 <mm_init>:
c01028b0:	55                   	push   %ebp
c01028b1:	89 e5                	mov    %esp,%ebp
c01028b3:	83 ec 28             	sub    $0x28,%esp
c01028b6:	a1 0c f0 16 c0       	mov    0xc016f00c,%eax
c01028bb:	8b 40 08             	mov    0x8(%eax),%eax
c01028be:	05 00 fc 3f 00       	add    $0x3ffc00,%eax
c01028c3:	c1 e0 0a             	shl    $0xa,%eax
c01028c6:	c1 e8 0c             	shr    $0xc,%eax
c01028c9:	2d 01 0b 00 00       	sub    $0xb01,%eax
c01028ce:	c1 e8 0a             	shr    $0xa,%eax
c01028d1:	a3 68 91 1d c0       	mov    %eax,0xc01d9168
c01028d6:	c7 05 6c 91 1d c0 90 	movl   $0xc023dc90,0xc01d916c
c01028dd:	dc 23 c0 
c01028e0:	c7 44 24 08 e0 01 00 	movl   $0x1e0,0x8(%esp)
c01028e7:	00 
c01028e8:	c7 44 24 04 ff ff ff 	movl   $0xffffffff,0x4(%esp)
c01028ef:	ff 
c01028f0:	c7 04 24 80 91 1d c0 	movl   $0xc01d9180,(%esp)
c01028f7:	e8 96 99 00 00       	call   c010c292 <memset>
c01028fc:	a1 0c f0 16 c0       	mov    0xc016f00c,%eax
c0102901:	8b 40 30             	mov    0x30(%eax),%eax
c0102904:	89 45 fc             	mov    %eax,-0x4(%ebp)
c0102907:	eb 4f                	jmp    c0102958 <mm_init+0xa8>
c0102909:	83 7d fc 00          	cmpl   $0x0,-0x4(%ebp)
c010290d:	74 3e                	je     c010294d <mm_init+0x9d>
c010290f:	8b 45 fc             	mov    -0x4(%ebp),%eax
c0102912:	8b 40 14             	mov    0x14(%eax),%eax
c0102915:	83 f8 01             	cmp    $0x1,%eax
c0102918:	75 33                	jne    c010294d <mm_init+0x9d>
c010291a:	8b 45 fc             	mov    -0x4(%ebp),%eax
c010291d:	8b 50 08             	mov    0x8(%eax),%edx
c0102920:	8b 40 04             	mov    0x4(%eax),%eax
c0102923:	89 c1                	mov    %eax,%ecx
c0102925:	8b 45 fc             	mov    -0x4(%ebp),%eax
c0102928:	8b 50 10             	mov    0x10(%eax),%edx
c010292b:	8b 40 0c             	mov    0xc(%eax),%eax
c010292e:	01 c1                	add    %eax,%ecx
c0102930:	8b 45 fc             	mov    -0x4(%ebp),%eax
c0102933:	8b 50 08             	mov    0x8(%eax),%edx
c0102936:	8b 40 04             	mov    0x4(%eax),%eax
c0102939:	c7 44 24 08 00 00 00 	movl   $0x0,0x8(%esp)
c0102940:	00 
c0102941:	89 4c 24 04          	mov    %ecx,0x4(%esp)
c0102945:	89 04 24             	mov    %eax,(%esp)
c0102948:	e8 b8 04 00 00       	call   c0102e05 <mm_markAddrRangeUsed>
c010294d:	8b 45 fc             	mov    -0x4(%ebp),%eax
c0102950:	8b 00                	mov    (%eax),%eax
c0102952:	83 c0 04             	add    $0x4,%eax
c0102955:	01 45 fc             	add    %eax,-0x4(%ebp)
c0102958:	8b 4d fc             	mov    -0x4(%ebp),%ecx
c010295b:	a1 0c f0 16 c0       	mov    0xc016f00c,%eax
c0102960:	8b 50 30             	mov    0x30(%eax),%edx
c0102963:	a1 0c f0 16 c0       	mov    0xc016f00c,%eax
c0102968:	8b 40 2c             	mov    0x2c(%eax),%eax
c010296b:	8d 04 02             	lea    (%edx,%eax,1),%eax
c010296e:	39 c1                	cmp    %eax,%ecx
c0102970:	72 97                	jb     c0102909 <mm_init+0x59>
c0102972:	a1 68 91 1d c0       	mov    0xc01d9168,%eax
c0102977:	89 c2                	mov    %eax,%edx
c0102979:	c1 e2 0c             	shl    $0xc,%edx
c010297c:	b8 90 dc 23 c0       	mov    $0xc023dc90,%eax
c0102981:	25 ff ff ff 3f       	and    $0x3fffffff,%eax
c0102986:	01 c2                	add    %eax,%edx
c0102988:	b8 00 00 10 00       	mov    $0x100000,%eax
c010298d:	25 ff ff ff 3f       	and    $0x3fffffff,%eax
c0102992:	c7 44 24 08 01 00 00 	movl   $0x1,0x8(%esp)
c0102999:	00 
c010299a:	89 54 24 04          	mov    %edx,0x4(%esp)
c010299e:	89 04 24             	mov    %eax,(%esp)
c01029a1:	e8 5f 04 00 00       	call   c0102e05 <mm_markAddrRangeUsed>
c01029a6:	c9                   	leave  
c01029a7:	c3                   	ret    

c01029a8 <mm_getFreeFrmCount>:
c01029a8:	55                   	push   %ebp
c01029a9:	89 e5                	mov    %esp,%ebp
c01029ab:	83 ec 28             	sub    $0x28,%esp
c01029ae:	c7 45 fc 00 00 00 00 	movl   $0x0,-0x4(%ebp)
c01029b5:	8b 45 08             	mov    0x8(%ebp),%eax
c01029b8:	83 e0 03             	and    $0x3,%eax
c01029bb:	85 c0                	test   %eax,%eax
c01029bd:	75 24                	jne    c01029e3 <mm_getFreeFrmCount+0x3b>
c01029bf:	c7 44 24 0c 5b 00 00 	movl   $0x5b,0xc(%esp)
c01029c6:	00 
c01029c7:	c7 44 24 08 70 c8 16 	movl   $0xc016c870,0x8(%esp)
c01029ce:	c0 
c01029cf:	c7 44 24 04 83 c8 16 	movl   $0xc016c883,0x4(%esp)
c01029d6:	c0 
c01029d7:	c7 04 24 8c c8 16 c0 	movl   $0xc016c88c,(%esp)
c01029de:	e8 fd 4f 00 00       	call   c01079e0 <panic>
c01029e3:	8b 45 08             	mov    0x8(%ebp),%eax
c01029e6:	83 e0 fc             	and    $0xfffffffc,%eax
c01029e9:	85 c0                	test   %eax,%eax
c01029eb:	74 24                	je     c0102a11 <mm_getFreeFrmCount+0x69>
c01029ed:	c7 44 24 0c 5c 00 00 	movl   $0x5c,0xc(%esp)
c01029f4:	00 
c01029f5:	c7 44 24 08 70 c8 16 	movl   $0xc016c870,0x8(%esp)
c01029fc:	c0 
c01029fd:	c7 44 24 04 83 c8 16 	movl   $0xc016c883,0x4(%esp)
c0102a04:	c0 
c0102a05:	c7 04 24 c0 c8 16 c0 	movl   $0xc016c8c0,(%esp)
c0102a0c:	e8 cf 4f 00 00       	call   c01079e0 <panic>
c0102a11:	8b 45 08             	mov    0x8(%ebp),%eax
c0102a14:	83 e0 01             	and    $0x1,%eax
c0102a17:	84 c0                	test   %al,%al
c0102a19:	74 46                	je     c0102a61 <mm_getFreeFrmCount+0xb9>
c0102a1b:	c7 45 f4 00 00 00 00 	movl   $0x0,-0xc(%ebp)
c0102a22:	eb 34                	jmp    c0102a58 <mm_getFreeFrmCount+0xb0>
c0102a24:	a1 64 91 1d c0       	mov    0xc01d9164,%eax
c0102a29:	c1 e8 05             	shr    $0x5,%eax
c0102a2c:	89 45 f8             	mov    %eax,-0x8(%ebp)
c0102a2f:	8b 45 f8             	mov    -0x8(%ebp),%eax
c0102a32:	8b 14 85 80 91 1d c0 	mov    -0x3fe26e80(,%eax,4),%edx
c0102a39:	a1 64 91 1d c0       	mov    0xc01d9164,%eax
c0102a3e:	89 c1                	mov    %eax,%ecx
c0102a40:	83 e1 1f             	and    $0x1f,%ecx
c0102a43:	b8 01 00 00 00       	mov    $0x1,%eax
c0102a48:	d3 e0                	shl    %cl,%eax
c0102a4a:	21 d0                	and    %edx,%eax
c0102a4c:	85 c0                	test   %eax,%eax
c0102a4e:	75 04                	jne    c0102a54 <mm_getFreeFrmCount+0xac>
c0102a50:	83 45 fc 01          	addl   $0x1,-0x4(%ebp)
c0102a54:	83 45 f4 01          	addl   $0x1,-0xc(%ebp)
c0102a58:	81 7d f4 ff 0e 00 00 	cmpl   $0xeff,-0xc(%ebp)
c0102a5f:	76 c3                	jbe    c0102a24 <mm_getFreeFrmCount+0x7c>
c0102a61:	8b 45 08             	mov    0x8(%ebp),%eax
c0102a64:	83 e0 02             	and    $0x2,%eax
c0102a67:	85 c0                	test   %eax,%eax
c0102a69:	74 18                	je     c0102a83 <mm_getFreeFrmCount+0xdb>
c0102a6b:	a1 6c 91 1d c0       	mov    0xc01d916c,%eax
c0102a70:	89 c2                	mov    %eax,%edx
c0102a72:	b8 90 dc 23 c0       	mov    $0xc023dc90,%eax
c0102a77:	89 d1                	mov    %edx,%ecx
c0102a79:	29 c1                	sub    %eax,%ecx
c0102a7b:	89 c8                	mov    %ecx,%eax
c0102a7d:	c1 e8 02             	shr    $0x2,%eax
c0102a80:	01 45 fc             	add    %eax,-0x4(%ebp)
c0102a83:	8b 45 fc             	mov    -0x4(%ebp),%eax
c0102a86:	c9                   	leave  
c0102a87:	c3                   	ret    

c0102a88 <mm_allocateFrames>:
c0102a88:	55                   	push   %ebp
c0102a89:	89 e5                	mov    %esp,%ebp
c0102a8b:	83 ec 18             	sub    $0x18,%esp
c0102a8e:	83 7d 08 02          	cmpl   $0x2,0x8(%ebp)
c0102a92:	74 2a                	je     c0102abe <mm_allocateFrames+0x36>
c0102a94:	83 7d 08 01          	cmpl   $0x1,0x8(%ebp)
c0102a98:	74 24                	je     c0102abe <mm_allocateFrames+0x36>
c0102a9a:	c7 44 24 0c 6f 00 00 	movl   $0x6f,0xc(%esp)
c0102aa1:	00 
c0102aa2:	c7 44 24 08 ff c8 16 	movl   $0xc016c8ff,0x8(%esp)
c0102aa9:	c0 
c0102aaa:	c7 44 24 04 83 c8 16 	movl   $0xc016c883,0x4(%esp)
c0102ab1:	c0 
c0102ab2:	c7 04 24 14 c9 16 c0 	movl   $0xc016c914,(%esp)
c0102ab9:	e8 22 4f 00 00       	call   c01079e0 <panic>
c0102abe:	83 7d 0c 00          	cmpl   $0x0,0xc(%ebp)
c0102ac2:	75 3c                	jne    c0102b00 <mm_allocateFrames+0x78>
c0102ac4:	c7 44 24 0c 70 00 00 	movl   $0x70,0xc(%esp)
c0102acb:	00 
c0102acc:	c7 44 24 08 ff c8 16 	movl   $0xc016c8ff,0x8(%esp)
c0102ad3:	c0 
c0102ad4:	c7 44 24 04 83 c8 16 	movl   $0xc016c883,0x4(%esp)
c0102adb:	c0 
c0102adc:	c7 04 24 44 c9 16 c0 	movl   $0xc016c944,(%esp)
c0102ae3:	e8 f8 4e 00 00       	call   c01079e0 <panic>
c0102ae8:	eb 16                	jmp    c0102b00 <mm_allocateFrames+0x78>
c0102aea:	8b 45 08             	mov    0x8(%ebp),%eax
c0102aed:	89 04 24             	mov    %eax,(%esp)
c0102af0:	e8 1c 00 00 00       	call   c0102b11 <mm_allocateFrame>
c0102af5:	89 c2                	mov    %eax,%edx
c0102af7:	8b 45 0c             	mov    0xc(%ebp),%eax
c0102afa:	89 10                	mov    %edx,(%eax)
c0102afc:	83 45 0c 04          	addl   $0x4,0xc(%ebp)
c0102b00:	83 7d 10 00          	cmpl   $0x0,0x10(%ebp)
c0102b04:	0f 95 c0             	setne  %al
c0102b07:	83 6d 10 01          	subl   $0x1,0x10(%ebp)
c0102b0b:	84 c0                	test   %al,%al
c0102b0d:	75 db                	jne    c0102aea <mm_allocateFrames+0x62>
c0102b0f:	c9                   	leave  
c0102b10:	c3                   	ret    

c0102b11 <mm_allocateFrame>:
c0102b11:	55                   	push   %ebp
c0102b12:	89 e5                	mov    %esp,%ebp
c0102b14:	83 ec 28             	sub    $0x28,%esp
c0102b17:	83 7d 08 02          	cmpl   $0x2,0x8(%ebp)
c0102b1b:	74 2a                	je     c0102b47 <mm_allocateFrame+0x36>
c0102b1d:	83 7d 08 01          	cmpl   $0x1,0x8(%ebp)
c0102b21:	74 24                	je     c0102b47 <mm_allocateFrame+0x36>
c0102b23:	c7 44 24 0c 7a 00 00 	movl   $0x7a,0xc(%esp)
c0102b2a:	00 
c0102b2b:	c7 44 24 08 76 c9 16 	movl   $0xc016c976,0x8(%esp)
c0102b32:	c0 
c0102b33:	c7 44 24 04 83 c8 16 	movl   $0xc016c883,0x4(%esp)
c0102b3a:	c0 
c0102b3b:	c7 04 24 14 c9 16 c0 	movl   $0xc016c914,(%esp)
c0102b42:	e8 99 4e 00 00       	call   c01079e0 <panic>
c0102b47:	83 7d 08 01          	cmpl   $0x1,0x8(%ebp)
c0102b4b:	0f 85 08 01 00 00    	jne    c0102c59 <mm_allocateFrame+0x148>
c0102b51:	a1 60 91 1d c0       	mov    0xc01d9160,%eax
c0102b56:	85 c0                	test   %eax,%eax
c0102b58:	0f 84 9d 00 00 00    	je     c0102bfb <mm_allocateFrame+0xea>
c0102b5e:	a1 60 91 1d c0       	mov    0xc01d9160,%eax
c0102b63:	83 e8 01             	sub    $0x1,%eax
c0102b66:	8b 04 85 60 93 1d c0 	mov    -0x3fe26ca0(,%eax,4),%eax
c0102b6d:	c7 44 24 04 01 00 00 	movl   $0x1,0x4(%esp)
c0102b74:	00 
c0102b75:	89 04 24             	mov    %eax,(%esp)
c0102b78:	e8 bf 02 00 00       	call   c0102e3c <mm_markFrameUsed>
c0102b7d:	a1 60 91 1d c0       	mov    0xc01d9160,%eax
c0102b82:	83 e8 01             	sub    $0x1,%eax
c0102b85:	a3 60 91 1d c0       	mov    %eax,0xc01d9160
c0102b8a:	a1 60 91 1d c0       	mov    0xc01d9160,%eax
c0102b8f:	8b 04 85 60 93 1d c0 	mov    -0x3fe26ca0(,%eax,4),%eax
c0102b96:	89 45 ec             	mov    %eax,-0x14(%ebp)
c0102b99:	e9 ea 00 00 00       	jmp    c0102c88 <mm_allocateFrame+0x177>
c0102b9e:	a1 64 91 1d c0       	mov    0xc01d9164,%eax
c0102ba3:	c1 e8 05             	shr    $0x5,%eax
c0102ba6:	89 45 fc             	mov    %eax,-0x4(%ebp)
c0102ba9:	8b 45 fc             	mov    -0x4(%ebp),%eax
c0102bac:	8b 14 85 80 91 1d c0 	mov    -0x3fe26e80(,%eax,4),%edx
c0102bb3:	a1 64 91 1d c0       	mov    0xc01d9164,%eax
c0102bb8:	89 c1                	mov    %eax,%ecx
c0102bba:	83 e1 1f             	and    $0x1f,%ecx
c0102bbd:	b8 01 00 00 00       	mov    $0x1,%eax
c0102bc2:	d3 e0                	shl    %cl,%eax
c0102bc4:	21 d0                	and    %edx,%eax
c0102bc6:	85 c0                	test   %eax,%eax
c0102bc8:	75 24                	jne    c0102bee <mm_allocateFrame+0xdd>
c0102bca:	8b 15 60 91 1d c0    	mov    0xc01d9160,%edx
c0102bd0:	a1 64 91 1d c0       	mov    0xc01d9164,%eax
c0102bd5:	89 04 95 60 93 1d c0 	mov    %eax,-0x3fe26ca0(,%edx,4)
c0102bdc:	8d 42 01             	lea    0x1(%edx),%eax
c0102bdf:	a3 60 91 1d c0       	mov    %eax,0xc01d9160
c0102be4:	a1 60 91 1d c0       	mov    0xc01d9160,%eax
c0102be9:	83 f8 0f             	cmp    $0xf,%eax
c0102bec:	77 19                	ja     c0102c07 <mm_allocateFrame+0xf6>
c0102bee:	a1 64 91 1d c0       	mov    0xc01d9164,%eax
c0102bf3:	83 c0 01             	add    $0x1,%eax
c0102bf6:	a3 64 91 1d c0       	mov    %eax,0xc01d9164
c0102bfb:	a1 64 91 1d c0       	mov    0xc01d9164,%eax
c0102c00:	3d ff 0e 00 00       	cmp    $0xeff,%eax
c0102c05:	76 97                	jbe    c0102b9e <mm_allocateFrame+0x8d>
c0102c07:	a1 60 91 1d c0       	mov    0xc01d9160,%eax
c0102c0c:	85 c0                	test   %eax,%eax
c0102c0e:	75 0c                	jne    c0102c1c <mm_allocateFrame+0x10b>
c0102c10:	c7 04 24 87 c9 16 c0 	movl   $0xc016c987,(%esp)
c0102c17:	e8 c4 4d 00 00       	call   c01079e0 <panic>
c0102c1c:	a1 60 91 1d c0       	mov    0xc01d9160,%eax
c0102c21:	83 e8 01             	sub    $0x1,%eax
c0102c24:	8b 04 85 60 93 1d c0 	mov    -0x3fe26ca0(,%eax,4),%eax
c0102c2b:	c7 44 24 04 01 00 00 	movl   $0x1,0x4(%esp)
c0102c32:	00 
c0102c33:	89 04 24             	mov    %eax,(%esp)
c0102c36:	e8 01 02 00 00       	call   c0102e3c <mm_markFrameUsed>
c0102c3b:	a1 60 91 1d c0       	mov    0xc01d9160,%eax
c0102c40:	83 e8 01             	sub    $0x1,%eax
c0102c43:	a3 60 91 1d c0       	mov    %eax,0xc01d9160
c0102c48:	a1 60 91 1d c0       	mov    0xc01d9160,%eax
c0102c4d:	8b 04 85 60 93 1d c0 	mov    -0x3fe26ca0(,%eax,4),%eax
c0102c54:	89 45 ec             	mov    %eax,-0x14(%ebp)
c0102c57:	eb 2f                	jmp    c0102c88 <mm_allocateFrame+0x177>
c0102c59:	a1 6c 91 1d c0       	mov    0xc01d916c,%eax
c0102c5e:	3d 90 dc 23 c0       	cmp    $0xc023dc90,%eax
c0102c63:	75 0c                	jne    c0102c71 <mm_allocateFrame+0x160>
c0102c65:	c7 04 24 87 c9 16 c0 	movl   $0xc016c987,(%esp)
c0102c6c:	e8 6f 4d 00 00       	call   c01079e0 <panic>
c0102c71:	a1 6c 91 1d c0       	mov    0xc01d916c,%eax
c0102c76:	83 e8 04             	sub    $0x4,%eax
c0102c79:	a3 6c 91 1d c0       	mov    %eax,0xc01d916c
c0102c7e:	a1 6c 91 1d c0       	mov    0xc01d916c,%eax
c0102c83:	8b 00                	mov    (%eax),%eax
c0102c85:	89 45 ec             	mov    %eax,-0x14(%ebp)
c0102c88:	8b 45 ec             	mov    -0x14(%ebp),%eax
c0102c8b:	c9                   	leave  
c0102c8c:	c3                   	ret    

c0102c8d <mm_freeFrames>:
c0102c8d:	55                   	push   %ebp
c0102c8e:	89 e5                	mov    %esp,%ebp
c0102c90:	83 ec 18             	sub    $0x18,%esp
c0102c93:	83 7d 08 02          	cmpl   $0x2,0x8(%ebp)
c0102c97:	74 2a                	je     c0102cc3 <mm_freeFrames+0x36>
c0102c99:	83 7d 08 01          	cmpl   $0x1,0x8(%ebp)
c0102c9d:	74 24                	je     c0102cc3 <mm_freeFrames+0x36>
c0102c9f:	c7 44 24 0c a4 00 00 	movl   $0xa4,0xc(%esp)
c0102ca6:	00 
c0102ca7:	c7 44 24 08 9c c9 16 	movl   $0xc016c99c,0x8(%esp)
c0102cae:	c0 
c0102caf:	c7 44 24 04 83 c8 16 	movl   $0xc016c883,0x4(%esp)
c0102cb6:	c0 
c0102cb7:	c7 04 24 14 c9 16 c0 	movl   $0xc016c914,(%esp)
c0102cbe:	e8 1d 4d 00 00       	call   c01079e0 <panic>
c0102cc3:	83 7d 0c 00          	cmpl   $0x0,0xc(%ebp)
c0102cc7:	75 3e                	jne    c0102d07 <mm_freeFrames+0x7a>
c0102cc9:	c7 44 24 0c a5 00 00 	movl   $0xa5,0xc(%esp)
c0102cd0:	00 
c0102cd1:	c7 44 24 08 9c c9 16 	movl   $0xc016c99c,0x8(%esp)
c0102cd8:	c0 
c0102cd9:	c7 44 24 04 83 c8 16 	movl   $0xc016c883,0x4(%esp)
c0102ce0:	c0 
c0102ce1:	c7 04 24 44 c9 16 c0 	movl   $0xc016c944,(%esp)
c0102ce8:	e8 f3 4c 00 00       	call   c01079e0 <panic>
c0102ced:	eb 18                	jmp    c0102d07 <mm_freeFrames+0x7a>
c0102cef:	8b 45 0c             	mov    0xc(%ebp),%eax
c0102cf2:	8b 10                	mov    (%eax),%edx
c0102cf4:	83 45 0c 04          	addl   $0x4,0xc(%ebp)
c0102cf8:	8b 45 08             	mov    0x8(%ebp),%eax
c0102cfb:	89 44 24 04          	mov    %eax,0x4(%esp)
c0102cff:	89 14 24             	mov    %edx,(%esp)
c0102d02:	e8 11 00 00 00       	call   c0102d18 <mm_freeFrame>
c0102d07:	83 7d 10 00          	cmpl   $0x0,0x10(%ebp)
c0102d0b:	0f 95 c0             	setne  %al
c0102d0e:	83 6d 10 01          	subl   $0x1,0x10(%ebp)
c0102d12:	84 c0                	test   %al,%al
c0102d14:	75 d9                	jne    c0102cef <mm_freeFrames+0x62>
c0102d16:	c9                   	leave  
c0102d17:	c3                   	ret    

c0102d18 <mm_freeFrame>:
c0102d18:	55                   	push   %ebp
c0102d19:	89 e5                	mov    %esp,%ebp
c0102d1b:	83 ec 10             	sub    $0x10,%esp
c0102d1e:	83 7d 0c 01          	cmpl   $0x1,0xc(%ebp)
c0102d22:	75 51                	jne    c0102d75 <mm_freeFrame+0x5d>
c0102d24:	8b 45 08             	mov    0x8(%ebp),%eax
c0102d27:	c1 e8 05             	shr    $0x5,%eax
c0102d2a:	c1 e0 02             	shl    $0x2,%eax
c0102d2d:	05 80 91 1d c0       	add    $0xc01d9180,%eax
c0102d32:	89 45 fc             	mov    %eax,-0x4(%ebp)
c0102d35:	8b 45 fc             	mov    -0x4(%ebp),%eax
c0102d38:	8b 10                	mov    (%eax),%edx
c0102d3a:	8b 45 08             	mov    0x8(%ebp),%eax
c0102d3d:	89 c1                	mov    %eax,%ecx
c0102d3f:	83 e1 1f             	and    $0x1f,%ecx
c0102d42:	b8 01 00 00 00       	mov    $0x1,%eax
c0102d47:	d3 e0                	shl    %cl,%eax
c0102d49:	f7 d0                	not    %eax
c0102d4b:	21 c2                	and    %eax,%edx
c0102d4d:	8b 45 fc             	mov    -0x4(%ebp),%eax
c0102d50:	89 10                	mov    %edx,(%eax)
c0102d52:	a1 60 91 1d c0       	mov    0xc01d9160,%eax
c0102d57:	83 f8 0f             	cmp    $0xf,%eax
c0102d5a:	77 2b                	ja     c0102d87 <mm_freeFrame+0x6f>
c0102d5c:	a1 60 91 1d c0       	mov    0xc01d9160,%eax
c0102d61:	8b 55 08             	mov    0x8(%ebp),%edx
c0102d64:	89 14 85 60 93 1d c0 	mov    %edx,-0x3fe26ca0(,%eax,4)
c0102d6b:	83 c0 01             	add    $0x1,%eax
c0102d6e:	a3 60 91 1d c0       	mov    %eax,0xc01d9160
c0102d73:	eb 12                	jmp    c0102d87 <mm_freeFrame+0x6f>
c0102d75:	a1 6c 91 1d c0       	mov    0xc01d916c,%eax
c0102d7a:	8b 55 08             	mov    0x8(%ebp),%edx
c0102d7d:	89 10                	mov    %edx,(%eax)
c0102d7f:	83 c0 04             	add    $0x4,%eax
c0102d82:	a3 6c 91 1d c0       	mov    %eax,0xc01d916c
c0102d87:	c9                   	leave  
c0102d88:	c3                   	ret    

c0102d89 <mm_isFrameFree>:
c0102d89:	55                   	push   %ebp
c0102d8a:	89 e5                	mov    %esp,%ebp
c0102d8c:	83 ec 14             	sub    $0x14,%esp
c0102d8f:	83 7d 08 02          	cmpl   $0x2,0x8(%ebp)
c0102d93:	75 39                	jne    c0102dce <mm_isFrameFree+0x45>
c0102d95:	a1 6c 91 1d c0       	mov    0xc01d916c,%eax
c0102d9a:	83 e8 04             	sub    $0x4,%eax
c0102d9d:	89 45 fc             	mov    %eax,-0x4(%ebp)
c0102da0:	eb 17                	jmp    c0102db9 <mm_isFrameFree+0x30>
c0102da2:	8b 45 fc             	mov    -0x4(%ebp),%eax
c0102da5:	8b 00                	mov    (%eax),%eax
c0102da7:	3b 45 0c             	cmp    0xc(%ebp),%eax
c0102daa:	75 09                	jne    c0102db5 <mm_isFrameFree+0x2c>
c0102dac:	c7 45 ec 01 00 00 00 	movl   $0x1,-0x14(%ebp)
c0102db3:	eb 4b                	jmp    c0102e00 <mm_isFrameFree+0x77>
c0102db5:	83 6d fc 04          	subl   $0x4,-0x4(%ebp)
c0102db9:	8b 55 fc             	mov    -0x4(%ebp),%edx
c0102dbc:	b8 90 dc 23 c0       	mov    $0xc023dc90,%eax
c0102dc1:	39 c2                	cmp    %eax,%edx
c0102dc3:	77 dd                	ja     c0102da2 <mm_isFrameFree+0x19>
c0102dc5:	c7 45 ec 00 00 00 00 	movl   $0x0,-0x14(%ebp)
c0102dcc:	eb 32                	jmp    c0102e00 <mm_isFrameFree+0x77>
c0102dce:	8b 45 0c             	mov    0xc(%ebp),%eax
c0102dd1:	c1 e8 05             	shr    $0x5,%eax
c0102dd4:	c1 e0 02             	shl    $0x2,%eax
c0102dd7:	05 80 91 1d c0       	add    $0xc01d9180,%eax
c0102ddc:	89 45 fc             	mov    %eax,-0x4(%ebp)
c0102ddf:	8b 45 fc             	mov    -0x4(%ebp),%eax
c0102de2:	8b 10                	mov    (%eax),%edx
c0102de4:	8b 45 0c             	mov    0xc(%ebp),%eax
c0102de7:	89 c1                	mov    %eax,%ecx
c0102de9:	83 e1 1f             	and    $0x1f,%ecx
c0102dec:	b8 01 00 00 00       	mov    $0x1,%eax
c0102df1:	d3 e0                	shl    %cl,%eax
c0102df3:	21 d0                	and    %edx,%eax
c0102df5:	85 c0                	test   %eax,%eax
c0102df7:	0f 94 c0             	sete   %al
c0102dfa:	0f b6 c0             	movzbl %al,%eax
c0102dfd:	89 45 ec             	mov    %eax,-0x14(%ebp)
c0102e00:	8b 45 ec             	mov    -0x14(%ebp),%eax
c0102e03:	c9                   	leave  
c0102e04:	c3                   	ret    

c0102e05 <mm_markAddrRangeUsed>:
c0102e05:	55                   	push   %ebp
c0102e06:	89 e5                	mov    %esp,%ebp
c0102e08:	83 ec 08             	sub    $0x8,%esp
c0102e0b:	81 65 08 ff ef ff ff 	andl   $0xffffefff,0x8(%ebp)
c0102e12:	eb 1e                	jmp    c0102e32 <mm_markAddrRangeUsed+0x2d>
c0102e14:	8b 45 08             	mov    0x8(%ebp),%eax
c0102e17:	89 c2                	mov    %eax,%edx
c0102e19:	c1 ea 0c             	shr    $0xc,%edx
c0102e1c:	8b 45 10             	mov    0x10(%ebp),%eax
c0102e1f:	89 44 24 04          	mov    %eax,0x4(%esp)
c0102e23:	89 14 24             	mov    %edx,(%esp)
c0102e26:	e8 11 00 00 00       	call   c0102e3c <mm_markFrameUsed>
c0102e2b:	81 45 08 00 10 00 00 	addl   $0x1000,0x8(%ebp)
c0102e32:	8b 45 08             	mov    0x8(%ebp),%eax
c0102e35:	3b 45 0c             	cmp    0xc(%ebp),%eax
c0102e38:	72 da                	jb     c0102e14 <mm_markAddrRangeUsed+0xf>
c0102e3a:	c9                   	leave  
c0102e3b:	c3                   	ret    

c0102e3c <mm_markFrameUsed>:
c0102e3c:	55                   	push   %ebp
c0102e3d:	89 e5                	mov    %esp,%ebp
c0102e3f:	83 ec 10             	sub    $0x10,%esp
c0102e42:	81 7d 08 ff 0e 00 00 	cmpl   $0xeff,0x8(%ebp)
c0102e49:	77 74                	ja     c0102ebf <mm_markFrameUsed+0x83>
c0102e4b:	8b 45 08             	mov    0x8(%ebp),%eax
c0102e4e:	c1 e8 05             	shr    $0x5,%eax
c0102e51:	c1 e0 02             	shl    $0x2,%eax
c0102e54:	05 80 91 1d c0       	add    $0xc01d9180,%eax
c0102e59:	89 45 fc             	mov    %eax,-0x4(%ebp)
c0102e5c:	83 7d 0c 00          	cmpl   $0x0,0xc(%ebp)
c0102e60:	74 1d                	je     c0102e7f <mm_markFrameUsed+0x43>
c0102e62:	8b 45 fc             	mov    -0x4(%ebp),%eax
c0102e65:	8b 10                	mov    (%eax),%edx
c0102e67:	8b 45 08             	mov    0x8(%ebp),%eax
c0102e6a:	89 c1                	mov    %eax,%ecx
c0102e6c:	83 e1 1f             	and    $0x1f,%ecx
c0102e6f:	b8 01 00 00 00       	mov    $0x1,%eax
c0102e74:	d3 e0                	shl    %cl,%eax
c0102e76:	09 c2                	or     %eax,%edx
c0102e78:	8b 45 fc             	mov    -0x4(%ebp),%eax
c0102e7b:	89 10                	mov    %edx,(%eax)
c0102e7d:	eb 5e                	jmp    c0102edd <mm_markFrameUsed+0xa1>
c0102e7f:	8b 45 fc             	mov    -0x4(%ebp),%eax
c0102e82:	8b 10                	mov    (%eax),%edx
c0102e84:	8b 45 08             	mov    0x8(%ebp),%eax
c0102e87:	89 c1                	mov    %eax,%ecx
c0102e89:	83 e1 1f             	and    $0x1f,%ecx
c0102e8c:	b8 01 00 00 00       	mov    $0x1,%eax
c0102e91:	d3 e0                	shl    %cl,%eax
c0102e93:	f7 d0                	not    %eax
c0102e95:	21 c2                	and    %eax,%edx
c0102e97:	8b 45 fc             	mov    -0x4(%ebp),%eax
c0102e9a:	89 10                	mov    %edx,(%eax)
c0102e9c:	a1 60 91 1d c0       	mov    0xc01d9160,%eax
c0102ea1:	83 f8 0f             	cmp    $0xf,%eax
c0102ea4:	77 37                	ja     c0102edd <mm_markFrameUsed+0xa1>
c0102ea6:	a1 60 91 1d c0       	mov    0xc01d9160,%eax
c0102eab:	8b 55 08             	mov    0x8(%ebp),%edx
c0102eae:	89 14 85 60 93 1d c0 	mov    %edx,-0x3fe26ca0(,%eax,4)
c0102eb5:	83 c0 01             	add    $0x1,%eax
c0102eb8:	a3 60 91 1d c0       	mov    %eax,0xc01d9160
c0102ebd:	eb 1e                	jmp    c0102edd <mm_markFrameUsed+0xa1>
c0102ebf:	83 7d 0c 00          	cmpl   $0x0,0xc(%ebp)
c0102ec3:	75 18                	jne    c0102edd <mm_markFrameUsed+0xa1>
c0102ec5:	8b 15 6c 91 1d c0    	mov    0xc01d916c,%edx
c0102ecb:	8b 45 08             	mov    0x8(%ebp),%eax
c0102ece:	89 02                	mov    %eax,(%edx)
c0102ed0:	a1 6c 91 1d c0       	mov    0xc01d916c,%eax
c0102ed5:	83 c0 04             	add    $0x4,%eax
c0102ed8:	a3 6c 91 1d c0       	mov    %eax,0xc01d916c
c0102edd:	c9                   	leave  
c0102ede:	c3                   	ret    

c0102edf <mm_dbg_printFreeFrames>:
c0102edf:	55                   	push   %ebp
c0102ee0:	89 e5                	mov    %esp,%ebp
c0102ee2:	83 ec 28             	sub    $0x28,%esp
c0102ee5:	c7 45 f8 00 00 00 00 	movl   $0x0,-0x8(%ebp)
c0102eec:	c7 45 f4 00 00 00 00 	movl   $0x0,-0xc(%ebp)
c0102ef3:	eb 46                	jmp    c0102f3b <mm_dbg_printFreeFrames+0x5c>
c0102ef5:	8b 45 f4             	mov    -0xc(%ebp),%eax
c0102ef8:	8b 04 85 80 91 1d c0 	mov    -0x3fe26e80(,%eax,4),%eax
c0102eff:	85 c0                	test   %eax,%eax
c0102f01:	74 2d                	je     c0102f30 <mm_dbg_printFreeFrames+0x51>
c0102f03:	8b 45 f4             	mov    -0xc(%ebp),%eax
c0102f06:	8b 14 85 80 91 1d c0 	mov    -0x3fe26e80(,%eax,4),%edx
c0102f0d:	8b 45 f8             	mov    -0x8(%ebp),%eax
c0102f10:	05 ff ff 01 00       	add    $0x1ffff,%eax
c0102f15:	89 54 24 0c          	mov    %edx,0xc(%esp)
c0102f19:	89 44 24 08          	mov    %eax,0x8(%esp)
c0102f1d:	8b 45 f8             	mov    -0x8(%ebp),%eax
c0102f20:	89 44 24 04          	mov    %eax,0x4(%esp)
c0102f24:	c7 04 24 aa c9 16 c0 	movl   $0xc016c9aa,(%esp)
c0102f2b:	e8 15 85 00 00       	call   c010b445 <vid_printf>
c0102f30:	81 45 f8 00 00 02 00 	addl   $0x20000,-0x8(%ebp)
c0102f37:	83 45 f4 01          	addl   $0x1,-0xc(%ebp)
c0102f3b:	83 7d f4 77          	cmpl   $0x77,-0xc(%ebp)
c0102f3f:	76 b4                	jbe    c0102ef5 <mm_dbg_printFreeFrames+0x16>
c0102f41:	c7 04 24 bd c9 16 c0 	movl   $0xc016c9bd,(%esp)
c0102f48:	e8 f8 84 00 00       	call   c010b445 <vid_printf>
c0102f4d:	c7 45 f4 00 00 00 00 	movl   $0x0,-0xc(%ebp)
c0102f54:	eb 35                	jmp    c0102f8b <mm_dbg_printFreeFrames+0xac>
c0102f56:	8b 45 f4             	mov    -0xc(%ebp),%eax
c0102f59:	8b 04 85 60 93 1d c0 	mov    -0x3fe26ca0(,%eax,4),%eax
c0102f60:	89 44 24 04          	mov    %eax,0x4(%esp)
c0102f64:	c7 04 24 d1 c9 16 c0 	movl   $0xc016c9d1,(%esp)
c0102f6b:	e8 d5 84 00 00       	call   c010b445 <vid_printf>
c0102f70:	8b 45 f4             	mov    -0xc(%ebp),%eax
c0102f73:	83 e0 03             	and    $0x3,%eax
c0102f76:	83 f8 03             	cmp    $0x3,%eax
c0102f79:	75 0c                	jne    c0102f87 <mm_dbg_printFreeFrames+0xa8>
c0102f7b:	c7 04 24 da c9 16 c0 	movl   $0xc016c9da,(%esp)
c0102f82:	e8 be 84 00 00       	call   c010b445 <vid_printf>
c0102f87:	83 45 f4 01          	addl   $0x1,-0xc(%ebp)
c0102f8b:	a1 60 91 1d c0       	mov    0xc01d9160,%eax
c0102f90:	39 45 f4             	cmp    %eax,-0xc(%ebp)
c0102f93:	72 c1                	jb     c0102f56 <mm_dbg_printFreeFrames+0x77>
c0102f95:	c7 04 24 dc c9 16 c0 	movl   $0xc016c9dc,(%esp)
c0102f9c:	e8 a4 84 00 00       	call   c010b445 <vid_printf>
c0102fa1:	c7 45 f4 00 00 00 00 	movl   $0x0,-0xc(%ebp)
c0102fa8:	a1 6c 91 1d c0       	mov    0xc01d916c,%eax
c0102fad:	83 e8 04             	sub    $0x4,%eax
c0102fb0:	89 45 fc             	mov    %eax,-0x4(%ebp)
c0102fb3:	eb 34                	jmp    c0102fe9 <mm_dbg_printFreeFrames+0x10a>
c0102fb5:	8b 45 fc             	mov    -0x4(%ebp),%eax
c0102fb8:	8b 00                	mov    (%eax),%eax
c0102fba:	89 44 24 04          	mov    %eax,0x4(%esp)
c0102fbe:	c7 04 24 d1 c9 16 c0 	movl   $0xc016c9d1,(%esp)
c0102fc5:	e8 7b 84 00 00       	call   c010b445 <vid_printf>
c0102fca:	8b 45 f4             	mov    -0xc(%ebp),%eax
c0102fcd:	83 e0 03             	and    $0x3,%eax
c0102fd0:	83 f8 03             	cmp    $0x3,%eax
c0102fd3:	75 0c                	jne    c0102fe1 <mm_dbg_printFreeFrames+0x102>
c0102fd5:	c7 04 24 da c9 16 c0 	movl   $0xc016c9da,(%esp)
c0102fdc:	e8 64 84 00 00       	call   c010b445 <vid_printf>
c0102fe1:	83 45 f4 01          	addl   $0x1,-0xc(%ebp)
c0102fe5:	83 6d fc 04          	subl   $0x4,-0x4(%ebp)
c0102fe9:	81 7d fc 90 dc 23 c0 	cmpl   $0xc023dc90,-0x4(%ebp)
c0102ff0:	73 c3                	jae    c0102fb5 <mm_dbg_printFreeFrames+0xd6>
c0102ff2:	c9                   	leave  
c0102ff3:	c3                   	ret    

c0102ff4 <mboot_init>:
c0102ff4:	55                   	push   %ebp
c0102ff5:	89 e5                	mov    %esp,%ebp
c0102ff7:	8b 45 08             	mov    0x8(%ebp),%eax
c0102ffa:	0d 00 00 00 c0       	or     $0xc0000000,%eax
c0102fff:	a3 0c f0 16 c0       	mov    %eax,0xc016f00c
c0103004:	8b 15 0c f0 16 c0    	mov    0xc016f00c,%edx
c010300a:	a1 0c f0 16 c0       	mov    0xc016f00c,%eax
c010300f:	8b 40 10             	mov    0x10(%eax),%eax
c0103012:	0d 00 00 00 c0       	or     $0xc0000000,%eax
c0103017:	89 42 10             	mov    %eax,0x10(%edx)
c010301a:	8b 15 0c f0 16 c0    	mov    0xc016f00c,%edx
c0103020:	a1 0c f0 16 c0       	mov    0xc016f00c,%eax
c0103025:	8b 40 18             	mov    0x18(%eax),%eax
c0103028:	0d 00 00 00 c0       	or     $0xc0000000,%eax
c010302d:	89 42 18             	mov    %eax,0x18(%edx)
c0103030:	8b 15 0c f0 16 c0    	mov    0xc016f00c,%edx
c0103036:	a1 0c f0 16 c0       	mov    0xc016f00c,%eax
c010303b:	8b 40 30             	mov    0x30(%eax),%eax
c010303e:	0d 00 00 00 c0       	or     $0xc0000000,%eax
c0103043:	89 42 30             	mov    %eax,0x30(%edx)
c0103046:	5d                   	pop    %ebp
c0103047:	c3                   	ret    

c0103048 <mboot_getUsableMemCount>:
c0103048:	55                   	push   %ebp
c0103049:	89 e5                	mov    %esp,%ebp
c010304b:	83 ec 10             	sub    $0x10,%esp
c010304e:	c7 45 fc 00 00 00 00 	movl   $0x0,-0x4(%ebp)
c0103055:	a1 0c f0 16 c0       	mov    0xc016f00c,%eax
c010305a:	8b 40 30             	mov    0x30(%eax),%eax
c010305d:	89 45 f8             	mov    %eax,-0x8(%ebp)
c0103060:	eb 28                	jmp    c010308a <mboot_getUsableMemCount+0x42>
c0103062:	83 7d f8 00          	cmpl   $0x0,-0x8(%ebp)
c0103066:	74 17                	je     c010307f <mboot_getUsableMemCount+0x37>
c0103068:	8b 45 f8             	mov    -0x8(%ebp),%eax
c010306b:	8b 40 14             	mov    0x14(%eax),%eax
c010306e:	83 f8 01             	cmp    $0x1,%eax
c0103071:	75 0c                	jne    c010307f <mboot_getUsableMemCount+0x37>
c0103073:	8b 45 f8             	mov    -0x8(%ebp),%eax
c0103076:	8b 50 10             	mov    0x10(%eax),%edx
c0103079:	8b 40 0c             	mov    0xc(%eax),%eax
c010307c:	01 45 fc             	add    %eax,-0x4(%ebp)
c010307f:	8b 45 f8             	mov    -0x8(%ebp),%eax
c0103082:	8b 00                	mov    (%eax),%eax
c0103084:	83 c0 04             	add    $0x4,%eax
c0103087:	01 45 f8             	add    %eax,-0x8(%ebp)
c010308a:	8b 4d f8             	mov    -0x8(%ebp),%ecx
c010308d:	a1 0c f0 16 c0       	mov    0xc016f00c,%eax
c0103092:	8b 50 30             	mov    0x30(%eax),%edx
c0103095:	a1 0c f0 16 c0       	mov    0xc016f00c,%eax
c010309a:	8b 40 2c             	mov    0x2c(%eax),%eax
c010309d:	8d 04 02             	lea    (%edx,%eax,1),%eax
c01030a0:	39 c1                	cmp    %eax,%ecx
c01030a2:	72 be                	jb     c0103062 <mboot_getUsableMemCount+0x1a>
c01030a4:	8b 45 fc             	mov    -0x4(%ebp),%eax
c01030a7:	c9                   	leave  
c01030a8:	c3                   	ret    

c01030a9 <mboot_dbg_print>:
c01030a9:	55                   	push   %ebp
c01030aa:	89 e5                	mov    %esp,%ebp
c01030ac:	53                   	push   %ebx
c01030ad:	83 ec 24             	sub    $0x24,%esp
c01030b0:	a1 0c f0 16 c0       	mov    0xc016f00c,%eax
c01030b5:	8b 00                	mov    (%eax),%eax
c01030b7:	89 44 24 04          	mov    %eax,0x4(%esp)
c01030bb:	c7 04 24 f4 c9 16 c0 	movl   $0xc016c9f4,(%esp)
c01030c2:	e8 7e 83 00 00       	call   c010b445 <vid_printf>
c01030c7:	a1 0c f0 16 c0       	mov    0xc016f00c,%eax
c01030cc:	8b 00                	mov    (%eax),%eax
c01030ce:	83 e0 01             	and    $0x1,%eax
c01030d1:	84 c0                	test   %al,%al
c01030d3:	74 24                	je     c01030f9 <mboot_dbg_print+0x50>
c01030d5:	a1 0c f0 16 c0       	mov    0xc016f00c,%eax
c01030da:	8b 50 08             	mov    0x8(%eax),%edx
c01030dd:	a1 0c f0 16 c0       	mov    0xc016f00c,%eax
c01030e2:	8b 40 04             	mov    0x4(%eax),%eax
c01030e5:	89 54 24 08          	mov    %edx,0x8(%esp)
c01030e9:	89 44 24 04          	mov    %eax,0x4(%esp)
c01030ed:	c7 04 24 2c ca 16 c0 	movl   $0xc016ca2c,(%esp)
c01030f4:	e8 4c 83 00 00       	call   c010b445 <vid_printf>
c01030f9:	a1 0c f0 16 c0       	mov    0xc016f00c,%eax
c01030fe:	8b 00                	mov    (%eax),%eax
c0103100:	83 e0 02             	and    $0x2,%eax
c0103103:	85 c0                	test   %eax,%eax
c0103105:	74 4c                	je     c0103153 <mboot_dbg_print+0xaa>
c0103107:	a1 0c f0 16 c0       	mov    0xc016f00c,%eax
c010310c:	0f b6 40 0c          	movzbl 0xc(%eax),%eax
c0103110:	0f be d0             	movsbl %al,%edx
c0103113:	a1 0c f0 16 c0       	mov    0xc016f00c,%eax
c0103118:	0f b6 40 0d          	movzbl 0xd(%eax),%eax
c010311c:	0f be c8             	movsbl %al,%ecx
c010311f:	a1 0c f0 16 c0       	mov    0xc016f00c,%eax
c0103124:	0f b6 40 0e          	movzbl 0xe(%eax),%eax
c0103128:	0f be d8             	movsbl %al,%ebx
c010312b:	a1 0c f0 16 c0       	mov    0xc016f00c,%eax
c0103130:	0f b6 40 0f          	movzbl 0xf(%eax),%eax
c0103134:	0f be c0             	movsbl %al,%eax
c0103137:	89 54 24 10          	mov    %edx,0x10(%esp)
c010313b:	89 4c 24 0c          	mov    %ecx,0xc(%esp)
c010313f:	89 5c 24 08          	mov    %ebx,0x8(%esp)
c0103143:	89 44 24 04          	mov    %eax,0x4(%esp)
c0103147:	c7 04 24 4c ca 16 c0 	movl   $0xc016ca4c,(%esp)
c010314e:	e8 f2 82 00 00       	call   c010b445 <vid_printf>
c0103153:	a1 0c f0 16 c0       	mov    0xc016f00c,%eax
c0103158:	8b 00                	mov    (%eax),%eax
c010315a:	83 e0 04             	and    $0x4,%eax
c010315d:	85 c0                	test   %eax,%eax
c010315f:	74 18                	je     c0103179 <mboot_dbg_print+0xd0>
c0103161:	a1 0c f0 16 c0       	mov    0xc016f00c,%eax
c0103166:	8b 40 10             	mov    0x10(%eax),%eax
c0103169:	89 44 24 04          	mov    %eax,0x4(%esp)
c010316d:	c7 04 24 7e ca 16 c0 	movl   $0xc016ca7e,(%esp)
c0103174:	e8 cc 82 00 00       	call   c010b445 <vid_printf>
c0103179:	a1 0c f0 16 c0       	mov    0xc016f00c,%eax
c010317e:	8b 00                	mov    (%eax),%eax
c0103180:	83 e0 08             	and    $0x8,%eax
c0103183:	85 c0                	test   %eax,%eax
c0103185:	74 24                	je     c01031ab <mboot_dbg_print+0x102>
c0103187:	a1 0c f0 16 c0       	mov    0xc016f00c,%eax
c010318c:	8b 50 18             	mov    0x18(%eax),%edx
c010318f:	a1 0c f0 16 c0       	mov    0xc016f00c,%eax
c0103194:	8b 40 14             	mov    0x14(%eax),%eax
c0103197:	89 54 24 08          	mov    %edx,0x8(%esp)
c010319b:	89 44 24 04          	mov    %eax,0x4(%esp)
c010319f:	c7 04 24 8a ca 16 c0 	movl   $0xc016ca8a,(%esp)
c01031a6:	e8 9a 82 00 00       	call   c010b445 <vid_printf>
c01031ab:	a1 0c f0 16 c0       	mov    0xc016f00c,%eax
c01031b0:	8b 00                	mov    (%eax),%eax
c01031b2:	83 e0 10             	and    $0x10,%eax
c01031b5:	85 c0                	test   %eax,%eax
c01031b7:	74 32                	je     c01031eb <mboot_dbg_print+0x142>
c01031b9:	a1 0c f0 16 c0       	mov    0xc016f00c,%eax
c01031be:	8b 50 24             	mov    0x24(%eax),%edx
c01031c1:	a1 0c f0 16 c0       	mov    0xc016f00c,%eax
c01031c6:	8b 48 20             	mov    0x20(%eax),%ecx
c01031c9:	a1 0c f0 16 c0       	mov    0xc016f00c,%eax
c01031ce:	8b 40 1c             	mov    0x1c(%eax),%eax
c01031d1:	89 54 24 0c          	mov    %edx,0xc(%esp)
c01031d5:	89 4c 24 08          	mov    %ecx,0x8(%esp)
c01031d9:	89 44 24 04          	mov    %eax,0x4(%esp)
c01031dd:	c7 04 24 a8 ca 16 c0 	movl   $0xc016caa8,(%esp)
c01031e4:	e8 5c 82 00 00       	call   c010b445 <vid_printf>
c01031e9:	eb 4a                	jmp    c0103235 <mboot_dbg_print+0x18c>
c01031eb:	a1 0c f0 16 c0       	mov    0xc016f00c,%eax
c01031f0:	8b 00                	mov    (%eax),%eax
c01031f2:	83 e0 20             	and    $0x20,%eax
c01031f5:	85 c0                	test   %eax,%eax
c01031f7:	74 3c                	je     c0103235 <mboot_dbg_print+0x18c>
c01031f9:	a1 0c f0 16 c0       	mov    0xc016f00c,%eax
c01031fe:	8b 48 28             	mov    0x28(%eax),%ecx
c0103201:	a1 0c f0 16 c0       	mov    0xc016f00c,%eax
c0103206:	8b 58 24             	mov    0x24(%eax),%ebx
c0103209:	a1 0c f0 16 c0       	mov    0xc016f00c,%eax
c010320e:	8b 50 20             	mov    0x20(%eax),%edx
c0103211:	a1 0c f0 16 c0       	mov    0xc016f00c,%eax
c0103216:	8b 40 1c             	mov    0x1c(%eax),%eax
c0103219:	89 4c 24 10          	mov    %ecx,0x10(%esp)
c010321d:	89 5c 24 0c          	mov    %ebx,0xc(%esp)
c0103221:	89 54 24 08          	mov    %edx,0x8(%esp)
c0103225:	89 44 24 04          	mov    %eax,0x4(%esp)
c0103229:	c7 04 24 d4 ca 16 c0 	movl   $0xc016cad4,(%esp)
c0103230:	e8 10 82 00 00       	call   c010b445 <vid_printf>
c0103235:	a1 0c f0 16 c0       	mov    0xc016f00c,%eax
c010323a:	8b 00                	mov    (%eax),%eax
c010323c:	83 e0 40             	and    $0x40,%eax
c010323f:	85 c0                	test   %eax,%eax
c0103241:	0f 84 b7 00 00 00    	je     c01032fe <mboot_dbg_print+0x255>
c0103247:	a1 0c f0 16 c0       	mov    0xc016f00c,%eax
c010324c:	8b 50 30             	mov    0x30(%eax),%edx
c010324f:	a1 0c f0 16 c0       	mov    0xc016f00c,%eax
c0103254:	8b 40 2c             	mov    0x2c(%eax),%eax
c0103257:	89 54 24 08          	mov    %edx,0x8(%esp)
c010325b:	89 44 24 04          	mov    %eax,0x4(%esp)
c010325f:	c7 04 24 01 cb 16 c0 	movl   $0xc016cb01,(%esp)
c0103266:	e8 da 81 00 00       	call   c010b445 <vid_printf>
c010326b:	c7 04 24 1f cb 16 c0 	movl   $0xc016cb1f,(%esp)
c0103272:	e8 ce 81 00 00       	call   c010b445 <vid_printf>
c0103277:	c7 45 f4 00 00 00 00 	movl   $0x0,-0xc(%ebp)
c010327e:	a1 0c f0 16 c0       	mov    0xc016f00c,%eax
c0103283:	8b 40 30             	mov    0x30(%eax),%eax
c0103286:	89 45 f8             	mov    %eax,-0x8(%ebp)
c0103289:	eb 59                	jmp    c01032e4 <mboot_dbg_print+0x23b>
c010328b:	83 7d f8 00          	cmpl   $0x0,-0x8(%ebp)
c010328f:	74 48                	je     c01032d9 <mboot_dbg_print+0x230>
c0103291:	8b 45 f8             	mov    -0x8(%ebp),%eax
c0103294:	8b 40 14             	mov    0x14(%eax),%eax
c0103297:	83 f8 01             	cmp    $0x1,%eax
c010329a:	75 3d                	jne    c01032d9 <mboot_dbg_print+0x230>
c010329c:	8b 45 f8             	mov    -0x8(%ebp),%eax
c010329f:	8b 58 14             	mov    0x14(%eax),%ebx
c01032a2:	8b 45 f8             	mov    -0x8(%ebp),%eax
c01032a5:	8b 50 10             	mov    0x10(%eax),%edx
c01032a8:	8b 40 0c             	mov    0xc(%eax),%eax
c01032ab:	89 c1                	mov    %eax,%ecx
c01032ad:	8b 45 f8             	mov    -0x8(%ebp),%eax
c01032b0:	8b 50 08             	mov    0x8(%eax),%edx
c01032b3:	8b 40 04             	mov    0x4(%eax),%eax
c01032b6:	89 5c 24 10          	mov    %ebx,0x10(%esp)
c01032ba:	89 4c 24 0c          	mov    %ecx,0xc(%esp)
c01032be:	89 44 24 08          	mov    %eax,0x8(%esp)
c01032c2:	8b 45 f4             	mov    -0xc(%ebp),%eax
c01032c5:	89 44 24 04          	mov    %eax,0x4(%esp)
c01032c9:	c7 04 24 34 cb 16 c0 	movl   $0xc016cb34,(%esp)
c01032d0:	e8 70 81 00 00       	call   c010b445 <vid_printf>
c01032d5:	83 45 f4 01          	addl   $0x1,-0xc(%ebp)
c01032d9:	8b 45 f8             	mov    -0x8(%ebp),%eax
c01032dc:	8b 00                	mov    (%eax),%eax
c01032de:	83 c0 04             	add    $0x4,%eax
c01032e1:	01 45 f8             	add    %eax,-0x8(%ebp)
c01032e4:	8b 4d f8             	mov    -0x8(%ebp),%ecx
c01032e7:	a1 0c f0 16 c0       	mov    0xc016f00c,%eax
c01032ec:	8b 50 30             	mov    0x30(%eax),%edx
c01032ef:	a1 0c f0 16 c0       	mov    0xc016f00c,%eax
c01032f4:	8b 40 2c             	mov    0x2c(%eax),%eax
c01032f7:	8d 04 02             	lea    (%edx,%eax,1),%eax
c01032fa:	39 c1                	cmp    %eax,%ecx
c01032fc:	72 8d                	jb     c010328b <mboot_dbg_print+0x1e2>
c01032fe:	c7 04 24 60 cb 16 c0 	movl   $0xc016cb60,(%esp)
c0103305:	e8 3b 81 00 00       	call   c010b445 <vid_printf>
c010330a:	83 c4 24             	add    $0x24,%esp
c010330d:	5b                   	pop    %ebx
c010330e:	5d                   	pop    %ebp
c010330f:	c3                   	ret    

c0103310 <paging_init>:
c0103310:	55                   	push   %ebp
c0103311:	89 e5                	mov    %esp,%ebp
c0103313:	83 ec 28             	sub    $0x28,%esp
c0103316:	c7 45 e8 00 10 17 00 	movl   $0x171000,-0x18(%ebp)
c010331d:	c7 45 f0 00 00 17 00 	movl   $0x170000,-0x10(%ebp)
c0103324:	c7 45 f8 00 00 00 00 	movl   $0x0,-0x8(%ebp)
c010332b:	c7 45 fc 00 e0 3f 00 	movl   $0x3fe000,-0x4(%ebp)
c0103332:	c7 45 f4 00 00 00 00 	movl   $0x0,-0xc(%ebp)
c0103339:	eb 5d                	jmp    c0103398 <paging_init+0x88>
c010333b:	8b 4d f4             	mov    -0xc(%ebp),%ecx
c010333e:	8b 45 f8             	mov    -0x8(%ebp),%eax
c0103341:	c1 e8 0c             	shr    $0xc,%eax
c0103344:	25 ff ff 0f 00       	and    $0xfffff,%eax
c0103349:	89 c2                	mov    %eax,%edx
c010334b:	c1 e2 0c             	shl    $0xc,%edx
c010334e:	8b 04 8d 00 00 17 c0 	mov    -0x3fe90000(,%ecx,4),%eax
c0103355:	25 ff 0f 00 00       	and    $0xfff,%eax
c010335a:	09 d0                	or     %edx,%eax
c010335c:	89 04 8d 00 00 17 c0 	mov    %eax,-0x3fe90000(,%ecx,4)
c0103363:	8b 55 f4             	mov    -0xc(%ebp),%edx
c0103366:	0f b6 04 95 00 00 17 	movzbl -0x3fe90000(,%edx,4),%eax
c010336d:	c0 
c010336e:	83 c8 01             	or     $0x1,%eax
c0103371:	88 04 95 00 00 17 c0 	mov    %al,-0x3fe90000(,%edx,4)
c0103378:	8b 55 f4             	mov    -0xc(%ebp),%edx
c010337b:	0f b6 04 95 00 00 17 	movzbl -0x3fe90000(,%edx,4),%eax
c0103382:	c0 
c0103383:	83 c8 02             	or     $0x2,%eax
c0103386:	88 04 95 00 00 17 c0 	mov    %al,-0x3fe90000(,%edx,4)
c010338d:	83 45 f4 01          	addl   $0x1,-0xc(%ebp)
c0103391:	81 45 f8 00 10 00 00 	addl   $0x1000,-0x8(%ebp)
c0103398:	8b 45 f8             	mov    -0x8(%ebp),%eax
c010339b:	3b 45 fc             	cmp    -0x4(%ebp),%eax
c010339e:	72 9b                	jb     c010333b <paging_init+0x2b>
c01033a0:	c7 45 ec 00 1c 17 c0 	movl   $0xc0171c00,-0x14(%ebp)
c01033a7:	8b 45 f0             	mov    -0x10(%ebp),%eax
c01033aa:	c1 e8 0c             	shr    $0xc,%eax
c01033ad:	25 ff ff 0f 00       	and    $0xfffff,%eax
c01033b2:	8b 55 ec             	mov    -0x14(%ebp),%edx
c01033b5:	89 c1                	mov    %eax,%ecx
c01033b7:	c1 e1 0c             	shl    $0xc,%ecx
c01033ba:	8b 02                	mov    (%edx),%eax
c01033bc:	25 ff 0f 00 00       	and    $0xfff,%eax
c01033c1:	09 c8                	or     %ecx,%eax
c01033c3:	89 02                	mov    %eax,(%edx)
c01033c5:	8b 55 ec             	mov    -0x14(%ebp),%edx
c01033c8:	0f b6 02             	movzbl (%edx),%eax
c01033cb:	83 c8 01             	or     $0x1,%eax
c01033ce:	88 02                	mov    %al,(%edx)
c01033d0:	8b 55 ec             	mov    -0x14(%ebp),%edx
c01033d3:	0f b6 02             	movzbl (%edx),%eax
c01033d6:	83 c8 02             	or     $0x2,%eax
c01033d9:	88 02                	mov    %al,(%edx)
c01033db:	c7 45 ec 00 10 17 c0 	movl   $0xc0171000,-0x14(%ebp)
c01033e2:	8b 45 f0             	mov    -0x10(%ebp),%eax
c01033e5:	c1 e8 0c             	shr    $0xc,%eax
c01033e8:	25 ff ff 0f 00       	and    $0xfffff,%eax
c01033ed:	8b 55 ec             	mov    -0x14(%ebp),%edx
c01033f0:	89 c1                	mov    %eax,%ecx
c01033f2:	c1 e1 0c             	shl    $0xc,%ecx
c01033f5:	8b 02                	mov    (%edx),%eax
c01033f7:	25 ff 0f 00 00       	and    $0xfff,%eax
c01033fc:	09 c8                	or     %ecx,%eax
c01033fe:	89 02                	mov    %eax,(%edx)
c0103400:	8b 55 ec             	mov    -0x14(%ebp),%edx
c0103403:	0f b6 02             	movzbl (%edx),%eax
c0103406:	83 c8 01             	or     $0x1,%eax
c0103409:	88 02                	mov    %al,(%edx)
c010340b:	8b 55 ec             	mov    -0x14(%ebp),%edx
c010340e:	0f b6 02             	movzbl (%edx),%eax
c0103411:	83 c8 02             	or     $0x2,%eax
c0103414:	88 02                	mov    %al,(%edx)
c0103416:	c7 45 f0 fc 0f 17 c0 	movl   $0xc0170ffc,-0x10(%ebp)
c010341d:	8b 45 e8             	mov    -0x18(%ebp),%eax
c0103420:	c1 e8 0c             	shr    $0xc,%eax
c0103423:	25 ff ff 0f 00       	and    $0xfffff,%eax
c0103428:	8b 55 f0             	mov    -0x10(%ebp),%edx
c010342b:	89 c1                	mov    %eax,%ecx
c010342d:	c1 e1 0c             	shl    $0xc,%ecx
c0103430:	8b 02                	mov    (%edx),%eax
c0103432:	25 ff 0f 00 00       	and    $0xfff,%eax
c0103437:	09 c8                	or     %ecx,%eax
c0103439:	89 02                	mov    %eax,(%edx)
c010343b:	8b 55 f0             	mov    -0x10(%ebp),%edx
c010343e:	0f b6 02             	movzbl (%edx),%eax
c0103441:	83 c8 01             	or     $0x1,%eax
c0103444:	88 02                	mov    %al,(%edx)
c0103446:	8b 55 f0             	mov    -0x10(%ebp),%edx
c0103449:	0f b6 02             	movzbl (%edx),%eax
c010344c:	83 c8 02             	or     $0x2,%eax
c010344f:	88 02                	mov    %al,(%edx)
c0103451:	c7 45 ec fc 1f 17 c0 	movl   $0xc0171ffc,-0x14(%ebp)
c0103458:	8b 45 e8             	mov    -0x18(%ebp),%eax
c010345b:	c1 e8 0c             	shr    $0xc,%eax
c010345e:	25 ff ff 0f 00       	and    $0xfffff,%eax
c0103463:	8b 55 ec             	mov    -0x14(%ebp),%edx
c0103466:	89 c1                	mov    %eax,%ecx
c0103468:	c1 e1 0c             	shl    $0xc,%ecx
c010346b:	8b 02                	mov    (%edx),%eax
c010346d:	25 ff 0f 00 00       	and    $0xfff,%eax
c0103472:	09 c8                	or     %ecx,%eax
c0103474:	89 02                	mov    %eax,(%edx)
c0103476:	8b 55 ec             	mov    -0x14(%ebp),%edx
c0103479:	0f b6 02             	movzbl (%edx),%eax
c010347c:	83 c8 01             	or     $0x1,%eax
c010347f:	88 02                	mov    %al,(%edx)
c0103481:	8b 55 ec             	mov    -0x14(%ebp),%edx
c0103484:	0f b6 02             	movzbl (%edx),%eax
c0103487:	83 c8 02             	or     $0x2,%eax
c010348a:	88 02                	mov    %al,(%edx)
c010348c:	8b 45 e8             	mov    -0x18(%ebp),%eax
c010348f:	89 04 24             	mov    %eax,(%esp)
c0103492:	e8 e0 cc ff ff       	call   c0100177 <paging_exchangePDir>
c0103497:	e8 c2 cc ff ff       	call   c010015e <paging_enable>
c010349c:	c9                   	leave  
c010349d:	c3                   	ret    

c010349e <paging_mapHigherHalf>:
c010349e:	55                   	push   %ebp
c010349f:	89 e5                	mov    %esp,%ebp
c01034a1:	83 ec 28             	sub    $0x28,%esp
c01034a4:	c7 45 f0 00 00 40 c0 	movl   $0xc0400000,-0x10(%ebp)
c01034ab:	c7 45 f4 00 00 40 ff 	movl   $0xff400000,-0xc(%ebp)
c01034b2:	8b 45 f0             	mov    -0x10(%ebp),%eax
c01034b5:	c1 e8 16             	shr    $0x16,%eax
c01034b8:	c1 e0 02             	shl    $0x2,%eax
c01034bb:	05 00 10 17 c0       	add    $0xc0171000,%eax
c01034c0:	89 45 f8             	mov    %eax,-0x8(%ebp)
c01034c3:	eb 73                	jmp    c0103538 <paging_mapHigherHalf+0x9a>
c01034c5:	c7 04 24 02 00 00 00 	movl   $0x2,(%esp)
c01034cc:	e8 40 f6 ff ff       	call   c0102b11 <mm_allocateFrame>
c01034d1:	89 45 fc             	mov    %eax,-0x4(%ebp)
c01034d4:	8b 45 fc             	mov    -0x4(%ebp),%eax
c01034d7:	25 ff ff 0f 00       	and    $0xfffff,%eax
c01034dc:	8b 55 f8             	mov    -0x8(%ebp),%edx
c01034df:	89 c1                	mov    %eax,%ecx
c01034e1:	c1 e1 0c             	shl    $0xc,%ecx
c01034e4:	8b 02                	mov    (%edx),%eax
c01034e6:	25 ff 0f 00 00       	and    $0xfff,%eax
c01034eb:	09 c8                	or     %ecx,%eax
c01034ed:	89 02                	mov    %eax,(%edx)
c01034ef:	8b 55 f8             	mov    -0x8(%ebp),%edx
c01034f2:	0f b6 02             	movzbl (%edx),%eax
c01034f5:	83 c8 01             	or     $0x1,%eax
c01034f8:	88 02                	mov    %al,(%edx)
c01034fa:	8b 55 f8             	mov    -0x8(%ebp),%edx
c01034fd:	0f b6 02             	movzbl (%edx),%eax
c0103500:	83 c8 02             	or     $0x2,%eax
c0103503:	88 02                	mov    %al,(%edx)
c0103505:	8b 45 f0             	mov    -0x10(%ebp),%eax
c0103508:	25 00 f0 ff ff       	and    $0xfffff000,%eax
c010350d:	c1 e8 0a             	shr    $0xa,%eax
c0103510:	2d 00 00 40 00       	sub    $0x400000,%eax
c0103515:	c7 44 24 08 00 10 00 	movl   $0x1000,0x8(%esp)
c010351c:	00 
c010351d:	c7 44 24 04 00 00 00 	movl   $0x0,0x4(%esp)
c0103524:	00 
c0103525:	89 04 24             	mov    %eax,(%esp)
c0103528:	e8 65 8d 00 00       	call   c010c292 <memset>
c010352d:	83 45 f8 04          	addl   $0x4,-0x8(%ebp)
c0103531:	81 45 f0 00 00 40 00 	addl   $0x400000,-0x10(%ebp)
c0103538:	8b 45 f0             	mov    -0x10(%ebp),%eax
c010353b:	3b 45 f4             	cmp    -0xc(%ebp),%eax
c010353e:	72 85                	jb     c01034c5 <paging_mapHigherHalf+0x27>
c0103540:	c9                   	leave  
c0103541:	c3                   	ret    

c0103542 <paging_initCOWList>:
c0103542:	55                   	push   %ebp
c0103543:	89 e5                	mov    %esp,%ebp
c0103545:	83 ec 08             	sub    $0x8,%esp
c0103548:	e8 0f 83 00 00       	call   c010b85c <sll_create>
c010354d:	a3 a0 93 1d c0       	mov    %eax,0xc01d93a0
c0103552:	a1 a0 93 1d c0       	mov    0xc01d93a0,%eax
c0103557:	85 c0                	test   %eax,%eax
c0103559:	75 0c                	jne    c0103567 <paging_initCOWList+0x25>
c010355b:	c7 04 24 78 cb 16 c0 	movl   $0xc016cb78,(%esp)
c0103562:	e8 79 44 00 00       	call   c01079e0 <panic>
c0103567:	c9                   	leave  
c0103568:	c3                   	ret    

c0103569 <paging_getProc0PD>:
c0103569:	55                   	push   %ebp
c010356a:	89 e5                	mov    %esp,%ebp
c010356c:	b8 00 10 17 c0       	mov    $0xc0171000,%eax
c0103571:	5d                   	pop    %ebp
c0103572:	c3                   	ret    

c0103573 <paging_mapPageDir>:
c0103573:	55                   	push   %ebp
c0103574:	89 e5                	mov    %esp,%ebp
c0103576:	83 ec 18             	sub    $0x18,%esp
c0103579:	c7 45 f4 fc 0f f0 ff 	movl   $0xfff00ffc,-0xc(%ebp)
c0103580:	e8 db 18 00 00       	call   c0104e60 <proc_getRunning>
c0103585:	89 45 f8             	mov    %eax,-0x8(%ebp)
c0103588:	8b 45 f8             	mov    -0x8(%ebp),%eax
c010358b:	8b 40 08             	mov    0x8(%eax),%eax
c010358e:	c1 e8 0c             	shr    $0xc,%eax
c0103591:	89 45 fc             	mov    %eax,-0x4(%ebp)
c0103594:	8b 45 f4             	mov    -0xc(%ebp),%eax
c0103597:	8b 00                	mov    (%eax),%eax
c0103599:	c1 e8 0c             	shr    $0xc,%eax
c010359c:	3b 45 fc             	cmp    -0x4(%ebp),%eax
c010359f:	74 27                	je     c01035c8 <paging_mapPageDir+0x55>
c01035a1:	8b 45 fc             	mov    -0x4(%ebp),%eax
c01035a4:	25 ff ff 0f 00       	and    $0xfffff,%eax
c01035a9:	8b 55 f4             	mov    -0xc(%ebp),%edx
c01035ac:	89 c1                	mov    %eax,%ecx
c01035ae:	c1 e1 0c             	shl    $0xc,%ecx
c01035b1:	8b 02                	mov    (%edx),%eax
c01035b3:	25 ff 0f 00 00       	and    $0xfff,%eax
c01035b8:	09 c8                	or     %ecx,%eax
c01035ba:	89 02                	mov    %eax,(%edx)
c01035bc:	c7 04 24 00 f0 3f c0 	movl   $0xc03ff000,(%esp)
c01035c3:	e8 a2 cb ff ff       	call   c010016a <paging_flushAddr>
c01035c8:	c9                   	leave  
c01035c9:	c3                   	ret    

c01035ca <paging_isMapped>:
c01035ca:	55                   	push   %ebp
c01035cb:	89 e5                	mov    %esp,%ebp
c01035cd:	83 ec 10             	sub    $0x10,%esp
c01035d0:	8b 45 08             	mov    0x8(%ebp),%eax
c01035d3:	25 00 f0 ff ff       	and    $0xfffff000,%eax
c01035d8:	c1 e8 0a             	shr    $0xa,%eax
c01035db:	2d 00 00 40 00       	sub    $0x400000,%eax
c01035e0:	89 45 fc             	mov    %eax,-0x4(%ebp)
c01035e3:	8b 45 fc             	mov    -0x4(%ebp),%eax
c01035e6:	0f b6 00             	movzbl (%eax),%eax
c01035e9:	83 e0 01             	and    $0x1,%eax
c01035ec:	0f b6 c0             	movzbl %al,%eax
c01035ef:	c9                   	leave  
c01035f0:	c3                   	ret    

c01035f1 <paging_isRangeUserReadable>:
c01035f1:	55                   	push   %ebp
c01035f2:	89 e5                	mov    %esp,%ebp
c01035f4:	83 ec 18             	sub    $0x18,%esp
c01035f7:	8b 45 0c             	mov    0xc(%ebp),%eax
c01035fa:	8b 55 08             	mov    0x8(%ebp),%edx
c01035fd:	8d 04 02             	lea    (%edx,%eax,1),%eax
c0103600:	3d ff ff ff bf       	cmp    $0xbfffffff,%eax
c0103605:	76 09                	jbe    c0103610 <paging_isRangeUserReadable+0x1f>
c0103607:	c7 45 fc 00 00 00 00 	movl   $0x0,-0x4(%ebp)
c010360e:	eb 15                	jmp    c0103625 <paging_isRangeUserReadable+0x34>
c0103610:	8b 45 0c             	mov    0xc(%ebp),%eax
c0103613:	89 44 24 04          	mov    %eax,0x4(%esp)
c0103617:	8b 45 08             	mov    0x8(%ebp),%eax
c010361a:	89 04 24             	mov    %eax,(%esp)
c010361d:	e8 08 00 00 00       	call   c010362a <paging_isRangeReadable>
c0103622:	89 45 fc             	mov    %eax,-0x4(%ebp)
c0103625:	8b 45 fc             	mov    -0x4(%ebp),%eax
c0103628:	c9                   	leave  
c0103629:	c3                   	ret    

c010362a <paging_isRangeReadable>:
c010362a:	55                   	push   %ebp
c010362b:	89 e5                	mov    %esp,%ebp
c010362d:	83 ec 18             	sub    $0x18,%esp
c0103630:	e8 3e ff ff ff       	call   c0103573 <paging_mapPageDir>
c0103635:	81 65 08 00 f0 ff ff 	andl   $0xfffff000,0x8(%ebp)
c010363c:	8b 55 0c             	mov    0xc(%ebp),%edx
c010363f:	8b 45 08             	mov    0x8(%ebp),%eax
c0103642:	01 d0                	add    %edx,%eax
c0103644:	25 00 f0 ff ff       	and    $0xfffff000,%eax
c0103649:	89 45 fc             	mov    %eax,-0x4(%ebp)
c010364c:	8b 45 08             	mov    0x8(%ebp),%eax
c010364f:	25 00 f0 ff ff       	and    $0xfffff000,%eax
c0103654:	c1 e8 0a             	shr    $0xa,%eax
c0103657:	2d 00 00 40 00       	sub    $0x400000,%eax
c010365c:	89 45 f4             	mov    %eax,-0xc(%ebp)
c010365f:	eb 48                	jmp    c01036a9 <paging_isRangeReadable+0x7f>
c0103661:	8b 45 08             	mov    0x8(%ebp),%eax
c0103664:	c1 e8 16             	shr    $0x16,%eax
c0103667:	c1 e0 02             	shl    $0x2,%eax
c010366a:	2d 00 10 c0 3f       	sub    $0x3fc01000,%eax
c010366f:	89 45 f8             	mov    %eax,-0x8(%ebp)
c0103672:	8b 45 f8             	mov    -0x8(%ebp),%eax
c0103675:	0f b6 00             	movzbl (%eax),%eax
c0103678:	83 e0 01             	and    $0x1,%eax
c010367b:	84 c0                	test   %al,%al
c010367d:	75 09                	jne    c0103688 <paging_isRangeReadable+0x5e>
c010367f:	c7 45 ec 00 00 00 00 	movl   $0x0,-0x14(%ebp)
c0103686:	eb 30                	jmp    c01036b8 <paging_isRangeReadable+0x8e>
c0103688:	8b 45 f4             	mov    -0xc(%ebp),%eax
c010368b:	0f b6 00             	movzbl (%eax),%eax
c010368e:	83 e0 01             	and    $0x1,%eax
c0103691:	84 c0                	test   %al,%al
c0103693:	75 09                	jne    c010369e <paging_isRangeReadable+0x74>
c0103695:	c7 45 ec 00 00 00 00 	movl   $0x0,-0x14(%ebp)
c010369c:	eb 1a                	jmp    c01036b8 <paging_isRangeReadable+0x8e>
c010369e:	81 45 08 00 10 00 00 	addl   $0x1000,0x8(%ebp)
c01036a5:	83 45 f4 04          	addl   $0x4,-0xc(%ebp)
c01036a9:	8b 45 08             	mov    0x8(%ebp),%eax
c01036ac:	3b 45 fc             	cmp    -0x4(%ebp),%eax
c01036af:	76 b0                	jbe    c0103661 <paging_isRangeReadable+0x37>
c01036b1:	c7 45 ec 01 00 00 00 	movl   $0x1,-0x14(%ebp)
c01036b8:	8b 45 ec             	mov    -0x14(%ebp),%eax
c01036bb:	c9                   	leave  
c01036bc:	c3                   	ret    

c01036bd <paging_isRangeUserWritable>:
c01036bd:	55                   	push   %ebp
c01036be:	89 e5                	mov    %esp,%ebp
c01036c0:	83 ec 18             	sub    $0x18,%esp
c01036c3:	8b 45 0c             	mov    0xc(%ebp),%eax
c01036c6:	8b 55 08             	mov    0x8(%ebp),%edx
c01036c9:	8d 04 02             	lea    (%edx,%eax,1),%eax
c01036cc:	3d ff ff ff bf       	cmp    $0xbfffffff,%eax
c01036d1:	76 09                	jbe    c01036dc <paging_isRangeUserWritable+0x1f>
c01036d3:	c7 45 fc 00 00 00 00 	movl   $0x0,-0x4(%ebp)
c01036da:	eb 15                	jmp    c01036f1 <paging_isRangeUserWritable+0x34>
c01036dc:	8b 45 0c             	mov    0xc(%ebp),%eax
c01036df:	89 44 24 04          	mov    %eax,0x4(%esp)
c01036e3:	8b 45 08             	mov    0x8(%ebp),%eax
c01036e6:	89 04 24             	mov    %eax,(%esp)
c01036e9:	e8 08 00 00 00       	call   c01036f6 <paging_isRangeWritable>
c01036ee:	89 45 fc             	mov    %eax,-0x4(%ebp)
c01036f1:	8b 45 fc             	mov    -0x4(%ebp),%eax
c01036f4:	c9                   	leave  
c01036f5:	c3                   	ret    

c01036f6 <paging_isRangeWritable>:
c01036f6:	55                   	push   %ebp
c01036f7:	89 e5                	mov    %esp,%ebp
c01036f9:	83 ec 18             	sub    $0x18,%esp
c01036fc:	e8 72 fe ff ff       	call   c0103573 <paging_mapPageDir>
c0103701:	81 65 08 00 f0 ff ff 	andl   $0xfffff000,0x8(%ebp)
c0103708:	8b 55 0c             	mov    0xc(%ebp),%edx
c010370b:	8b 45 08             	mov    0x8(%ebp),%eax
c010370e:	01 d0                	add    %edx,%eax
c0103710:	25 00 f0 ff ff       	and    $0xfffff000,%eax
c0103715:	89 45 fc             	mov    %eax,-0x4(%ebp)
c0103718:	8b 45 08             	mov    0x8(%ebp),%eax
c010371b:	25 00 f0 ff ff       	and    $0xfffff000,%eax
c0103720:	c1 e8 0a             	shr    $0xa,%eax
c0103723:	2d 00 00 40 00       	sub    $0x400000,%eax
c0103728:	89 45 f4             	mov    %eax,-0xc(%ebp)
c010372b:	eb 79                	jmp    c01037a6 <paging_isRangeWritable+0xb0>
c010372d:	8b 45 08             	mov    0x8(%ebp),%eax
c0103730:	c1 e8 16             	shr    $0x16,%eax
c0103733:	c1 e0 02             	shl    $0x2,%eax
c0103736:	2d 00 10 c0 3f       	sub    $0x3fc01000,%eax
c010373b:	89 45 f8             	mov    %eax,-0x8(%ebp)
c010373e:	8b 45 f8             	mov    -0x8(%ebp),%eax
c0103741:	0f b6 00             	movzbl (%eax),%eax
c0103744:	83 e0 01             	and    $0x1,%eax
c0103747:	84 c0                	test   %al,%al
c0103749:	75 09                	jne    c0103754 <paging_isRangeWritable+0x5e>
c010374b:	c7 45 ec 00 00 00 00 	movl   $0x0,-0x14(%ebp)
c0103752:	eb 65                	jmp    c01037b9 <paging_isRangeWritable+0xc3>
c0103754:	8b 45 f4             	mov    -0xc(%ebp),%eax
c0103757:	0f b6 00             	movzbl (%eax),%eax
c010375a:	83 e0 01             	and    $0x1,%eax
c010375d:	84 c0                	test   %al,%al
c010375f:	75 09                	jne    c010376a <paging_isRangeWritable+0x74>
c0103761:	c7 45 ec 00 00 00 00 	movl   $0x0,-0x14(%ebp)
c0103768:	eb 4f                	jmp    c01037b9 <paging_isRangeWritable+0xc3>
c010376a:	8b 45 f4             	mov    -0xc(%ebp),%eax
c010376d:	0f b6 00             	movzbl (%eax),%eax
c0103770:	83 e0 02             	and    $0x2,%eax
c0103773:	84 c0                	test   %al,%al
c0103775:	75 24                	jne    c010379b <paging_isRangeWritable+0xa5>
c0103777:	8b 45 f4             	mov    -0xc(%ebp),%eax
c010377a:	0f b6 40 01          	movzbl 0x1(%eax),%eax
c010377e:	83 e0 02             	and    $0x2,%eax
c0103781:	84 c0                	test   %al,%al
c0103783:	74 0d                	je     c0103792 <paging_isRangeWritable+0x9c>
c0103785:	8b 45 08             	mov    0x8(%ebp),%eax
c0103788:	89 04 24             	mov    %eax,(%esp)
c010378b:	e8 51 08 00 00       	call   c0103fe1 <paging_handlePageFault>
c0103790:	eb 09                	jmp    c010379b <paging_isRangeWritable+0xa5>
c0103792:	c7 45 ec 00 00 00 00 	movl   $0x0,-0x14(%ebp)
c0103799:	eb 1e                	jmp    c01037b9 <paging_isRangeWritable+0xc3>
c010379b:	81 45 08 00 10 00 00 	addl   $0x1000,0x8(%ebp)
c01037a2:	83 45 f4 04          	addl   $0x4,-0xc(%ebp)
c01037a6:	8b 45 08             	mov    0x8(%ebp),%eax
c01037a9:	3b 45 fc             	cmp    -0x4(%ebp),%eax
c01037ac:	0f 86 7b ff ff ff    	jbe    c010372d <paging_isRangeWritable+0x37>
c01037b2:	c7 45 ec 01 00 00 00 	movl   $0x1,-0x14(%ebp)
c01037b9:	8b 45 ec             	mov    -0x14(%ebp),%eax
c01037bc:	c9                   	leave  
c01037bd:	c3                   	ret    

c01037be <paging_getFrameOf>:
c01037be:	55                   	push   %ebp
c01037bf:	89 e5                	mov    %esp,%ebp
c01037c1:	83 ec 14             	sub    $0x14,%esp
c01037c4:	8b 45 08             	mov    0x8(%ebp),%eax
c01037c7:	25 00 f0 ff ff       	and    $0xfffff000,%eax
c01037cc:	c1 e8 0a             	shr    $0xa,%eax
c01037cf:	2d 00 00 40 00       	sub    $0x400000,%eax
c01037d4:	89 45 fc             	mov    %eax,-0x4(%ebp)
c01037d7:	8b 45 fc             	mov    -0x4(%ebp),%eax
c01037da:	0f b6 00             	movzbl (%eax),%eax
c01037dd:	83 e0 01             	and    $0x1,%eax
c01037e0:	84 c0                	test   %al,%al
c01037e2:	75 09                	jne    c01037ed <paging_getFrameOf+0x2f>
c01037e4:	c7 45 ec 00 00 00 00 	movl   $0x0,-0x14(%ebp)
c01037eb:	eb 0b                	jmp    c01037f8 <paging_getFrameOf+0x3a>
c01037ed:	8b 45 fc             	mov    -0x4(%ebp),%eax
c01037f0:	8b 00                	mov    (%eax),%eax
c01037f2:	c1 e8 0c             	shr    $0xc,%eax
c01037f5:	89 45 ec             	mov    %eax,-0x14(%ebp)
c01037f8:	8b 45 ec             	mov    -0x14(%ebp),%eax
c01037fb:	c9                   	leave  
c01037fc:	c3                   	ret    

c01037fd <paging_countFramesForMap>:
c01037fd:	55                   	push   %ebp
c01037fe:	89 e5                	mov    %esp,%ebp
c0103800:	83 ec 18             	sub    $0x18,%esp
c0103803:	8b 45 0c             	mov    0xc(%ebp),%eax
c0103806:	89 45 f4             	mov    %eax,-0xc(%ebp)
c0103809:	8b 45 0c             	mov    0xc(%ebp),%eax
c010380c:	89 45 f8             	mov    %eax,-0x8(%ebp)
c010380f:	e8 5f fd ff ff       	call   c0103573 <paging_mapPageDir>
c0103814:	eb 30                	jmp    c0103846 <paging_countFramesForMap+0x49>
c0103816:	8b 45 08             	mov    0x8(%ebp),%eax
c0103819:	c1 e8 16             	shr    $0x16,%eax
c010381c:	05 00 fc 0f 30       	add    $0x300ffc00,%eax
c0103821:	c1 e0 02             	shl    $0x2,%eax
c0103824:	89 45 fc             	mov    %eax,-0x4(%ebp)
c0103827:	8b 45 fc             	mov    -0x4(%ebp),%eax
c010382a:	0f b6 00             	movzbl (%eax),%eax
c010382d:	83 e0 01             	and    $0x1,%eax
c0103830:	84 c0                	test   %al,%al
c0103832:	75 04                	jne    c0103838 <paging_countFramesForMap+0x3b>
c0103834:	83 45 f4 01          	addl   $0x1,-0xc(%ebp)
c0103838:	81 6d f8 00 04 00 00 	subl   $0x400,-0x8(%ebp)
c010383f:	81 45 08 00 00 40 00 	addl   $0x400000,0x8(%ebp)
c0103846:	83 7d f8 00          	cmpl   $0x0,-0x8(%ebp)
c010384a:	7f ca                	jg     c0103816 <paging_countFramesForMap+0x19>
c010384c:	8b 45 f4             	mov    -0xc(%ebp),%eax
c010384f:	c9                   	leave  
c0103850:	c3                   	ret    

c0103851 <paging_map>:
c0103851:	55                   	push   %ebp
c0103852:	89 e5                	mov    %esp,%ebp
c0103854:	83 ec 28             	sub    $0x28,%esp
c0103857:	8b 45 14             	mov    0x14(%ebp),%eax
c010385a:	88 45 fc             	mov    %al,-0x4(%ebp)
c010385d:	0f b6 55 fc          	movzbl -0x4(%ebp),%edx
c0103861:	8b 45 18             	mov    0x18(%ebp),%eax
c0103864:	89 44 24 18          	mov    %eax,0x18(%esp)
c0103868:	89 54 24 14          	mov    %edx,0x14(%esp)
c010386c:	8b 45 10             	mov    0x10(%ebp),%eax
c010386f:	89 44 24 10          	mov    %eax,0x10(%esp)
c0103873:	8b 45 0c             	mov    0xc(%ebp),%eax
c0103876:	89 44 24 0c          	mov    %eax,0xc(%esp)
c010387a:	8b 45 08             	mov    0x8(%ebp),%eax
c010387d:	89 44 24 08          	mov    %eax,0x8(%esp)
c0103881:	c7 44 24 04 00 00 c0 	movl   $0xffc00000,0x4(%esp)
c0103888:	ff 
c0103889:	c7 04 24 00 f0 3f c0 	movl   $0xc03ff000,(%esp)
c0103890:	e8 02 00 00 00       	call   c0103897 <paging_mapIntern>
c0103895:	c9                   	leave  
c0103896:	c3                   	ret    

c0103897 <paging_mapIntern>:
c0103897:	55                   	push   %ebp
c0103898:	89 e5                	mov    %esp,%ebp
c010389a:	83 ec 28             	sub    $0x28,%esp
c010389d:	8b 45 1c             	mov    0x1c(%ebp),%eax
c01038a0:	88 45 ec             	mov    %al,-0x14(%ebp)
c01038a3:	81 7d 08 00 f0 3f c0 	cmpl   $0xc03ff000,0x8(%ebp)
c01038aa:	74 2d                	je     c01038d9 <paging_mapIntern+0x42>
c01038ac:	81 7d 08 00 e0 3f c0 	cmpl   $0xc03fe000,0x8(%ebp)
c01038b3:	74 24                	je     c01038d9 <paging_mapIntern+0x42>
c01038b5:	c7 44 24 0c 1f 01 00 	movl   $0x11f,0xc(%esp)
c01038bc:	00 
c01038bd:	c7 44 24 08 9f cb 16 	movl   $0xc016cb9f,0x8(%esp)
c01038c4:	c0 
c01038c5:	c7 44 24 04 b0 cb 16 	movl   $0xc016cbb0,0x4(%esp)
c01038cc:	c0 
c01038cd:	c7 04 24 c0 cb 16 c0 	movl   $0xc016cbc0,(%esp)
c01038d4:	e8 07 41 00 00       	call   c01079e0 <panic>
c01038d9:	81 7d 0c 00 00 c0 ff 	cmpl   $0xffc00000,0xc(%ebp)
c01038e0:	74 2d                	je     c010390f <paging_mapIntern+0x78>
c01038e2:	81 7d 0c 00 00 40 ff 	cmpl   $0xff400000,0xc(%ebp)
c01038e9:	74 24                	je     c010390f <paging_mapIntern+0x78>
c01038eb:	c7 44 24 0c 20 01 00 	movl   $0x120,0xc(%esp)
c01038f2:	00 
c01038f3:	c7 44 24 08 9f cb 16 	movl   $0xc016cb9f,0x8(%esp)
c01038fa:	c0 
c01038fb:	c7 44 24 04 b0 cb 16 	movl   $0xc016cbb0,0x4(%esp)
c0103902:	c0 
c0103903:	c7 04 24 f4 cb 16 c0 	movl   $0xc016cbf4,(%esp)
c010390a:	e8 d1 40 00 00       	call   c01079e0 <panic>
c010390f:	0f b6 45 ec          	movzbl -0x14(%ebp),%eax
c0103913:	83 e0 0f             	and    $0xf,%eax
c0103916:	85 c0                	test   %eax,%eax
c0103918:	75 24                	jne    c010393e <paging_mapIntern+0xa7>
c010391a:	c7 44 24 0c 21 01 00 	movl   $0x121,0xc(%esp)
c0103921:	00 
c0103922:	c7 44 24 08 9f cb 16 	movl   $0xc016cb9f,0x8(%esp)
c0103929:	c0 
c010392a:	c7 44 24 04 b0 cb 16 	movl   $0xc016cbb0,0x4(%esp)
c0103931:	c0 
c0103932:	c7 04 24 2c cc 16 c0 	movl   $0xc016cc2c,(%esp)
c0103939:	e8 a2 40 00 00       	call   c01079e0 <panic>
c010393e:	0f b6 45 ec          	movzbl -0x14(%ebp),%eax
c0103942:	83 e0 f0             	and    $0xfffffff0,%eax
c0103945:	85 c0                	test   %eax,%eax
c0103947:	74 24                	je     c010396d <paging_mapIntern+0xd6>
c0103949:	c7 44 24 0c 23 01 00 	movl   $0x123,0xc(%esp)
c0103950:	00 
c0103951:	c7 44 24 08 9f cb 16 	movl   $0xc016cb9f,0x8(%esp)
c0103958:	c0 
c0103959:	c7 44 24 04 b0 cb 16 	movl   $0xc016cbb0,0x4(%esp)
c0103960:	c0 
c0103961:	c7 04 24 5c cc 16 c0 	movl   $0xc016cc5c,(%esp)
c0103968:	e8 73 40 00 00       	call   c01079e0 <panic>
c010396d:	83 7d 20 01          	cmpl   $0x1,0x20(%ebp)
c0103971:	74 2a                	je     c010399d <paging_mapIntern+0x106>
c0103973:	83 7d 20 00          	cmpl   $0x0,0x20(%ebp)
c0103977:	74 24                	je     c010399d <paging_mapIntern+0x106>
c0103979:	c7 44 24 0c 24 01 00 	movl   $0x124,0xc(%esp)
c0103980:	00 
c0103981:	c7 44 24 08 9f cb 16 	movl   $0xc016cb9f,0x8(%esp)
c0103988:	c0 
c0103989:	c7 44 24 04 b0 cb 16 	movl   $0xc016cbb0,0x4(%esp)
c0103990:	c0 
c0103991:	c7 04 24 9c cc 16 c0 	movl   $0xc016cc9c,(%esp)
c0103998:	e8 43 40 00 00       	call   c01079e0 <panic>
c010399d:	81 7d 08 00 f0 3f c0 	cmpl   $0xc03ff000,0x8(%ebp)
c01039a4:	75 05                	jne    c01039ab <paging_mapIntern+0x114>
c01039a6:	e8 c8 fb ff ff       	call   c0103573 <paging_mapPageDir>
c01039ab:	81 65 10 00 f0 ff ff 	andl   $0xfffff000,0x10(%ebp)
c01039b2:	e9 eb 01 00 00       	jmp    c0103ba2 <paging_mapIntern+0x30b>
c01039b7:	8b 45 10             	mov    0x10(%ebp),%eax
c01039ba:	c1 e8 16             	shr    $0x16,%eax
c01039bd:	c1 e0 02             	shl    $0x2,%eax
c01039c0:	03 45 08             	add    0x8(%ebp),%eax
c01039c3:	89 45 f8             	mov    %eax,-0x8(%ebp)
c01039c6:	8b 45 f8             	mov    -0x8(%ebp),%eax
c01039c9:	0f b6 00             	movzbl (%eax),%eax
c01039cc:	83 e0 01             	and    $0x1,%eax
c01039cf:	84 c0                	test   %al,%al
c01039d1:	0f 85 9b 00 00 00    	jne    c0103a72 <paging_mapIntern+0x1db>
c01039d7:	c7 04 24 02 00 00 00 	movl   $0x2,(%esp)
c01039de:	e8 2e f1 ff ff       	call   c0102b11 <mm_allocateFrame>
c01039e3:	89 45 f4             	mov    %eax,-0xc(%ebp)
c01039e6:	83 7d f4 00          	cmpl   $0x0,-0xc(%ebp)
c01039ea:	75 0c                	jne    c01039f8 <paging_mapIntern+0x161>
c01039ec:	c7 04 24 cd cc 16 c0 	movl   $0xc016cccd,(%esp)
c01039f3:	e8 e8 3f 00 00       	call   c01079e0 <panic>
c01039f8:	8b 45 f4             	mov    -0xc(%ebp),%eax
c01039fb:	25 ff ff 0f 00       	and    $0xfffff,%eax
c0103a00:	8b 55 f8             	mov    -0x8(%ebp),%edx
c0103a03:	89 c1                	mov    %eax,%ecx
c0103a05:	c1 e1 0c             	shl    $0xc,%ecx
c0103a08:	8b 02                	mov    (%edx),%eax
c0103a0a:	25 ff 0f 00 00       	and    $0xfff,%eax
c0103a0f:	09 c8                	or     %ecx,%eax
c0103a11:	89 02                	mov    %eax,(%edx)
c0103a13:	8b 55 f8             	mov    -0x8(%ebp),%edx
c0103a16:	0f b6 02             	movzbl (%edx),%eax
c0103a19:	83 c8 01             	or     $0x1,%eax
c0103a1c:	88 02                	mov    %al,(%edx)
c0103a1e:	8b 55 f8             	mov    -0x8(%ebp),%edx
c0103a21:	0f b6 02             	movzbl (%edx),%eax
c0103a24:	83 c8 02             	or     $0x2,%eax
c0103a27:	88 02                	mov    %al,(%edx)
c0103a29:	0f b6 45 ec          	movzbl -0x14(%ebp),%eax
c0103a2d:	83 e0 02             	and    $0x2,%eax
c0103a30:	85 c0                	test   %eax,%eax
c0103a32:	0f 94 c0             	sete   %al
c0103a35:	8b 4d f8             	mov    -0x8(%ebp),%ecx
c0103a38:	83 e0 01             	and    $0x1,%eax
c0103a3b:	8d 14 85 00 00 00 00 	lea    0x0(,%eax,4),%edx
c0103a42:	0f b6 01             	movzbl (%ecx),%eax
c0103a45:	83 e0 fb             	and    $0xfffffffb,%eax
c0103a48:	09 d0                	or     %edx,%eax
c0103a4a:	88 01                	mov    %al,(%ecx)
c0103a4c:	8b 45 10             	mov    0x10(%ebp),%eax
c0103a4f:	25 00 00 c0 ff       	and    $0xffc00000,%eax
c0103a54:	c1 e8 0a             	shr    $0xa,%eax
c0103a57:	03 45 0c             	add    0xc(%ebp),%eax
c0103a5a:	c7 44 24 08 00 10 00 	movl   $0x1000,0x8(%esp)
c0103a61:	00 
c0103a62:	c7 44 24 04 00 00 00 	movl   $0x0,0x4(%esp)
c0103a69:	00 
c0103a6a:	89 04 24             	mov    %eax,(%esp)
c0103a6d:	e8 20 88 00 00       	call   c010c292 <memset>
c0103a72:	8b 45 10             	mov    0x10(%ebp),%eax
c0103a75:	25 00 f0 ff ff       	and    $0xfffff000,%eax
c0103a7a:	c1 e8 0a             	shr    $0xa,%eax
c0103a7d:	03 45 0c             	add    0xc(%ebp),%eax
c0103a80:	89 45 fc             	mov    %eax,-0x4(%ebp)
c0103a83:	83 7d 20 00          	cmpl   $0x0,0x20(%ebp)
c0103a87:	75 11                	jne    c0103a9a <paging_mapIntern+0x203>
c0103a89:	8b 45 fc             	mov    -0x4(%ebp),%eax
c0103a8c:	0f b6 00             	movzbl (%eax),%eax
c0103a8f:	83 e0 01             	and    $0x1,%eax
c0103a92:	84 c0                	test   %al,%al
c0103a94:	0f 85 01 01 00 00    	jne    c0103b9b <paging_mapIntern+0x304>
c0103a9a:	83 7d 14 00          	cmpl   $0x0,0x14(%ebp)
c0103a9e:	75 26                	jne    c0103ac6 <paging_mapIntern+0x22f>
c0103aa0:	c7 04 24 02 00 00 00 	movl   $0x2,(%esp)
c0103aa7:	e8 65 f0 ff ff       	call   c0102b11 <mm_allocateFrame>
c0103aac:	25 ff ff 0f 00       	and    $0xfffff,%eax
c0103ab1:	8b 55 fc             	mov    -0x4(%ebp),%edx
c0103ab4:	89 c1                	mov    %eax,%ecx
c0103ab6:	c1 e1 0c             	shl    $0xc,%ecx
c0103ab9:	8b 02                	mov    (%edx),%eax
c0103abb:	25 ff 0f 00 00       	and    $0xfff,%eax
c0103ac0:	09 c8                	or     %ecx,%eax
c0103ac2:	89 02                	mov    %eax,(%edx)
c0103ac4:	eb 52                	jmp    c0103b18 <paging_mapIntern+0x281>
c0103ac6:	0f b6 45 ec          	movzbl -0x14(%ebp),%eax
c0103aca:	83 e0 08             	and    $0x8,%eax
c0103acd:	85 c0                	test   %eax,%eax
c0103acf:	74 26                	je     c0103af7 <paging_mapIntern+0x260>
c0103ad1:	8b 45 14             	mov    0x14(%ebp),%eax
c0103ad4:	8b 00                	mov    (%eax),%eax
c0103ad6:	c1 e8 0c             	shr    $0xc,%eax
c0103ad9:	25 ff ff 0f 00       	and    $0xfffff,%eax
c0103ade:	8b 55 fc             	mov    -0x4(%ebp),%edx
c0103ae1:	89 c1                	mov    %eax,%ecx
c0103ae3:	c1 e1 0c             	shl    $0xc,%ecx
c0103ae6:	8b 02                	mov    (%edx),%eax
c0103ae8:	25 ff 0f 00 00       	and    $0xfff,%eax
c0103aed:	09 c8                	or     %ecx,%eax
c0103aef:	89 02                	mov    %eax,(%edx)
c0103af1:	83 45 14 04          	addl   $0x4,0x14(%ebp)
c0103af5:	eb 21                	jmp    c0103b18 <paging_mapIntern+0x281>
c0103af7:	8b 45 14             	mov    0x14(%ebp),%eax
c0103afa:	8b 00                	mov    (%eax),%eax
c0103afc:	25 ff ff 0f 00       	and    $0xfffff,%eax
c0103b01:	8b 55 fc             	mov    -0x4(%ebp),%edx
c0103b04:	89 c1                	mov    %eax,%ecx
c0103b06:	c1 e1 0c             	shl    $0xc,%ecx
c0103b09:	8b 02                	mov    (%edx),%eax
c0103b0b:	25 ff 0f 00 00       	and    $0xfff,%eax
c0103b10:	09 c8                	or     %ecx,%eax
c0103b12:	89 02                	mov    %eax,(%edx)
c0103b14:	83 45 14 04          	addl   $0x4,0x14(%ebp)
c0103b18:	8b 55 fc             	mov    -0x4(%ebp),%edx
c0103b1b:	0f b6 02             	movzbl (%edx),%eax
c0103b1e:	83 c8 01             	or     $0x1,%eax
c0103b21:	88 02                	mov    %al,(%edx)
c0103b23:	0f b6 45 ec          	movzbl -0x14(%ebp),%eax
c0103b27:	83 e0 01             	and    $0x1,%eax
c0103b2a:	83 e0 01             	and    $0x1,%eax
c0103b2d:	83 e0 01             	and    $0x1,%eax
c0103b30:	8b 4d fc             	mov    -0x4(%ebp),%ecx
c0103b33:	83 e0 01             	and    $0x1,%eax
c0103b36:	8d 14 00             	lea    (%eax,%eax,1),%edx
c0103b39:	0f b6 01             	movzbl (%ecx),%eax
c0103b3c:	83 e0 fd             	and    $0xfffffffd,%eax
c0103b3f:	09 d0                	or     %edx,%eax
c0103b41:	88 01                	mov    %al,(%ecx)
c0103b43:	0f b6 45 ec          	movzbl -0x14(%ebp),%eax
c0103b47:	83 e0 02             	and    $0x2,%eax
c0103b4a:	85 c0                	test   %eax,%eax
c0103b4c:	0f 94 c0             	sete   %al
c0103b4f:	8b 4d fc             	mov    -0x4(%ebp),%ecx
c0103b52:	83 e0 01             	and    $0x1,%eax
c0103b55:	8d 14 85 00 00 00 00 	lea    0x0(,%eax,4),%edx
c0103b5c:	0f b6 01             	movzbl (%ecx),%eax
c0103b5f:	83 e0 fb             	and    $0xfffffffb,%eax
c0103b62:	09 d0                	or     %edx,%eax
c0103b64:	88 01                	mov    %al,(%ecx)
c0103b66:	0f b6 45 ec          	movzbl -0x14(%ebp),%eax
c0103b6a:	83 e0 04             	and    $0x4,%eax
c0103b6d:	85 c0                	test   %eax,%eax
c0103b6f:	0f 95 c0             	setne  %al
c0103b72:	8b 4d fc             	mov    -0x4(%ebp),%ecx
c0103b75:	83 e0 01             	and    $0x1,%eax
c0103b78:	8d 14 00             	lea    (%eax,%eax,1),%edx
c0103b7b:	0f b6 41 01          	movzbl 0x1(%ecx),%eax
c0103b7f:	83 e0 fd             	and    $0xfffffffd,%eax
c0103b82:	09 d0                	or     %edx,%eax
c0103b84:	88 41 01             	mov    %al,0x1(%ecx)
c0103b87:	81 7d 08 00 f0 3f c0 	cmpl   $0xc03ff000,0x8(%ebp)
c0103b8e:	75 0b                	jne    c0103b9b <paging_mapIntern+0x304>
c0103b90:	8b 45 10             	mov    0x10(%ebp),%eax
c0103b93:	89 04 24             	mov    %eax,(%esp)
c0103b96:	e8 cf c5 ff ff       	call   c010016a <paging_flushAddr>
c0103b9b:	81 45 10 00 10 00 00 	addl   $0x1000,0x10(%ebp)
c0103ba2:	83 7d 18 00          	cmpl   $0x0,0x18(%ebp)
c0103ba6:	0f 95 c0             	setne  %al
c0103ba9:	83 6d 18 01          	subl   $0x1,0x18(%ebp)
c0103bad:	84 c0                	test   %al,%al
c0103baf:	0f 85 02 fe ff ff    	jne    c01039b7 <paging_mapIntern+0x120>
c0103bb5:	c9                   	leave  
c0103bb6:	c3                   	ret    

c0103bb7 <paging_unmap>:
c0103bb7:	55                   	push   %ebp
c0103bb8:	89 e5                	mov    %esp,%ebp
c0103bba:	83 ec 18             	sub    $0x18,%esp
c0103bbd:	8b 45 10             	mov    0x10(%ebp),%eax
c0103bc0:	89 44 24 0c          	mov    %eax,0xc(%esp)
c0103bc4:	8b 45 0c             	mov    0xc(%ebp),%eax
c0103bc7:	89 44 24 08          	mov    %eax,0x8(%esp)
c0103bcb:	8b 45 08             	mov    0x8(%ebp),%eax
c0103bce:	89 44 24 04          	mov    %eax,0x4(%esp)
c0103bd2:	c7 04 24 00 00 c0 ff 	movl   $0xffc00000,(%esp)
c0103bd9:	e8 4d 08 00 00       	call   c010442b <paging_unmapIntern>
c0103bde:	c9                   	leave  
c0103bdf:	c3                   	ret    

c0103be0 <paging_unmapPageTables>:
c0103be0:	55                   	push   %ebp
c0103be1:	89 e5                	mov    %esp,%ebp
c0103be3:	83 ec 18             	sub    $0x18,%esp
c0103be6:	8b 45 0c             	mov    0xc(%ebp),%eax
c0103be9:	89 44 24 08          	mov    %eax,0x8(%esp)
c0103bed:	8b 45 08             	mov    0x8(%ebp),%eax
c0103bf0:	89 44 24 04          	mov    %eax,0x4(%esp)
c0103bf4:	c7 04 24 00 f0 3f c0 	movl   $0xc03ff000,(%esp)
c0103bfb:	e8 3c 09 00 00       	call   c010453c <paging_unmapPageTablesIntern>
c0103c00:	c9                   	leave  
c0103c01:	c3                   	ret    

c0103c02 <paging_clonePageDir>:
c0103c02:	55                   	push   %ebp
c0103c03:	89 e5                	mov    %esp,%ebp
c0103c05:	83 ec 68             	sub    $0x68,%esp
c0103c08:	83 7d 08 00          	cmpl   $0x0,0x8(%ebp)
c0103c0c:	75 24                	jne    c0103c32 <paging_clonePageDir+0x30>
c0103c0e:	c7 44 24 0c 6b 01 00 	movl   $0x16b,0xc(%esp)
c0103c15:	00 
c0103c16:	c7 44 24 08 df cc 16 	movl   $0xc016ccdf,0x8(%esp)
c0103c1d:	c0 
c0103c1e:	c7 44 24 04 b0 cb 16 	movl   $0xc016cbb0,0x4(%esp)
c0103c25:	c0 
c0103c26:	c7 04 24 f4 cc 16 c0 	movl   $0xc016ccf4,(%esp)
c0103c2d:	e8 ae 3d 00 00       	call   c01079e0 <panic>
c0103c32:	83 7d 0c 00          	cmpl   $0x0,0xc(%ebp)
c0103c36:	75 24                	jne    c0103c5c <paging_clonePageDir+0x5a>
c0103c38:	c7 44 24 0c 6c 01 00 	movl   $0x16c,0xc(%esp)
c0103c3f:	00 
c0103c40:	c7 44 24 08 df cc 16 	movl   $0xc016ccdf,0x8(%esp)
c0103c47:	c0 
c0103c48:	c7 44 24 04 b0 cb 16 	movl   $0xc016cbb0,0x4(%esp)
c0103c4f:	c0 
c0103c50:	c7 04 24 2c cd 16 c0 	movl   $0xc016cd2c,(%esp)
c0103c57:	e8 84 3d 00 00       	call   c01079e0 <panic>
c0103c5c:	c7 04 24 00 00 00 00 	movl   $0x0,(%esp)
c0103c63:	e8 17 c5 ff ff       	call   c010017f <intrpt_setEnabled>
c0103c68:	89 45 d0             	mov    %eax,-0x30(%ebp)
c0103c6b:	e8 f0 11 00 00       	call   c0104e60 <proc_getRunning>
c0103c70:	89 45 fc             	mov    %eax,-0x4(%ebp)
c0103c73:	8b 45 fc             	mov    -0x4(%ebp),%eax
c0103c76:	8b 40 0c             	mov    0xc(%eax),%eax
c0103c79:	89 45 e0             	mov    %eax,-0x20(%ebp)
c0103c7c:	8b 45 fc             	mov    -0x4(%ebp),%eax
c0103c7f:	8b 40 10             	mov    0x10(%eax),%eax
c0103c82:	89 45 e4             	mov    %eax,-0x1c(%ebp)
c0103c85:	8b 45 fc             	mov    -0x4(%ebp),%eax
c0103c88:	8b 40 14             	mov    0x14(%eax),%eax
c0103c8b:	89 45 e8             	mov    %eax,-0x18(%ebp)
c0103c8e:	8b 55 e4             	mov    -0x1c(%ebp),%edx
c0103c91:	8b 45 e0             	mov    -0x20(%ebp),%eax
c0103c94:	01 d0                	add    %edx,%eax
c0103c96:	05 ff 03 00 00       	add    $0x3ff,%eax
c0103c9b:	89 c2                	mov    %eax,%edx
c0103c9d:	c1 ea 0a             	shr    $0xa,%edx
c0103ca0:	8b 45 e8             	mov    -0x18(%ebp),%eax
c0103ca3:	05 ff 03 00 00       	add    $0x3ff,%eax
c0103ca8:	c1 e8 0a             	shr    $0xa,%eax
c0103cab:	8d 04 02             	lea    (%edx,%eax,1),%eax
c0103cae:	83 c0 03             	add    $0x3,%eax
c0103cb1:	89 45 d8             	mov    %eax,-0x28(%ebp)
c0103cb4:	8b 55 e8             	mov    -0x18(%ebp),%edx
c0103cb7:	8b 45 e4             	mov    -0x1c(%ebp),%eax
c0103cba:	01 d0                	add    %edx,%eax
c0103cbc:	c1 e0 05             	shl    $0x5,%eax
c0103cbf:	89 45 dc             	mov    %eax,-0x24(%ebp)
c0103cc2:	c7 04 24 02 00 00 00 	movl   $0x2,(%esp)
c0103cc9:	e8 da ec ff ff       	call   c01029a8 <mm_getFreeFrmCount>
c0103cce:	3b 45 d8             	cmp    -0x28(%ebp),%eax
c0103cd1:	73 17                	jae    c0103cea <paging_clonePageDir+0xe8>
c0103cd3:	8b 45 d0             	mov    -0x30(%ebp),%eax
c0103cd6:	89 04 24             	mov    %eax,(%esp)
c0103cd9:	e8 a1 c4 ff ff       	call   c010017f <intrpt_setEnabled>
c0103cde:	c7 45 bc 00 00 00 00 	movl   $0x0,-0x44(%ebp)
c0103ce5:	e9 f2 02 00 00       	jmp    c0103fdc <paging_clonePageDir+0x3da>
c0103cea:	c7 04 24 02 00 00 00 	movl   $0x2,(%esp)
c0103cf1:	e8 1b ee ff ff       	call   c0102b11 <mm_allocateFrame>
c0103cf6:	89 45 cc             	mov    %eax,-0x34(%ebp)
c0103cf9:	c7 44 24 10 01 00 00 	movl   $0x1,0x10(%esp)
c0103d00:	00 
c0103d01:	c7 44 24 0c 03 00 00 	movl   $0x3,0xc(%esp)
c0103d08:	00 
c0103d09:	c7 44 24 08 01 00 00 	movl   $0x1,0x8(%esp)
c0103d10:	00 
c0103d11:	8d 45 cc             	lea    -0x34(%ebp),%eax
c0103d14:	89 44 24 04          	mov    %eax,0x4(%esp)
c0103d18:	c7 04 24 00 e0 3f c0 	movl   $0xc03fe000,(%esp)
c0103d1f:	e8 2d fb ff ff       	call   c0103851 <paging_map>
c0103d24:	c7 45 ec 00 f0 3f c0 	movl   $0xc03ff000,-0x14(%ebp)
c0103d2b:	c7 45 f0 00 e0 3f c0 	movl   $0xc03fe000,-0x10(%ebp)
c0103d32:	c7 44 24 08 00 0c 00 	movl   $0xc00,0x8(%esp)
c0103d39:	00 
c0103d3a:	c7 44 24 04 00 00 00 	movl   $0x0,0x4(%esp)
c0103d41:	00 
c0103d42:	8b 45 f0             	mov    -0x10(%ebp),%eax
c0103d45:	89 04 24             	mov    %eax,(%esp)
c0103d48:	e8 45 85 00 00       	call   c010c292 <memset>
c0103d4d:	8b 45 ec             	mov    -0x14(%ebp),%eax
c0103d50:	8d 90 00 0c 00 00    	lea    0xc00(%eax),%edx
c0103d56:	8b 45 f0             	mov    -0x10(%ebp),%eax
c0103d59:	05 00 0c 00 00       	add    $0xc00,%eax
c0103d5e:	c7 44 24 08 00 04 00 	movl   $0x400,0x8(%esp)
c0103d65:	00 
c0103d66:	89 54 24 04          	mov    %edx,0x4(%esp)
c0103d6a:	89 04 24             	mov    %eax,(%esp)
c0103d6d:	e8 25 84 00 00       	call   c010c197 <memcpy>
c0103d72:	8b 45 f0             	mov    -0x10(%ebp),%eax
c0103d75:	8d 88 fc 0f 00 00    	lea    0xffc(%eax),%ecx
c0103d7b:	8b 45 cc             	mov    -0x34(%ebp),%eax
c0103d7e:	25 ff ff 0f 00       	and    $0xfffff,%eax
c0103d83:	89 c2                	mov    %eax,%edx
c0103d85:	c1 e2 0c             	shl    $0xc,%edx
c0103d88:	8b 01                	mov    (%ecx),%eax
c0103d8a:	25 ff 0f 00 00       	and    $0xfff,%eax
c0103d8f:	09 d0                	or     %edx,%eax
c0103d91:	89 01                	mov    %eax,(%ecx)
c0103d93:	8b 45 ec             	mov    -0x14(%ebp),%eax
c0103d96:	8d 90 f4 0f 00 00    	lea    0xff4(%eax),%edx
c0103d9c:	8b 45 f0             	mov    -0x10(%ebp),%eax
c0103d9f:	05 fc 0f 00 00       	add    $0xffc,%eax
c0103da4:	8b 00                	mov    (%eax),%eax
c0103da6:	89 02                	mov    %eax,(%edx)
c0103da8:	8b 45 f0             	mov    -0x10(%ebp),%eax
c0103dab:	05 f8 0f 00 00       	add    $0xff8,%eax
c0103db0:	89 45 f4             	mov    %eax,-0xc(%ebp)
c0103db3:	c7 04 24 02 00 00 00 	movl   $0x2,(%esp)
c0103dba:	e8 52 ed ff ff       	call   c0102b11 <mm_allocateFrame>
c0103dbf:	25 ff ff 0f 00       	and    $0xfffff,%eax
c0103dc4:	8b 55 f4             	mov    -0xc(%ebp),%edx
c0103dc7:	89 c1                	mov    %eax,%ecx
c0103dc9:	c1 e1 0c             	shl    $0xc,%ecx
c0103dcc:	8b 02                	mov    (%edx),%eax
c0103dce:	25 ff 0f 00 00       	and    $0xfff,%eax
c0103dd3:	09 c8                	or     %ecx,%eax
c0103dd5:	89 02                	mov    %eax,(%edx)
c0103dd7:	8b 55 f4             	mov    -0xc(%ebp),%edx
c0103dda:	0f b6 02             	movzbl (%edx),%eax
c0103ddd:	83 c8 01             	or     $0x1,%eax
c0103de0:	88 02                	mov    %al,(%edx)
c0103de2:	8b 55 f4             	mov    -0xc(%ebp),%edx
c0103de5:	0f b6 02             	movzbl (%edx),%eax
c0103de8:	83 c8 02             	or     $0x2,%eax
c0103deb:	88 02                	mov    %al,(%edx)
c0103ded:	c7 44 24 08 00 10 00 	movl   $0x1000,0x8(%esp)
c0103df4:	00 
c0103df5:	c7 44 24 04 00 00 00 	movl   $0x0,0x4(%esp)
c0103dfc:	00 
c0103dfd:	c7 04 24 00 e0 7f ff 	movl   $0xff7fe000,(%esp)
c0103e04:	e8 89 84 00 00       	call   c010c292 <memset>
c0103e09:	c7 45 f8 fc ef 7f ff 	movl   $0xff7feffc,-0x8(%ebp)
c0103e10:	c7 04 24 02 00 00 00 	movl   $0x2,(%esp)
c0103e17:	e8 f5 ec ff ff       	call   c0102b11 <mm_allocateFrame>
c0103e1c:	25 ff ff 0f 00       	and    $0xfffff,%eax
c0103e21:	8b 55 f8             	mov    -0x8(%ebp),%edx
c0103e24:	89 c1                	mov    %eax,%ecx
c0103e26:	c1 e1 0c             	shl    $0xc,%ecx
c0103e29:	8b 02                	mov    (%edx),%eax
c0103e2b:	25 ff 0f 00 00       	and    $0xfff,%eax
c0103e30:	09 c8                	or     %ecx,%eax
c0103e32:	89 02                	mov    %eax,(%edx)
c0103e34:	8b 45 f8             	mov    -0x8(%ebp),%eax
c0103e37:	8b 00                	mov    (%eax),%eax
c0103e39:	c1 e8 0c             	shr    $0xc,%eax
c0103e3c:	89 c2                	mov    %eax,%edx
c0103e3e:	8b 45 08             	mov    0x8(%ebp),%eax
c0103e41:	89 10                	mov    %edx,(%eax)
c0103e43:	8b 55 f8             	mov    -0x8(%ebp),%edx
c0103e46:	0f b6 02             	movzbl (%edx),%eax
c0103e49:	83 c8 01             	or     $0x1,%eax
c0103e4c:	88 02                	mov    %al,(%edx)
c0103e4e:	8b 55 f8             	mov    -0x8(%ebp),%edx
c0103e51:	0f b6 02             	movzbl (%edx),%eax
c0103e54:	83 c8 02             	or     $0x2,%eax
c0103e57:	88 02                	mov    %al,(%edx)
c0103e59:	c7 44 24 18 01 00 00 	movl   $0x1,0x18(%esp)
c0103e60:	00 
c0103e61:	c7 44 24 14 08 00 00 	movl   $0x8,0x14(%esp)
c0103e68:	00 
c0103e69:	8b 45 e0             	mov    -0x20(%ebp),%eax
c0103e6c:	89 44 24 10          	mov    %eax,0x10(%esp)
c0103e70:	c7 44 24 0c 00 00 c0 	movl   $0xffc00000,0xc(%esp)
c0103e77:	ff 
c0103e78:	c7 44 24 08 00 00 00 	movl   $0x0,0x8(%esp)
c0103e7f:	00 
c0103e80:	c7 44 24 04 00 00 40 	movl   $0xff400000,0x4(%esp)
c0103e87:	ff 
c0103e88:	c7 04 24 00 e0 3f c0 	movl   $0xc03fe000,(%esp)
c0103e8f:	e8 03 fa ff ff       	call   c0103897 <paging_mapIntern>
c0103e94:	8b 45 e0             	mov    -0x20(%ebp),%eax
c0103e97:	c1 e0 0c             	shl    $0xc,%eax
c0103e9a:	89 45 d4             	mov    %eax,-0x2c(%ebp)
c0103e9d:	8b 45 d4             	mov    -0x2c(%ebp),%eax
c0103ea0:	25 00 f0 ff ff       	and    $0xfffff000,%eax
c0103ea5:	c1 e8 0a             	shr    $0xa,%eax
c0103ea8:	2d 00 00 40 00       	sub    $0x400000,%eax
c0103ead:	89 c2                	mov    %eax,%edx
c0103eaf:	c7 44 24 18 01 00 00 	movl   $0x1,0x18(%esp)
c0103eb6:	00 
c0103eb7:	c7 44 24 14 0c 00 00 	movl   $0xc,0x14(%esp)
c0103ebe:	00 
c0103ebf:	8b 45 e4             	mov    -0x1c(%ebp),%eax
c0103ec2:	89 44 24 10          	mov    %eax,0x10(%esp)
c0103ec6:	89 54 24 0c          	mov    %edx,0xc(%esp)
c0103eca:	8b 45 d4             	mov    -0x2c(%ebp),%eax
c0103ecd:	89 44 24 08          	mov    %eax,0x8(%esp)
c0103ed1:	c7 44 24 04 00 00 40 	movl   $0xff400000,0x4(%esp)
c0103ed8:	ff 
c0103ed9:	c7 04 24 00 e0 3f c0 	movl   $0xc03fe000,(%esp)
c0103ee0:	e8 b2 f9 ff ff       	call   c0103897 <paging_mapIntern>
c0103ee5:	8b 45 d4             	mov    -0x2c(%ebp),%eax
c0103ee8:	25 00 f0 ff ff       	and    $0xfffff000,%eax
c0103eed:	c1 e8 0a             	shr    $0xa,%eax
c0103ef0:	2d 00 00 40 00       	sub    $0x400000,%eax
c0103ef5:	89 c2                	mov    %eax,%edx
c0103ef7:	8b 45 0c             	mov    0xc(%ebp),%eax
c0103efa:	89 44 24 0c          	mov    %eax,0xc(%esp)
c0103efe:	8b 45 e4             	mov    -0x1c(%ebp),%eax
c0103f01:	89 44 24 08          	mov    %eax,0x8(%esp)
c0103f05:	89 54 24 04          	mov    %edx,0x4(%esp)
c0103f09:	8b 45 d4             	mov    -0x2c(%ebp),%eax
c0103f0c:	89 04 24             	mov    %eax,(%esp)
c0103f0f:	e8 17 07 00 00       	call   c010462b <paging_setCOW>
c0103f14:	b8 00 00 0c 00       	mov    $0xc0000,%eax
c0103f19:	2b 45 e8             	sub    -0x18(%ebp),%eax
c0103f1c:	c1 e0 0c             	shl    $0xc,%eax
c0103f1f:	89 45 d4             	mov    %eax,-0x2c(%ebp)
c0103f22:	8b 45 d4             	mov    -0x2c(%ebp),%eax
c0103f25:	25 00 f0 ff ff       	and    $0xfffff000,%eax
c0103f2a:	c1 e8 0a             	shr    $0xa,%eax
c0103f2d:	2d 00 00 40 00       	sub    $0x400000,%eax
c0103f32:	89 c2                	mov    %eax,%edx
c0103f34:	c7 44 24 18 01 00 00 	movl   $0x1,0x18(%esp)
c0103f3b:	00 
c0103f3c:	c7 44 24 14 0c 00 00 	movl   $0xc,0x14(%esp)
c0103f43:	00 
c0103f44:	8b 45 e8             	mov    -0x18(%ebp),%eax
c0103f47:	89 44 24 10          	mov    %eax,0x10(%esp)
c0103f4b:	89 54 24 0c          	mov    %edx,0xc(%esp)
c0103f4f:	8b 45 d4             	mov    -0x2c(%ebp),%eax
c0103f52:	89 44 24 08          	mov    %eax,0x8(%esp)
c0103f56:	c7 44 24 04 00 00 40 	movl   $0xff400000,0x4(%esp)
c0103f5d:	ff 
c0103f5e:	c7 04 24 00 e0 3f c0 	movl   $0xc03fe000,(%esp)
c0103f65:	e8 2d f9 ff ff       	call   c0103897 <paging_mapIntern>
c0103f6a:	8b 45 d4             	mov    -0x2c(%ebp),%eax
c0103f6d:	25 00 f0 ff ff       	and    $0xfffff000,%eax
c0103f72:	c1 e8 0a             	shr    $0xa,%eax
c0103f75:	2d 00 00 40 00       	sub    $0x400000,%eax
c0103f7a:	89 c2                	mov    %eax,%edx
c0103f7c:	8b 45 0c             	mov    0xc(%ebp),%eax
c0103f7f:	89 44 24 0c          	mov    %eax,0xc(%esp)
c0103f83:	8b 45 e8             	mov    -0x18(%ebp),%eax
c0103f86:	89 44 24 08          	mov    %eax,0x8(%esp)
c0103f8a:	89 54 24 04          	mov    %edx,0x4(%esp)
c0103f8e:	8b 45 d4             	mov    -0x2c(%ebp),%eax
c0103f91:	89 04 24             	mov    %eax,(%esp)
c0103f94:	e8 92 06 00 00       	call   c010462b <paging_setCOW>
c0103f99:	c7 44 24 08 00 00 00 	movl   $0x0,0x8(%esp)
c0103fa0:	00 
c0103fa1:	c7 44 24 04 01 00 00 	movl   $0x1,0x4(%esp)
c0103fa8:	00 
c0103fa9:	c7 04 24 00 e0 3f c0 	movl   $0xc03fe000,(%esp)
c0103fb0:	e8 02 fc ff ff       	call   c0103bb7 <paging_unmap>
c0103fb5:	8b 45 ec             	mov    -0x14(%ebp),%eax
c0103fb8:	8d 90 f4 0f 00 00    	lea    0xff4(%eax),%edx
c0103fbe:	0f b6 02             	movzbl (%edx),%eax
c0103fc1:	83 e0 fe             	and    $0xfffffffe,%eax
c0103fc4:	88 02                	mov    %al,(%edx)
c0103fc6:	e8 a5 c1 ff ff       	call   c0100170 <paging_flushTLB>
c0103fcb:	8b 45 d0             	mov    -0x30(%ebp),%eax
c0103fce:	89 04 24             	mov    %eax,(%esp)
c0103fd1:	e8 a9 c1 ff ff       	call   c010017f <intrpt_setEnabled>
c0103fd6:	8b 45 cc             	mov    -0x34(%ebp),%eax
c0103fd9:	89 45 bc             	mov    %eax,-0x44(%ebp)
c0103fdc:	8b 45 bc             	mov    -0x44(%ebp),%eax
c0103fdf:	c9                   	leave  
c0103fe0:	c3                   	ret    

c0103fe1 <paging_handlePageFault>:
c0103fe1:	55                   	push   %ebp
c0103fe2:	89 e5                	mov    %esp,%ebp
c0103fe4:	83 ec 48             	sub    $0x48,%esp
c0103fe7:	c7 45 ec 00 00 00 00 	movl   $0x0,-0x14(%ebp)
c0103fee:	c7 45 f0 00 00 00 00 	movl   $0x0,-0x10(%ebp)
c0103ff5:	c7 45 f4 00 00 00 00 	movl   $0x0,-0xc(%ebp)
c0103ffc:	e8 5f 0e 00 00       	call   c0104e60 <proc_getRunning>
c0104001:	89 45 f8             	mov    %eax,-0x8(%ebp)
c0104004:	8b 45 08             	mov    0x8(%ebp),%eax
c0104007:	25 00 f0 ff ff       	and    $0xfffff000,%eax
c010400c:	c1 e8 0a             	shr    $0xa,%eax
c010400f:	2d 00 00 40 00       	sub    $0x400000,%eax
c0104014:	89 45 fc             	mov    %eax,-0x4(%ebp)
c0104017:	8b 45 fc             	mov    -0x4(%ebp),%eax
c010401a:	0f b6 40 01          	movzbl 0x1(%eax),%eax
c010401e:	83 e0 02             	and    $0x2,%eax
c0104021:	84 c0                	test   %al,%al
c0104023:	74 0d                	je     c0104032 <paging_handlePageFault+0x51>
c0104025:	8b 45 fc             	mov    -0x4(%ebp),%eax
c0104028:	0f b6 00             	movzbl (%eax),%eax
c010402b:	83 e0 01             	and    $0x1,%eax
c010402e:	84 c0                	test   %al,%al
c0104030:	75 18                	jne    c010404a <paging_handlePageFault+0x69>
c0104032:	c7 04 24 5f cd 16 c0 	movl   $0xc016cd5f,(%esp)
c0104039:	e8 07 74 00 00       	call   c010b445 <vid_printf>
c010403e:	c7 45 cc 00 00 00 00 	movl   $0x0,-0x34(%ebp)
c0104045:	e9 7d 01 00 00       	jmp    c01041c7 <paging_handlePageFault+0x1e6>
c010404a:	8b 45 fc             	mov    -0x4(%ebp),%eax
c010404d:	8b 00                	mov    (%eax),%eax
c010404f:	c1 e8 0c             	shr    $0xc,%eax
c0104052:	89 45 dc             	mov    %eax,-0x24(%ebp)
c0104055:	c7 45 e4 00 00 00 00 	movl   $0x0,-0x1c(%ebp)
c010405c:	a1 a0 93 1d c0       	mov    0xc01d93a0,%eax
c0104061:	89 04 24             	mov    %eax,(%esp)
c0104064:	e8 bf 78 00 00       	call   c010b928 <sll_begin>
c0104069:	89 45 e0             	mov    %eax,-0x20(%ebp)
c010406c:	eb 4f                	jmp    c01040bd <paging_handlePageFault+0xdc>
c010406e:	8b 45 e0             	mov    -0x20(%ebp),%eax
c0104071:	8b 40 04             	mov    0x4(%eax),%eax
c0104074:	89 45 e8             	mov    %eax,-0x18(%ebp)
c0104077:	8b 45 e8             	mov    -0x18(%ebp),%eax
c010407a:	8b 10                	mov    (%eax),%edx
c010407c:	8b 45 dc             	mov    -0x24(%ebp),%eax
c010407f:	39 c2                	cmp    %eax,%edx
c0104081:	75 2c                	jne    c01040af <paging_handlePageFault+0xce>
c0104083:	8b 45 e8             	mov    -0x18(%ebp),%eax
c0104086:	8b 40 04             	mov    0x4(%eax),%eax
c0104089:	3b 45 f8             	cmp    -0x8(%ebp),%eax
c010408c:	75 0e                	jne    c010409c <paging_handlePageFault+0xbb>
c010408e:	8b 45 e0             	mov    -0x20(%ebp),%eax
c0104091:	89 45 ec             	mov    %eax,-0x14(%ebp)
c0104094:	8b 45 e4             	mov    -0x1c(%ebp),%eax
c0104097:	89 45 f0             	mov    %eax,-0x10(%ebp)
c010409a:	eb 07                	jmp    c01040a3 <paging_handlePageFault+0xc2>
c010409c:	c7 45 f4 01 00 00 00 	movl   $0x1,-0xc(%ebp)
c01040a3:	83 7d ec 00          	cmpl   $0x0,-0x14(%ebp)
c01040a7:	74 06                	je     c01040af <paging_handlePageFault+0xce>
c01040a9:	83 7d f4 00          	cmpl   $0x0,-0xc(%ebp)
c01040ad:	75 14                	jne    c01040c3 <paging_handlePageFault+0xe2>
c01040af:	8b 45 e0             	mov    -0x20(%ebp),%eax
c01040b2:	89 45 e4             	mov    %eax,-0x1c(%ebp)
c01040b5:	8b 45 e0             	mov    -0x20(%ebp),%eax
c01040b8:	8b 00                	mov    (%eax),%eax
c01040ba:	89 45 e0             	mov    %eax,-0x20(%ebp)
c01040bd:	83 7d e0 00          	cmpl   $0x0,-0x20(%ebp)
c01040c1:	75 ab                	jne    c010406e <paging_handlePageFault+0x8d>
c01040c3:	83 7d ec 00          	cmpl   $0x0,-0x14(%ebp)
c01040c7:	75 21                	jne    c01040ea <paging_handlePageFault+0x109>
c01040c9:	8b 45 f8             	mov    -0x8(%ebp),%eax
c01040cc:	0f b7 40 02          	movzwl 0x2(%eax),%eax
c01040d0:	0f b7 d0             	movzwl %ax,%edx
c01040d3:	8b 45 08             	mov    0x8(%ebp),%eax
c01040d6:	89 44 24 08          	mov    %eax,0x8(%esp)
c01040da:	89 54 24 04          	mov    %edx,0x4(%esp)
c01040de:	c7 04 24 7c cd 16 c0 	movl   $0xc016cd7c,(%esp)
c01040e5:	e8 f6 38 00 00       	call   c01079e0 <panic>
c01040ea:	8b 15 a0 93 1d c0    	mov    0xc01d93a0,%edx
c01040f0:	8b 45 f0             	mov    -0x10(%ebp),%eax
c01040f3:	89 44 24 08          	mov    %eax,0x8(%esp)
c01040f7:	8b 45 ec             	mov    -0x14(%ebp),%eax
c01040fa:	89 44 24 04          	mov    %eax,0x4(%esp)
c01040fe:	89 14 24             	mov    %edx,(%esp)
c0104101:	e8 e2 7a 00 00       	call   c010bbe8 <sll_removeNode>
c0104106:	8b 55 fc             	mov    -0x4(%ebp),%edx
c0104109:	0f b6 42 01          	movzbl 0x1(%edx),%eax
c010410d:	83 e0 fd             	and    $0xfffffffd,%eax
c0104110:	88 42 01             	mov    %al,0x1(%edx)
c0104113:	8b 55 fc             	mov    -0x4(%ebp),%edx
c0104116:	0f b6 02             	movzbl (%edx),%eax
c0104119:	83 c8 02             	or     $0x2,%eax
c010411c:	88 02                	mov    %al,(%edx)
c010411e:	83 7d f4 00          	cmpl   $0x0,-0xc(%ebp)
c0104122:	74 24                	je     c0104148 <paging_handlePageFault+0x167>
c0104124:	c7 04 24 02 00 00 00 	movl   $0x2,(%esp)
c010412b:	e8 e1 e9 ff ff       	call   c0102b11 <mm_allocateFrame>
c0104130:	25 ff ff 0f 00       	and    $0xfffff,%eax
c0104135:	8b 55 fc             	mov    -0x4(%ebp),%edx
c0104138:	89 c1                	mov    %eax,%ecx
c010413a:	c1 e1 0c             	shl    $0xc,%ecx
c010413d:	8b 02                	mov    (%edx),%eax
c010413f:	25 ff 0f 00 00       	and    $0xfff,%eax
c0104144:	09 c8                	or     %ecx,%eax
c0104146:	89 02                	mov    %eax,(%edx)
c0104148:	8b 45 08             	mov    0x8(%ebp),%eax
c010414b:	89 04 24             	mov    %eax,(%esp)
c010414e:	e8 17 c0 ff ff       	call   c010016a <paging_flushAddr>
c0104153:	83 7d f4 00          	cmpl   $0x0,-0xc(%ebp)
c0104157:	74 67                	je     c01041c0 <paging_handlePageFault+0x1df>
c0104159:	c7 44 24 10 01 00 00 	movl   $0x1,0x10(%esp)
c0104160:	00 
c0104161:	c7 44 24 0c 03 00 00 	movl   $0x3,0xc(%esp)
c0104168:	00 
c0104169:	c7 44 24 08 01 00 00 	movl   $0x1,0x8(%esp)
c0104170:	00 
c0104171:	8d 45 dc             	lea    -0x24(%ebp),%eax
c0104174:	89 44 24 04          	mov    %eax,0x4(%esp)
c0104178:	c7 04 24 00 e0 bf ff 	movl   $0xffbfe000,(%esp)
c010417f:	e8 cd f6 ff ff       	call   c0103851 <paging_map>
c0104184:	8b 45 08             	mov    0x8(%ebp),%eax
c0104187:	25 00 f0 ff ff       	and    $0xfffff000,%eax
c010418c:	c7 44 24 08 00 10 00 	movl   $0x1000,0x8(%esp)
c0104193:	00 
c0104194:	c7 44 24 04 00 e0 bf 	movl   $0xffbfe000,0x4(%esp)
c010419b:	ff 
c010419c:	89 04 24             	mov    %eax,(%esp)
c010419f:	e8 f3 7f 00 00       	call   c010c197 <memcpy>
c01041a4:	c7 44 24 08 00 00 00 	movl   $0x0,0x8(%esp)
c01041ab:	00 
c01041ac:	c7 44 24 04 01 00 00 	movl   $0x1,0x4(%esp)
c01041b3:	00 
c01041b4:	c7 04 24 00 e0 bf ff 	movl   $0xffbfe000,(%esp)
c01041bb:	e8 f7 f9 ff ff       	call   c0103bb7 <paging_unmap>
c01041c0:	c7 45 cc 01 00 00 00 	movl   $0x1,-0x34(%ebp)
c01041c7:	8b 45 cc             	mov    -0x34(%ebp),%eax
c01041ca:	c9                   	leave  
c01041cb:	c3                   	ret    

c01041cc <paging_destroyPageDir>:
c01041cc:	55                   	push   %ebp
c01041cd:	89 e5                	mov    %esp,%ebp
c01041cf:	83 ec 38             	sub    $0x38,%esp
c01041d2:	83 7d 08 00          	cmpl   $0x0,0x8(%ebp)
c01041d6:	75 24                	jne    c01041fc <paging_destroyPageDir+0x30>
c01041d8:	c7 44 24 0c 1a 02 00 	movl   $0x21a,0xc(%esp)
c01041df:	00 
c01041e0:	c7 44 24 08 a9 cd 16 	movl   $0xc016cda9,0x8(%esp)
c01041e7:	c0 
c01041e8:	c7 44 24 04 b0 cb 16 	movl   $0xc016cbb0,0x4(%esp)
c01041ef:	c0 
c01041f0:	c7 04 24 c0 cd 16 c0 	movl   $0xc016cdc0,(%esp)
c01041f7:	e8 e4 37 00 00       	call   c01079e0 <panic>
c01041fc:	8b 45 08             	mov    0x8(%ebp),%eax
c01041ff:	83 c0 08             	add    $0x8,%eax
c0104202:	c7 44 24 10 01 00 00 	movl   $0x1,0x10(%esp)
c0104209:	00 
c010420a:	c7 44 24 0c 0b 00 00 	movl   $0xb,0xc(%esp)
c0104211:	00 
c0104212:	c7 44 24 08 01 00 00 	movl   $0x1,0x8(%esp)
c0104219:	00 
c010421a:	89 44 24 04          	mov    %eax,0x4(%esp)
c010421e:	c7 04 24 00 e0 3f c0 	movl   $0xc03fe000,(%esp)
c0104225:	e8 27 f6 ff ff       	call   c0103851 <paging_map>
c010422a:	c7 45 ec 00 f0 3f c0 	movl   $0xc03ff000,-0x14(%ebp)
c0104231:	c7 45 f0 00 e0 3f c0 	movl   $0xc03fe000,-0x10(%ebp)
c0104238:	8b 45 ec             	mov    -0x14(%ebp),%eax
c010423b:	8d 90 f4 0f 00 00    	lea    0xff4(%eax),%edx
c0104241:	8b 45 f0             	mov    -0x10(%ebp),%eax
c0104244:	05 fc 0f 00 00       	add    $0xffc,%eax
c0104249:	8b 00                	mov    (%eax),%eax
c010424b:	89 02                	mov    %eax,(%edx)
c010424d:	e8 1e bf ff ff       	call   c0100170 <paging_flushTLB>
c0104252:	8b 45 08             	mov    0x8(%ebp),%eax
c0104255:	8b 50 10             	mov    0x10(%eax),%edx
c0104258:	8b 45 08             	mov    0x8(%ebp),%eax
c010425b:	8b 40 0c             	mov    0xc(%eax),%eax
c010425e:	c1 e0 0c             	shl    $0xc,%eax
c0104261:	c7 44 24 0c 01 00 00 	movl   $0x1,0xc(%esp)
c0104268:	00 
c0104269:	89 54 24 08          	mov    %edx,0x8(%esp)
c010426d:	89 44 24 04          	mov    %eax,0x4(%esp)
c0104271:	c7 04 24 00 00 40 ff 	movl   $0xff400000,(%esp)
c0104278:	e8 ae 01 00 00       	call   c010442b <paging_unmapIntern>
c010427d:	8b 45 08             	mov    0x8(%ebp),%eax
c0104280:	8b 50 0c             	mov    0xc(%eax),%edx
c0104283:	8b 45 08             	mov    0x8(%ebp),%eax
c0104286:	8b 40 10             	mov    0x10(%eax),%eax
c0104289:	8d 04 02             	lea    (%edx,%eax,1),%eax
c010428c:	05 ff 03 00 00       	add    $0x3ff,%eax
c0104291:	89 c2                	mov    %eax,%edx
c0104293:	c1 ea 0a             	shr    $0xa,%edx
c0104296:	8b 45 08             	mov    0x8(%ebp),%eax
c0104299:	8b 40 0c             	mov    0xc(%eax),%eax
c010429c:	05 ff 03 00 00       	add    $0x3ff,%eax
c01042a1:	c1 e8 0a             	shr    $0xa,%eax
c01042a4:	29 c2                	sub    %eax,%edx
c01042a6:	8b 45 08             	mov    0x8(%ebp),%eax
c01042a9:	8b 40 0c             	mov    0xc(%eax),%eax
c01042ac:	05 ff 03 00 00       	add    $0x3ff,%eax
c01042b1:	c1 e8 0a             	shr    $0xa,%eax
c01042b4:	89 54 24 08          	mov    %edx,0x8(%esp)
c01042b8:	89 44 24 04          	mov    %eax,0x4(%esp)
c01042bc:	c7 04 24 00 e0 3f c0 	movl   $0xc03fe000,(%esp)
c01042c3:	e8 74 02 00 00       	call   c010453c <paging_unmapPageTablesIntern>
c01042c8:	8b 45 08             	mov    0x8(%ebp),%eax
c01042cb:	8b 48 14             	mov    0x14(%eax),%ecx
c01042ce:	8b 45 08             	mov    0x8(%ebp),%eax
c01042d1:	8b 50 14             	mov    0x14(%eax),%edx
c01042d4:	b8 00 00 0c 00       	mov    $0xc0000,%eax
c01042d9:	29 d0                	sub    %edx,%eax
c01042db:	c1 e0 0c             	shl    $0xc,%eax
c01042de:	c7 44 24 0c 01 00 00 	movl   $0x1,0xc(%esp)
c01042e5:	00 
c01042e6:	89 4c 24 08          	mov    %ecx,0x8(%esp)
c01042ea:	89 44 24 04          	mov    %eax,0x4(%esp)
c01042ee:	c7 04 24 00 00 40 ff 	movl   $0xff400000,(%esp)
c01042f5:	e8 31 01 00 00       	call   c010442b <paging_unmapIntern>
c01042fa:	8b 45 08             	mov    0x8(%ebp),%eax
c01042fd:	8b 40 14             	mov    0x14(%eax),%eax
c0104300:	05 ff 03 00 00       	add    $0x3ff,%eax
c0104305:	89 c1                	mov    %eax,%ecx
c0104307:	c1 e9 0a             	shr    $0xa,%ecx
c010430a:	8b 45 08             	mov    0x8(%ebp),%eax
c010430d:	8b 40 14             	mov    0x14(%eax),%eax
c0104310:	05 ff 03 00 00       	add    $0x3ff,%eax
c0104315:	89 c2                	mov    %eax,%edx
c0104317:	c1 ea 0a             	shr    $0xa,%edx
c010431a:	b8 00 03 00 00       	mov    $0x300,%eax
c010431f:	29 d0                	sub    %edx,%eax
c0104321:	89 4c 24 08          	mov    %ecx,0x8(%esp)
c0104325:	89 44 24 04          	mov    %eax,0x4(%esp)
c0104329:	c7 04 24 00 e0 3f c0 	movl   $0xc03fe000,(%esp)
c0104330:	e8 07 02 00 00       	call   c010453c <paging_unmapPageTablesIntern>
c0104335:	c7 45 f8 00 00 00 00 	movl   $0x0,-0x8(%ebp)
c010433c:	a1 a0 93 1d c0       	mov    0xc01d93a0,%eax
c0104341:	89 04 24             	mov    %eax,(%esp)
c0104344:	e8 df 75 00 00       	call   c010b928 <sll_begin>
c0104349:	89 45 f4             	mov    %eax,-0xc(%ebp)
c010434c:	eb 4c                	jmp    c010439a <paging_destroyPageDir+0x1ce>
c010434e:	8b 45 f4             	mov    -0xc(%ebp),%eax
c0104351:	8b 40 04             	mov    0x4(%eax),%eax
c0104354:	89 45 fc             	mov    %eax,-0x4(%ebp)
c0104357:	8b 45 fc             	mov    -0x4(%ebp),%eax
c010435a:	8b 40 04             	mov    0x4(%eax),%eax
c010435d:	3b 45 08             	cmp    0x8(%ebp),%eax
c0104360:	75 2a                	jne    c010438c <paging_destroyPageDir+0x1c0>
c0104362:	8b 15 a0 93 1d c0    	mov    0xc01d93a0,%edx
c0104368:	8b 45 f8             	mov    -0x8(%ebp),%eax
c010436b:	89 44 24 08          	mov    %eax,0x8(%esp)
c010436f:	8b 45 f4             	mov    -0xc(%ebp),%eax
c0104372:	89 44 24 04          	mov    %eax,0x4(%esp)
c0104376:	89 14 24             	mov    %edx,(%esp)
c0104379:	e8 6a 78 00 00       	call   c010bbe8 <sll_removeNode>
c010437e:	8b 45 f4             	mov    -0xc(%ebp),%eax
c0104381:	8b 00                	mov    (%eax),%eax
c0104383:	89 45 f4             	mov    %eax,-0xc(%ebp)
c0104386:	83 7d f4 00          	cmpl   $0x0,-0xc(%ebp)
c010438a:	74 14                	je     c01043a0 <paging_destroyPageDir+0x1d4>
c010438c:	8b 45 f4             	mov    -0xc(%ebp),%eax
c010438f:	89 45 f8             	mov    %eax,-0x8(%ebp)
c0104392:	8b 45 f4             	mov    -0xc(%ebp),%eax
c0104395:	8b 00                	mov    (%eax),%eax
c0104397:	89 45 f4             	mov    %eax,-0xc(%ebp)
c010439a:	83 7d f4 00          	cmpl   $0x0,-0xc(%ebp)
c010439e:	75 ae                	jne    c010434e <paging_destroyPageDir+0x182>
c01043a0:	c7 44 24 0c 01 00 00 	movl   $0x1,0xc(%esp)
c01043a7:	00 
c01043a8:	c7 44 24 08 01 00 00 	movl   $0x1,0x8(%esp)
c01043af:	00 
c01043b0:	c7 44 24 04 00 f0 bf 	movl   $0xffbff000,0x4(%esp)
c01043b7:	ff 
c01043b8:	c7 04 24 00 00 40 ff 	movl   $0xff400000,(%esp)
c01043bf:	e8 67 00 00 00       	call   c010442b <paging_unmapIntern>
c01043c4:	c7 44 24 08 01 00 00 	movl   $0x1,0x8(%esp)
c01043cb:	00 
c01043cc:	c7 44 24 04 fe 03 00 	movl   $0x3fe,0x4(%esp)
c01043d3:	00 
c01043d4:	c7 04 24 00 e0 3f c0 	movl   $0xc03fe000,(%esp)
c01043db:	e8 5c 01 00 00       	call   c010453c <paging_unmapPageTablesIntern>
c01043e0:	c7 44 24 08 01 00 00 	movl   $0x1,0x8(%esp)
c01043e7:	00 
c01043e8:	c7 44 24 04 01 00 00 	movl   $0x1,0x4(%esp)
c01043ef:	00 
c01043f0:	c7 04 24 00 e0 3f c0 	movl   $0xc03fe000,(%esp)
c01043f7:	e8 bb f7 ff ff       	call   c0103bb7 <paging_unmap>
c01043fc:	8b 45 ec             	mov    -0x14(%ebp),%eax
c01043ff:	8d 90 f4 0f 00 00    	lea    0xff4(%eax),%edx
c0104405:	0f b6 02             	movzbl (%edx),%eax
c0104408:	83 e0 fe             	and    $0xfffffffe,%eax
c010440b:	88 02                	mov    %al,(%edx)
c010440d:	c9                   	leave  
c010440e:	c3                   	ret    

c010440f <paging_gdtFinished>:
c010440f:	55                   	push   %ebp
c0104410:	89 e5                	mov    %esp,%ebp
c0104412:	83 ec 08             	sub    $0x8,%esp
c0104415:	0f b6 05 00 10 17 c0 	movzbl 0xc0171000,%eax
c010441c:	83 e0 fe             	and    $0xfffffffe,%eax
c010441f:	a2 00 10 17 c0       	mov    %al,0xc0171000
c0104424:	e8 47 bd ff ff       	call   c0100170 <paging_flushTLB>
c0104429:	c9                   	leave  
c010442a:	c3                   	ret    

c010442b <paging_unmapIntern>:
c010442b:	55                   	push   %ebp
c010442c:	89 e5                	mov    %esp,%ebp
c010442e:	83 ec 28             	sub    $0x28,%esp
c0104431:	8b 45 0c             	mov    0xc(%ebp),%eax
c0104434:	25 00 f0 ff ff       	and    $0xfffff000,%eax
c0104439:	c1 e8 0a             	shr    $0xa,%eax
c010443c:	03 45 08             	add    0x8(%ebp),%eax
c010443f:	89 45 fc             	mov    %eax,-0x4(%ebp)
c0104442:	81 7d 08 00 00 c0 ff 	cmpl   $0xffc00000,0x8(%ebp)
c0104449:	74 2d                	je     c0104478 <paging_unmapIntern+0x4d>
c010444b:	81 7d 08 00 00 40 ff 	cmpl   $0xff400000,0x8(%ebp)
c0104452:	74 24                	je     c0104478 <paging_unmapIntern+0x4d>
c0104454:	c7 44 24 0c 57 02 00 	movl   $0x257,0xc(%esp)
c010445b:	00 
c010445c:	c7 44 24 08 ed cd 16 	movl   $0xc016cded,0x8(%esp)
c0104463:	c0 
c0104464:	c7 44 24 04 b0 cb 16 	movl   $0xc016cbb0,0x4(%esp)
c010446b:	c0 
c010446c:	c7 04 24 f4 cb 16 c0 	movl   $0xc016cbf4,(%esp)
c0104473:	e8 68 35 00 00       	call   c01079e0 <panic>
c0104478:	83 7d 14 01          	cmpl   $0x1,0x14(%ebp)
c010447c:	0f 84 a5 00 00 00    	je     c0104527 <paging_unmapIntern+0xfc>
c0104482:	83 7d 14 00          	cmpl   $0x0,0x14(%ebp)
c0104486:	0f 84 9b 00 00 00    	je     c0104527 <paging_unmapIntern+0xfc>
c010448c:	c7 44 24 0c 58 02 00 	movl   $0x258,0xc(%esp)
c0104493:	00 
c0104494:	c7 44 24 08 ed cd 16 	movl   $0xc016cded,0x8(%esp)
c010449b:	c0 
c010449c:	c7 44 24 04 b0 cb 16 	movl   $0xc016cbb0,0x4(%esp)
c01044a3:	c0 
c01044a4:	c7 04 24 00 ce 16 c0 	movl   $0xc016ce00,(%esp)
c01044ab:	e8 30 35 00 00       	call   c01079e0 <panic>
c01044b0:	eb 75                	jmp    c0104527 <paging_unmapIntern+0xfc>
c01044b2:	8b 45 fc             	mov    -0x4(%ebp),%eax
c01044b5:	0f b6 00             	movzbl (%eax),%eax
c01044b8:	83 e0 01             	and    $0x1,%eax
c01044bb:	84 c0                	test   %al,%al
c01044bd:	74 5d                	je     c010451c <paging_unmapIntern+0xf1>
c01044bf:	83 7d 14 00          	cmpl   $0x0,0x14(%ebp)
c01044c3:	74 38                	je     c01044fd <paging_unmapIntern+0xd2>
c01044c5:	8b 45 fc             	mov    -0x4(%ebp),%eax
c01044c8:	0f b6 40 01          	movzbl 0x1(%eax),%eax
c01044cc:	83 e0 02             	and    $0x2,%eax
c01044cf:	84 c0                	test   %al,%al
c01044d1:	75 2a                	jne    c01044fd <paging_unmapIntern+0xd2>
c01044d3:	8b 45 fc             	mov    -0x4(%ebp),%eax
c01044d6:	8b 00                	mov    (%eax),%eax
c01044d8:	c1 e8 0c             	shr    $0xc,%eax
c01044db:	c1 e0 0c             	shl    $0xc,%eax
c01044de:	3d ff ff 0f 00       	cmp    $0xfffff,%eax
c01044e3:	7e 18                	jle    c01044fd <paging_unmapIntern+0xd2>
c01044e5:	8b 45 fc             	mov    -0x4(%ebp),%eax
c01044e8:	8b 00                	mov    (%eax),%eax
c01044ea:	c1 e8 0c             	shr    $0xc,%eax
c01044ed:	c7 44 24 04 02 00 00 	movl   $0x2,0x4(%esp)
c01044f4:	00 
c01044f5:	89 04 24             	mov    %eax,(%esp)
c01044f8:	e8 1b e8 ff ff       	call   c0102d18 <mm_freeFrame>
c01044fd:	8b 45 fc             	mov    -0x4(%ebp),%eax
c0104500:	0f b6 10             	movzbl (%eax),%edx
c0104503:	83 e2 fe             	and    $0xfffffffe,%edx
c0104506:	88 10                	mov    %dl,(%eax)
c0104508:	81 7d 08 00 00 c0 ff 	cmpl   $0xffc00000,0x8(%ebp)
c010450f:	75 0b                	jne    c010451c <paging_unmapIntern+0xf1>
c0104511:	8b 45 0c             	mov    0xc(%ebp),%eax
c0104514:	89 04 24             	mov    %eax,(%esp)
c0104517:	e8 4e bc ff ff       	call   c010016a <paging_flushAddr>
c010451c:	83 45 fc 04          	addl   $0x4,-0x4(%ebp)
c0104520:	81 45 0c 00 10 00 00 	addl   $0x1000,0xc(%ebp)
c0104527:	83 7d 10 00          	cmpl   $0x0,0x10(%ebp)
c010452b:	0f 95 c0             	setne  %al
c010452e:	83 6d 10 01          	subl   $0x1,0x10(%ebp)
c0104532:	84 c0                	test   %al,%al
c0104534:	0f 85 78 ff ff ff    	jne    c01044b2 <paging_unmapIntern+0x87>
c010453a:	c9                   	leave  
c010453b:	c3                   	ret    

c010453c <paging_unmapPageTablesIntern>:
c010453c:	55                   	push   %ebp
c010453d:	89 e5                	mov    %esp,%ebp
c010453f:	83 ec 28             	sub    $0x28,%esp
c0104542:	81 7d 08 00 f0 3f c0 	cmpl   $0xc03ff000,0x8(%ebp)
c0104549:	75 05                	jne    c0104550 <paging_unmapPageTablesIntern+0x14>
c010454b:	e8 23 f0 ff ff       	call   c0103573 <paging_mapPageDir>
c0104550:	8b 45 0c             	mov    0xc(%ebp),%eax
c0104553:	c1 e0 02             	shl    $0x2,%eax
c0104556:	03 45 08             	add    0x8(%ebp),%eax
c0104559:	89 45 fc             	mov    %eax,-0x4(%ebp)
c010455c:	81 7d 08 00 f0 3f c0 	cmpl   $0xc03ff000,0x8(%ebp)
c0104563:	74 2d                	je     c0104592 <paging_unmapPageTablesIntern+0x56>
c0104565:	81 7d 08 00 e0 3f c0 	cmpl   $0xc03fe000,0x8(%ebp)
c010456c:	74 24                	je     c0104592 <paging_unmapPageTablesIntern+0x56>
c010456e:	c7 44 24 0c 77 02 00 	movl   $0x277,0xc(%esp)
c0104575:	00 
c0104576:	c7 44 24 08 36 ce 16 	movl   $0xc016ce36,0x8(%esp)
c010457d:	c0 
c010457e:	c7 44 24 04 b0 cb 16 	movl   $0xc016cbb0,0x4(%esp)
c0104585:	c0 
c0104586:	c7 04 24 c0 cb 16 c0 	movl   $0xc016cbc0,(%esp)
c010458d:	e8 4e 34 00 00       	call   c01079e0 <panic>
c0104592:	81 7d 0c ff 03 00 00 	cmpl   $0x3ff,0xc(%ebp)
c0104599:	76 24                	jbe    c01045bf <paging_unmapPageTablesIntern+0x83>
c010459b:	c7 44 24 0c 78 02 00 	movl   $0x278,0xc(%esp)
c01045a2:	00 
c01045a3:	c7 44 24 08 36 ce 16 	movl   $0xc016ce36,0x8(%esp)
c01045aa:	c0 
c01045ab:	c7 44 24 04 b0 cb 16 	movl   $0xc016cbb0,0x4(%esp)
c01045b2:	c0 
c01045b3:	c7 04 24 54 ce 16 c0 	movl   $0xc016ce54,(%esp)
c01045ba:	e8 21 34 00 00       	call   c01079e0 <panic>
c01045bf:	81 7d 10 ff 03 00 00 	cmpl   $0x3ff,0x10(%ebp)
c01045c6:	76 4d                	jbe    c0104615 <paging_unmapPageTablesIntern+0xd9>
c01045c8:	c7 44 24 0c 79 02 00 	movl   $0x279,0xc(%esp)
c01045cf:	00 
c01045d0:	c7 44 24 08 36 ce 16 	movl   $0xc016ce36,0x8(%esp)
c01045d7:	c0 
c01045d8:	c7 44 24 04 b0 cb 16 	movl   $0xc016cbb0,0x4(%esp)
c01045df:	c0 
c01045e0:	c7 04 24 90 ce 16 c0 	movl   $0xc016ce90,(%esp)
c01045e7:	e8 f4 33 00 00       	call   c01079e0 <panic>
c01045ec:	eb 27                	jmp    c0104615 <paging_unmapPageTablesIntern+0xd9>
c01045ee:	8b 55 fc             	mov    -0x4(%ebp),%edx
c01045f1:	0f b6 02             	movzbl (%edx),%eax
c01045f4:	83 e0 fe             	and    $0xfffffffe,%eax
c01045f7:	88 02                	mov    %al,(%edx)
c01045f9:	8b 45 fc             	mov    -0x4(%ebp),%eax
c01045fc:	8b 00                	mov    (%eax),%eax
c01045fe:	c1 e8 0c             	shr    $0xc,%eax
c0104601:	c7 44 24 04 02 00 00 	movl   $0x2,0x4(%esp)
c0104608:	00 
c0104609:	89 04 24             	mov    %eax,(%esp)
c010460c:	e8 07 e7 ff ff       	call   c0102d18 <mm_freeFrame>
c0104611:	83 45 fc 04          	addl   $0x4,-0x4(%ebp)
c0104615:	83 7d 10 00          	cmpl   $0x0,0x10(%ebp)
c0104619:	0f 95 c0             	setne  %al
c010461c:	83 6d 10 01          	subl   $0x1,0x10(%ebp)
c0104620:	84 c0                	test   %al,%al
c0104622:	75 ca                	jne    c01045ee <paging_unmapPageTablesIntern+0xb2>
c0104624:	e8 47 bb ff ff       	call   c0100170 <paging_flushTLB>
c0104629:	c9                   	leave  
c010462a:	c3                   	ret    

c010462b <paging_setCOW>:
c010462b:	55                   	push   %ebp
c010462c:	89 e5                	mov    %esp,%ebp
c010462e:	83 ec 18             	sub    $0x18,%esp
c0104631:	81 65 08 00 f0 ff ff 	andl   $0xfffff000,0x8(%ebp)
c0104638:	e9 04 01 00 00       	jmp    c0104741 <paging_setCOW+0x116>
c010463d:	c7 04 24 08 00 00 00 	movl   $0x8,(%esp)
c0104644:	e8 2b d6 ff ff       	call   c0101c74 <kheap_alloc>
c0104649:	89 45 fc             	mov    %eax,-0x4(%ebp)
c010464c:	83 7d fc 00          	cmpl   $0x0,-0x4(%ebp)
c0104650:	75 0c                	jne    c010465e <paging_setCOW+0x33>
c0104652:	c7 04 24 cc ce 16 c0 	movl   $0xc016cecc,(%esp)
c0104659:	e8 82 33 00 00       	call   c01079e0 <panic>
c010465e:	8b 45 0c             	mov    0xc(%ebp),%eax
c0104661:	8b 00                	mov    (%eax),%eax
c0104663:	89 c2                	mov    %eax,%edx
c0104665:	c1 ea 0c             	shr    $0xc,%edx
c0104668:	8b 45 fc             	mov    -0x4(%ebp),%eax
c010466b:	89 10                	mov    %edx,(%eax)
c010466d:	8b 55 fc             	mov    -0x4(%ebp),%edx
c0104670:	8b 45 14             	mov    0x14(%ebp),%eax
c0104673:	89 42 04             	mov    %eax,0x4(%edx)
c0104676:	8b 15 a0 93 1d c0    	mov    0xc01d93a0,%edx
c010467c:	8b 45 fc             	mov    -0x4(%ebp),%eax
c010467f:	89 44 24 04          	mov    %eax,0x4(%esp)
c0104683:	89 14 24             	mov    %edx,(%esp)
c0104686:	e8 0e 74 00 00       	call   c010ba99 <sll_append>
c010468b:	85 c0                	test   %eax,%eax
c010468d:	75 0c                	jne    c010469b <paging_setCOW+0x70>
c010468f:	c7 04 24 cc ce 16 c0 	movl   $0xc016cecc,(%esp)
c0104696:	e8 45 33 00 00       	call   c01079e0 <panic>
c010469b:	8b 45 08             	mov    0x8(%ebp),%eax
c010469e:	25 00 f0 ff ff       	and    $0xfffff000,%eax
c01046a3:	c1 e8 0a             	shr    $0xa,%eax
c01046a6:	2d 00 00 40 00       	sub    $0x400000,%eax
c01046ab:	89 45 f8             	mov    %eax,-0x8(%ebp)
c01046ae:	8b 45 f8             	mov    -0x8(%ebp),%eax
c01046b1:	0f b6 40 01          	movzbl 0x1(%eax),%eax
c01046b5:	83 e0 02             	and    $0x2,%eax
c01046b8:	84 c0                	test   %al,%al
c01046ba:	75 7a                	jne    c0104736 <paging_setCOW+0x10b>
c01046bc:	c7 04 24 08 00 00 00 	movl   $0x8,(%esp)
c01046c3:	e8 ac d5 ff ff       	call   c0101c74 <kheap_alloc>
c01046c8:	89 45 fc             	mov    %eax,-0x4(%ebp)
c01046cb:	83 7d fc 00          	cmpl   $0x0,-0x4(%ebp)
c01046cf:	75 0c                	jne    c01046dd <paging_setCOW+0xb2>
c01046d1:	c7 04 24 cc ce 16 c0 	movl   $0xc016cecc,(%esp)
c01046d8:	e8 03 33 00 00       	call   c01079e0 <panic>
c01046dd:	8b 45 0c             	mov    0xc(%ebp),%eax
c01046e0:	8b 00                	mov    (%eax),%eax
c01046e2:	89 c2                	mov    %eax,%edx
c01046e4:	c1 ea 0c             	shr    $0xc,%edx
c01046e7:	8b 45 fc             	mov    -0x4(%ebp),%eax
c01046ea:	89 10                	mov    %edx,(%eax)
c01046ec:	e8 6f 07 00 00       	call   c0104e60 <proc_getRunning>
c01046f1:	89 c2                	mov    %eax,%edx
c01046f3:	8b 45 fc             	mov    -0x4(%ebp),%eax
c01046f6:	89 50 04             	mov    %edx,0x4(%eax)
c01046f9:	8b 15 a0 93 1d c0    	mov    0xc01d93a0,%edx
c01046ff:	8b 45 fc             	mov    -0x4(%ebp),%eax
c0104702:	89 44 24 04          	mov    %eax,0x4(%esp)
c0104706:	89 14 24             	mov    %edx,(%esp)
c0104709:	e8 8b 73 00 00       	call   c010ba99 <sll_append>
c010470e:	85 c0                	test   %eax,%eax
c0104710:	75 0c                	jne    c010471e <paging_setCOW+0xf3>
c0104712:	c7 04 24 cc ce 16 c0 	movl   $0xc016cecc,(%esp)
c0104719:	e8 c2 32 00 00       	call   c01079e0 <panic>
c010471e:	8b 55 f8             	mov    -0x8(%ebp),%edx
c0104721:	0f b6 42 01          	movzbl 0x1(%edx),%eax
c0104725:	83 c8 02             	or     $0x2,%eax
c0104728:	88 42 01             	mov    %al,0x1(%edx)
c010472b:	8b 55 f8             	mov    -0x8(%ebp),%edx
c010472e:	0f b6 02             	movzbl (%edx),%eax
c0104731:	83 e0 fd             	and    $0xfffffffd,%eax
c0104734:	88 02                	mov    %al,(%edx)
c0104736:	83 45 0c 04          	addl   $0x4,0xc(%ebp)
c010473a:	81 45 08 00 10 00 00 	addl   $0x1000,0x8(%ebp)
c0104741:	83 7d 10 00          	cmpl   $0x0,0x10(%ebp)
c0104745:	0f 95 c0             	setne  %al
c0104748:	83 6d 10 01          	subl   $0x1,0x10(%ebp)
c010474c:	84 c0                	test   %al,%al
c010474e:	0f 85 e9 fe ff ff    	jne    c010463d <paging_setCOW+0x12>
c0104754:	c9                   	leave  
c0104755:	c3                   	ret    

c0104756 <paging_dbg_printCOW>:
c0104756:	55                   	push   %ebp
c0104757:	89 e5                	mov    %esp,%ebp
c0104759:	83 ec 28             	sub    $0x28,%esp
c010475c:	c7 04 24 ee ce 16 c0 	movl   $0xc016ceee,(%esp)
c0104763:	e8 dd 6c 00 00       	call   c010b445 <vid_printf>
c0104768:	a1 a0 93 1d c0       	mov    0xc01d93a0,%eax
c010476d:	89 04 24             	mov    %eax,(%esp)
c0104770:	e8 b3 71 00 00       	call   c010b928 <sll_begin>
c0104775:	89 45 f8             	mov    %eax,-0x8(%ebp)
c0104778:	eb 30                	jmp    c01047aa <paging_dbg_printCOW+0x54>
c010477a:	8b 45 f8             	mov    -0x8(%ebp),%eax
c010477d:	8b 40 04             	mov    0x4(%eax),%eax
c0104780:	89 45 fc             	mov    %eax,-0x4(%ebp)
c0104783:	8b 45 fc             	mov    -0x4(%ebp),%eax
c0104786:	8b 50 04             	mov    0x4(%eax),%edx
c0104789:	8b 45 fc             	mov    -0x4(%ebp),%eax
c010478c:	8b 00                	mov    (%eax),%eax
c010478e:	89 54 24 08          	mov    %edx,0x8(%esp)
c0104792:	89 44 24 04          	mov    %eax,0x4(%esp)
c0104796:	c7 04 24 fb ce 16 c0 	movl   $0xc016cefb,(%esp)
c010479d:	e8 a3 6c 00 00       	call   c010b445 <vid_printf>
c01047a2:	8b 45 f8             	mov    -0x8(%ebp),%eax
c01047a5:	8b 00                	mov    (%eax),%eax
c01047a7:	89 45 f8             	mov    %eax,-0x8(%ebp)
c01047aa:	83 7d f8 00          	cmpl   $0x0,-0x8(%ebp)
c01047ae:	75 ca                	jne    c010477a <paging_dbg_printCOW+0x24>
c01047b0:	c9                   	leave  
c01047b1:	c3                   	ret    

c01047b2 <paging_dbg_getPageCount>:
c01047b2:	55                   	push   %ebp
c01047b3:	89 e5                	mov    %esp,%ebp
c01047b5:	83 ec 28             	sub    $0x28,%esp
c01047b8:	c7 45 f4 00 00 00 00 	movl   $0x0,-0xc(%ebp)
c01047bf:	c7 45 fc 00 f0 3f c0 	movl   $0xc03ff000,-0x4(%ebp)
c01047c6:	e8 a8 ed ff ff       	call   c0103573 <paging_mapPageDir>
c01047cb:	c7 45 ec 00 00 00 00 	movl   $0x0,-0x14(%ebp)
c01047d2:	eb 52                	jmp    c0104826 <paging_dbg_getPageCount+0x74>
c01047d4:	8b 45 ec             	mov    -0x14(%ebp),%eax
c01047d7:	c1 e0 02             	shl    $0x2,%eax
c01047da:	03 45 fc             	add    -0x4(%ebp),%eax
c01047dd:	0f b6 00             	movzbl (%eax),%eax
c01047e0:	83 e0 01             	and    $0x1,%eax
c01047e3:	84 c0                	test   %al,%al
c01047e5:	74 3b                	je     c0104822 <paging_dbg_getPageCount+0x70>
c01047e7:	8b 45 ec             	mov    -0x14(%ebp),%eax
c01047ea:	05 00 fc 0f 00       	add    $0xffc00,%eax
c01047ef:	c1 e0 0c             	shl    $0xc,%eax
c01047f2:	89 45 f8             	mov    %eax,-0x8(%ebp)
c01047f5:	c7 45 f0 00 00 00 00 	movl   $0x0,-0x10(%ebp)
c01047fc:	eb 1b                	jmp    c0104819 <paging_dbg_getPageCount+0x67>
c01047fe:	8b 45 f0             	mov    -0x10(%ebp),%eax
c0104801:	c1 e0 02             	shl    $0x2,%eax
c0104804:	03 45 f8             	add    -0x8(%ebp),%eax
c0104807:	0f b6 00             	movzbl (%eax),%eax
c010480a:	83 e0 01             	and    $0x1,%eax
c010480d:	84 c0                	test   %al,%al
c010480f:	74 04                	je     c0104815 <paging_dbg_getPageCount+0x63>
c0104811:	83 45 f4 01          	addl   $0x1,-0xc(%ebp)
c0104815:	83 45 f0 01          	addl   $0x1,-0x10(%ebp)
c0104819:	81 7d f0 ff 03 00 00 	cmpl   $0x3ff,-0x10(%ebp)
c0104820:	76 dc                	jbe    c01047fe <paging_dbg_getPageCount+0x4c>
c0104822:	83 45 ec 01          	addl   $0x1,-0x14(%ebp)
c0104826:	81 7d ec ff 03 00 00 	cmpl   $0x3ff,-0x14(%ebp)
c010482d:	76 a5                	jbe    c01047d4 <paging_dbg_getPageCount+0x22>
c010482f:	8b 45 f4             	mov    -0xc(%ebp),%eax
c0104832:	c9                   	leave  
c0104833:	c3                   	ret    

c0104834 <paging_dbg_isPTEmpty>:
c0104834:	55                   	push   %ebp
c0104835:	89 e5                	mov    %esp,%ebp
c0104837:	83 ec 14             	sub    $0x14,%esp
c010483a:	c7 45 fc 00 00 00 00 	movl   $0x0,-0x4(%ebp)
c0104841:	eb 1e                	jmp    c0104861 <paging_dbg_isPTEmpty+0x2d>
c0104843:	8b 45 08             	mov    0x8(%ebp),%eax
c0104846:	0f b6 00             	movzbl (%eax),%eax
c0104849:	83 e0 01             	and    $0x1,%eax
c010484c:	84 c0                	test   %al,%al
c010484e:	74 09                	je     c0104859 <paging_dbg_isPTEmpty+0x25>
c0104850:	c7 45 ec 00 00 00 00 	movl   $0x0,-0x14(%ebp)
c0104857:	eb 18                	jmp    c0104871 <paging_dbg_isPTEmpty+0x3d>
c0104859:	83 45 08 04          	addl   $0x4,0x8(%ebp)
c010485d:	83 45 fc 01          	addl   $0x1,-0x4(%ebp)
c0104861:	81 7d fc ff 03 00 00 	cmpl   $0x3ff,-0x4(%ebp)
c0104868:	76 d9                	jbe    c0104843 <paging_dbg_isPTEmpty+0xf>
c010486a:	c7 45 ec 01 00 00 00 	movl   $0x1,-0x14(%ebp)
c0104871:	8b 45 ec             	mov    -0x14(%ebp),%eax
c0104874:	c9                   	leave  
c0104875:	c3                   	ret    

c0104876 <paging_dbg_getPTEntryCount>:
c0104876:	55                   	push   %ebp
c0104877:	89 e5                	mov    %esp,%ebp
c0104879:	83 ec 10             	sub    $0x10,%esp
c010487c:	c7 45 fc 00 00 00 00 	movl   $0x0,-0x4(%ebp)
c0104883:	c7 45 f8 00 00 00 00 	movl   $0x0,-0x8(%ebp)
c010488a:	eb 19                	jmp    c01048a5 <paging_dbg_getPTEntryCount+0x2f>
c010488c:	8b 45 08             	mov    0x8(%ebp),%eax
c010488f:	0f b6 00             	movzbl (%eax),%eax
c0104892:	83 e0 01             	and    $0x1,%eax
c0104895:	84 c0                	test   %al,%al
c0104897:	74 04                	je     c010489d <paging_dbg_getPTEntryCount+0x27>
c0104899:	83 45 fc 01          	addl   $0x1,-0x4(%ebp)
c010489d:	83 45 08 04          	addl   $0x4,0x8(%ebp)
c01048a1:	83 45 f8 01          	addl   $0x1,-0x8(%ebp)
c01048a5:	81 7d f8 ff 03 00 00 	cmpl   $0x3ff,-0x8(%ebp)
c01048ac:	76 de                	jbe    c010488c <paging_dbg_getPTEntryCount+0x16>
c01048ae:	8b 45 fc             	mov    -0x4(%ebp),%eax
c01048b1:	c9                   	leave  
c01048b2:	c3                   	ret    

c01048b3 <paging_dbg_printHeap>:
c01048b3:	55                   	push   %ebp
c01048b4:	89 e5                	mov    %esp,%ebp
c01048b6:	83 ec 18             	sub    $0x18,%esp
c01048b9:	e8 b5 ec ff ff       	call   c0103573 <paging_mapPageDir>
c01048be:	c7 45 fc 00 f0 3f c0 	movl   $0xc03ff000,-0x4(%ebp)
c01048c5:	8b 45 fc             	mov    -0x4(%ebp),%eax
c01048c8:	89 44 24 04          	mov    %eax,0x4(%esp)
c01048cc:	c7 04 24 13 cf 16 c0 	movl   $0xc016cf13,(%esp)
c01048d3:	e8 6d 6b 00 00       	call   c010b445 <vid_printf>
c01048d8:	c7 45 f8 01 03 00 00 	movl   $0x301,-0x8(%ebp)
c01048df:	eb 2f                	jmp    c0104910 <paging_dbg_printHeap+0x5d>
c01048e1:	8b 45 f8             	mov    -0x8(%ebp),%eax
c01048e4:	c1 e0 02             	shl    $0x2,%eax
c01048e7:	03 45 fc             	add    -0x4(%ebp),%eax
c01048ea:	0f b6 00             	movzbl (%eax),%eax
c01048ed:	83 e0 01             	and    $0x1,%eax
c01048f0:	84 c0                	test   %al,%al
c01048f2:	74 18                	je     c010490c <paging_dbg_printHeap+0x59>
c01048f4:	8b 45 f8             	mov    -0x8(%ebp),%eax
c01048f7:	c1 e0 02             	shl    $0x2,%eax
c01048fa:	03 45 fc             	add    -0x4(%ebp),%eax
c01048fd:	89 44 24 04          	mov    %eax,0x4(%esp)
c0104901:	8b 45 f8             	mov    -0x8(%ebp),%eax
c0104904:	89 04 24             	mov    %eax,(%esp)
c0104907:	e8 12 01 00 00       	call   c0104a1e <paging_dbg_printPageTable>
c010490c:	83 45 f8 01          	addl   $0x1,-0x8(%ebp)
c0104910:	81 7d f8 01 03 00 00 	cmpl   $0x301,-0x8(%ebp)
c0104917:	76 c8                	jbe    c01048e1 <paging_dbg_printHeap+0x2e>
c0104919:	c7 04 24 27 cf 16 c0 	movl   $0xc016cf27,(%esp)
c0104920:	e8 20 6b 00 00       	call   c010b445 <vid_printf>
c0104925:	c9                   	leave  
c0104926:	c3                   	ret    

c0104927 <paging_dbg_printPageDir>:
c0104927:	55                   	push   %ebp
c0104928:	89 e5                	mov    %esp,%ebp
c010492a:	83 ec 18             	sub    $0x18,%esp
c010492d:	e8 41 ec ff ff       	call   c0103573 <paging_mapPageDir>
c0104932:	c7 45 fc 00 f0 3f c0 	movl   $0xc03ff000,-0x4(%ebp)
c0104939:	8b 45 fc             	mov    -0x4(%ebp),%eax
c010493c:	89 44 24 04          	mov    %eax,0x4(%esp)
c0104940:	c7 04 24 13 cf 16 c0 	movl   $0xc016cf13,(%esp)
c0104947:	e8 f9 6a 00 00       	call   c010b445 <vid_printf>
c010494c:	c7 45 f8 00 00 00 00 	movl   $0x0,-0x8(%ebp)
c0104953:	eb 3e                	jmp    c0104993 <paging_dbg_printPageDir+0x6c>
c0104955:	8b 45 f8             	mov    -0x8(%ebp),%eax
c0104958:	c1 e0 02             	shl    $0x2,%eax
c010495b:	03 45 fc             	add    -0x4(%ebp),%eax
c010495e:	0f b6 00             	movzbl (%eax),%eax
c0104961:	83 e0 01             	and    $0x1,%eax
c0104964:	84 c0                	test   %al,%al
c0104966:	74 27                	je     c010498f <paging_dbg_printPageDir+0x68>
c0104968:	83 7d 08 00          	cmpl   $0x0,0x8(%ebp)
c010496c:	75 09                	jne    c0104977 <paging_dbg_printPageDir+0x50>
c010496e:	81 7d f8 00 03 00 00 	cmpl   $0x300,-0x8(%ebp)
c0104975:	74 18                	je     c010498f <paging_dbg_printPageDir+0x68>
c0104977:	8b 45 f8             	mov    -0x8(%ebp),%eax
c010497a:	c1 e0 02             	shl    $0x2,%eax
c010497d:	03 45 fc             	add    -0x4(%ebp),%eax
c0104980:	89 44 24 04          	mov    %eax,0x4(%esp)
c0104984:	8b 45 f8             	mov    -0x8(%ebp),%eax
c0104987:	89 04 24             	mov    %eax,(%esp)
c010498a:	e8 8f 00 00 00       	call   c0104a1e <paging_dbg_printPageTable>
c010498f:	83 45 f8 01          	addl   $0x1,-0x8(%ebp)
c0104993:	81 7d f8 ff 03 00 00 	cmpl   $0x3ff,-0x8(%ebp)
c010499a:	76 b9                	jbe    c0104955 <paging_dbg_printPageDir+0x2e>
c010499c:	c7 04 24 27 cf 16 c0 	movl   $0xc016cf27,(%esp)
c01049a3:	e8 9d 6a 00 00       	call   c010b445 <vid_printf>
c01049a8:	c9                   	leave  
c01049a9:	c3                   	ret    

c01049aa <paging_dbg_printUserPageDir>:
c01049aa:	55                   	push   %ebp
c01049ab:	89 e5                	mov    %esp,%ebp
c01049ad:	83 ec 18             	sub    $0x18,%esp
c01049b0:	e8 be eb ff ff       	call   c0103573 <paging_mapPageDir>
c01049b5:	c7 45 fc 00 f0 3f c0 	movl   $0xc03ff000,-0x4(%ebp)
c01049bc:	8b 45 fc             	mov    -0x4(%ebp),%eax
c01049bf:	89 44 24 04          	mov    %eax,0x4(%esp)
c01049c3:	c7 04 24 13 cf 16 c0 	movl   $0xc016cf13,(%esp)
c01049ca:	e8 76 6a 00 00       	call   c010b445 <vid_printf>
c01049cf:	c7 45 f8 00 00 00 00 	movl   $0x0,-0x8(%ebp)
c01049d6:	eb 2f                	jmp    c0104a07 <paging_dbg_printUserPageDir+0x5d>
c01049d8:	8b 45 f8             	mov    -0x8(%ebp),%eax
c01049db:	c1 e0 02             	shl    $0x2,%eax
c01049de:	03 45 fc             	add    -0x4(%ebp),%eax
c01049e1:	0f b6 00             	movzbl (%eax),%eax
c01049e4:	83 e0 01             	and    $0x1,%eax
c01049e7:	84 c0                	test   %al,%al
c01049e9:	74 18                	je     c0104a03 <paging_dbg_printUserPageDir+0x59>
c01049eb:	8b 45 f8             	mov    -0x8(%ebp),%eax
c01049ee:	c1 e0 02             	shl    $0x2,%eax
c01049f1:	03 45 fc             	add    -0x4(%ebp),%eax
c01049f4:	89 44 24 04          	mov    %eax,0x4(%esp)
c01049f8:	8b 45 f8             	mov    -0x8(%ebp),%eax
c01049fb:	89 04 24             	mov    %eax,(%esp)
c01049fe:	e8 1b 00 00 00       	call   c0104a1e <paging_dbg_printPageTable>
c0104a03:	83 45 f8 01          	addl   $0x1,-0x8(%ebp)
c0104a07:	81 7d f8 ff 02 00 00 	cmpl   $0x2ff,-0x8(%ebp)
c0104a0e:	76 c8                	jbe    c01049d8 <paging_dbg_printUserPageDir+0x2e>
c0104a10:	c7 04 24 27 cf 16 c0 	movl   $0xc016cf27,(%esp)
c0104a17:	e8 29 6a 00 00       	call   c010b445 <vid_printf>
c0104a1c:	c9                   	leave  
c0104a1d:	c3                   	ret    

c0104a1e <paging_dbg_printPageTable>:
c0104a1e:	55                   	push   %ebp
c0104a1f:	89 e5                	mov    %esp,%ebp
c0104a21:	83 ec 48             	sub    $0x48,%esp
c0104a24:	8b 45 08             	mov    0x8(%ebp),%eax
c0104a27:	c1 e0 16             	shl    $0x16,%eax
c0104a2a:	89 45 f8             	mov    %eax,-0x8(%ebp)
c0104a2d:	8b 45 08             	mov    0x8(%ebp),%eax
c0104a30:	05 00 fc 0f 00       	add    $0xffc00,%eax
c0104a35:	c1 e0 0c             	shl    $0xc,%eax
c0104a38:	89 45 fc             	mov    %eax,-0x4(%ebp)
c0104a3b:	8b 45 f8             	mov    -0x8(%ebp),%eax
c0104a3e:	05 ff ff 3f 00       	add    $0x3fffff,%eax
c0104a43:	89 45 e4             	mov    %eax,-0x1c(%ebp)
c0104a46:	8b 45 0c             	mov    0xc(%ebp),%eax
c0104a49:	0f b6 00             	movzbl (%eax),%eax
c0104a4c:	83 e0 02             	and    $0x2,%eax
c0104a4f:	84 c0                	test   %al,%al
c0104a51:	74 09                	je     c0104a5c <paging_dbg_printPageTable+0x3e>
c0104a53:	c7 45 e8 77 00 00 00 	movl   $0x77,-0x18(%ebp)
c0104a5a:	eb 07                	jmp    c0104a63 <paging_dbg_printPageTable+0x45>
c0104a5c:	c7 45 e8 72 00 00 00 	movl   $0x72,-0x18(%ebp)
c0104a63:	8b 45 0c             	mov    0xc(%ebp),%eax
c0104a66:	0f b6 00             	movzbl (%eax),%eax
c0104a69:	83 e0 04             	and    $0x4,%eax
c0104a6c:	84 c0                	test   %al,%al
c0104a6e:	74 09                	je     c0104a79 <paging_dbg_printPageTable+0x5b>
c0104a70:	c7 45 ec 75 00 00 00 	movl   $0x75,-0x14(%ebp)
c0104a77:	eb 07                	jmp    c0104a80 <paging_dbg_printPageTable+0x62>
c0104a79:	c7 45 ec 6b 00 00 00 	movl   $0x6b,-0x14(%ebp)
c0104a80:	8b 45 0c             	mov    0xc(%ebp),%eax
c0104a83:	8b 00                	mov    (%eax),%eax
c0104a85:	c1 e8 0c             	shr    $0xc,%eax
c0104a88:	89 c2                	mov    %eax,%edx
c0104a8a:	8b 45 e4             	mov    -0x1c(%ebp),%eax
c0104a8d:	89 44 24 1c          	mov    %eax,0x1c(%esp)
c0104a91:	8b 45 f8             	mov    -0x8(%ebp),%eax
c0104a94:	89 44 24 18          	mov    %eax,0x18(%esp)
c0104a98:	8b 45 fc             	mov    -0x4(%ebp),%eax
c0104a9b:	89 44 24 14          	mov    %eax,0x14(%esp)
c0104a9f:	8b 45 e8             	mov    -0x18(%ebp),%eax
c0104aa2:	89 44 24 10          	mov    %eax,0x10(%esp)
c0104aa6:	8b 45 ec             	mov    -0x14(%ebp),%eax
c0104aa9:	89 44 24 0c          	mov    %eax,0xc(%esp)
c0104aad:	89 54 24 08          	mov    %edx,0x8(%esp)
c0104ab1:	8b 45 08             	mov    0x8(%ebp),%eax
c0104ab4:	89 44 24 04          	mov    %eax,0x4(%esp)
c0104ab8:	c7 04 24 2c cf 16 c0 	movl   $0xc016cf2c,(%esp)
c0104abf:	e8 81 69 00 00       	call   c010b445 <vid_printf>
c0104ac4:	83 7d fc 00          	cmpl   $0x0,-0x4(%ebp)
c0104ac8:	74 73                	je     c0104b3d <paging_dbg_printPageTable+0x11f>
c0104aca:	c7 45 f4 00 00 00 00 	movl   $0x0,-0xc(%ebp)
c0104ad1:	eb 61                	jmp    c0104b34 <paging_dbg_printPageTable+0x116>
c0104ad3:	8b 45 f4             	mov    -0xc(%ebp),%eax
c0104ad6:	c1 e0 02             	shl    $0x2,%eax
c0104ad9:	03 45 fc             	add    -0x4(%ebp),%eax
c0104adc:	0f b6 00             	movzbl (%eax),%eax
c0104adf:	83 e0 01             	and    $0x1,%eax
c0104ae2:	84 c0                	test   %al,%al
c0104ae4:	74 43                	je     c0104b29 <paging_dbg_printPageTable+0x10b>
c0104ae6:	8b 45 f4             	mov    -0xc(%ebp),%eax
c0104ae9:	89 44 24 04          	mov    %eax,0x4(%esp)
c0104aed:	c7 04 24 69 cf 16 c0 	movl   $0xc016cf69,(%esp)
c0104af4:	e8 4c 69 00 00       	call   c010b445 <vid_printf>
c0104af9:	8b 45 f4             	mov    -0xc(%ebp),%eax
c0104afc:	c1 e0 02             	shl    $0x2,%eax
c0104aff:	03 45 fc             	add    -0x4(%ebp),%eax
c0104b02:	89 04 24             	mov    %eax,(%esp)
c0104b05:	e8 35 00 00 00       	call   c0104b3f <paging_dbg_printPage>
c0104b0a:	8b 45 f8             	mov    -0x8(%ebp),%eax
c0104b0d:	05 ff 0f 00 00       	add    $0xfff,%eax
c0104b12:	89 44 24 08          	mov    %eax,0x8(%esp)
c0104b16:	8b 45 f8             	mov    -0x8(%ebp),%eax
c0104b19:	89 44 24 04          	mov    %eax,0x4(%esp)
c0104b1d:	c7 04 24 72 cf 16 c0 	movl   $0xc016cf72,(%esp)
c0104b24:	e8 1c 69 00 00       	call   c010b445 <vid_printf>
c0104b29:	81 45 f8 00 10 00 00 	addl   $0x1000,-0x8(%ebp)
c0104b30:	83 45 f4 01          	addl   $0x1,-0xc(%ebp)
c0104b34:	81 7d f4 ff 03 00 00 	cmpl   $0x3ff,-0xc(%ebp)
c0104b3b:	76 96                	jbe    c0104ad3 <paging_dbg_printPageTable+0xb5>
c0104b3d:	c9                   	leave  
c0104b3e:	c3                   	ret    

c0104b3f <paging_dbg_printPage>:
c0104b3f:	55                   	push   %ebp
c0104b40:	89 e5                	mov    %esp,%ebp
c0104b42:	83 ec 38             	sub    $0x38,%esp
c0104b45:	8b 45 08             	mov    0x8(%ebp),%eax
c0104b48:	0f b6 00             	movzbl (%eax),%eax
c0104b4b:	83 e0 01             	and    $0x1,%eax
c0104b4e:	84 c0                	test   %al,%al
c0104b50:	0f 84 b7 00 00 00    	je     c0104c0d <paging_dbg_printPage+0xce>
c0104b56:	8b 45 08             	mov    0x8(%ebp),%eax
c0104b59:	0f b6 40 01          	movzbl 0x1(%eax),%eax
c0104b5d:	83 e0 02             	and    $0x2,%eax
c0104b60:	84 c0                	test   %al,%al
c0104b62:	74 09                	je     c0104b6d <paging_dbg_printPage+0x2e>
c0104b64:	c7 45 f0 63 00 00 00 	movl   $0x63,-0x10(%ebp)
c0104b6b:	eb 07                	jmp    c0104b74 <paging_dbg_printPage+0x35>
c0104b6d:	c7 45 f0 2d 00 00 00 	movl   $0x2d,-0x10(%ebp)
c0104b74:	8b 45 08             	mov    0x8(%ebp),%eax
c0104b77:	0f b6 40 01          	movzbl 0x1(%eax),%eax
c0104b7b:	83 e0 01             	and    $0x1,%eax
c0104b7e:	84 c0                	test   %al,%al
c0104b80:	74 09                	je     c0104b8b <paging_dbg_printPage+0x4c>
c0104b82:	c7 45 f4 67 00 00 00 	movl   $0x67,-0xc(%ebp)
c0104b89:	eb 07                	jmp    c0104b92 <paging_dbg_printPage+0x53>
c0104b8b:	c7 45 f4 2d 00 00 00 	movl   $0x2d,-0xc(%ebp)
c0104b92:	8b 45 08             	mov    0x8(%ebp),%eax
c0104b95:	0f b6 00             	movzbl (%eax),%eax
c0104b98:	83 e0 02             	and    $0x2,%eax
c0104b9b:	84 c0                	test   %al,%al
c0104b9d:	74 09                	je     c0104ba8 <paging_dbg_printPage+0x69>
c0104b9f:	c7 45 f8 77 00 00 00 	movl   $0x77,-0x8(%ebp)
c0104ba6:	eb 07                	jmp    c0104baf <paging_dbg_printPage+0x70>
c0104ba8:	c7 45 f8 72 00 00 00 	movl   $0x72,-0x8(%ebp)
c0104baf:	8b 45 08             	mov    0x8(%ebp),%eax
c0104bb2:	0f b6 00             	movzbl (%eax),%eax
c0104bb5:	83 e0 04             	and    $0x4,%eax
c0104bb8:	84 c0                	test   %al,%al
c0104bba:	74 09                	je     c0104bc5 <paging_dbg_printPage+0x86>
c0104bbc:	c7 45 fc 75 00 00 00 	movl   $0x75,-0x4(%ebp)
c0104bc3:	eb 07                	jmp    c0104bcc <paging_dbg_printPage+0x8d>
c0104bc5:	c7 45 fc 6b 00 00 00 	movl   $0x6b,-0x4(%ebp)
c0104bcc:	8b 45 08             	mov    0x8(%ebp),%eax
c0104bcf:	8b 00                	mov    (%eax),%eax
c0104bd1:	c1 e8 0c             	shr    $0xc,%eax
c0104bd4:	89 c2                	mov    %eax,%edx
c0104bd6:	8b 45 08             	mov    0x8(%ebp),%eax
c0104bd9:	8b 00                	mov    (%eax),%eax
c0104bdb:	8b 4d f0             	mov    -0x10(%ebp),%ecx
c0104bde:	89 4c 24 18          	mov    %ecx,0x18(%esp)
c0104be2:	8b 4d f4             	mov    -0xc(%ebp),%ecx
c0104be5:	89 4c 24 14          	mov    %ecx,0x14(%esp)
c0104be9:	8b 4d f8             	mov    -0x8(%ebp),%ecx
c0104bec:	89 4c 24 10          	mov    %ecx,0x10(%esp)
c0104bf0:	8b 4d fc             	mov    -0x4(%ebp),%ecx
c0104bf3:	89 4c 24 0c          	mov    %ecx,0xc(%esp)
c0104bf7:	89 54 24 08          	mov    %edx,0x8(%esp)
c0104bfb:	89 44 24 04          	mov    %eax,0x4(%esp)
c0104bff:	c7 04 24 8c cf 16 c0 	movl   $0xc016cf8c,(%esp)
c0104c06:	e8 3a 68 00 00       	call   c010b445 <vid_printf>
c0104c0b:	eb 0c                	jmp    c0104c19 <paging_dbg_printPage+0xda>
c0104c0d:	c7 04 24 ae cf 16 c0 	movl   $0xc016cfae,(%esp)
c0104c14:	e8 2c 68 00 00       	call   c010b445 <vid_printf>
c0104c19:	c9                   	leave  
c0104c1a:	c3                   	ret    
	...

c0104c1c <proc_init>:
c0104c1c:	55                   	push   %ebp
c0104c1d:	89 e5                	mov    %esp,%ebp
c0104c1f:	53                   	push   %ebx
c0104c20:	83 ec 24             	sub    $0x24,%esp
c0104c23:	66 c7 05 e0 b3 1f c0 	movw   $0x0,0xc01fb3e0
c0104c2a:	00 00 
c0104c2c:	c7 44 24 04 8c 97 10 	movl   $0xc010978c,0x4(%esp)
c0104c33:	c0 
c0104c34:	c7 04 24 00 00 00 00 	movl   $0x0,(%esp)
c0104c3b:	e8 5c 40 00 00       	call   c0108c9c <vfs_createProcess>
c0104c40:	85 c0                	test   %eax,%eax
c0104c42:	75 0c                	jne    c0104c50 <proc_init+0x34>
c0104c44:	c7 04 24 b0 cf 16 c0 	movl   $0xc016cfb0,(%esp)
c0104c4b:	e8 90 2d 00 00       	call   c01079e0 <panic>
c0104c50:	0f b7 05 e0 b3 1f c0 	movzwl 0xc01fb3e0,%eax
c0104c57:	0f b7 c0             	movzwl %ax,%eax
c0104c5a:	c1 e0 03             	shl    $0x3,%eax
c0104c5d:	89 c2                	mov    %eax,%edx
c0104c5f:	c1 e2 04             	shl    $0x4,%edx
c0104c62:	01 d0                	add    %edx,%eax
c0104c64:	c6 80 e0 93 1d c0 01 	movb   $0x1,-0x3fe26c20(%eax)
c0104c6b:	0f b7 05 e0 b3 1f c0 	movzwl 0xc01fb3e0,%eax
c0104c72:	0f b7 c0             	movzwl %ax,%eax
c0104c75:	c1 e0 03             	shl    $0x3,%eax
c0104c78:	89 c2                	mov    %eax,%edx
c0104c7a:	c1 e2 04             	shl    $0x4,%edx
c0104c7d:	01 d0                	add    %edx,%eax
c0104c7f:	66 c7 80 e2 93 1d c0 	movw   $0x0,-0x3fe26c1e(%eax)
c0104c86:	00 00 
c0104c88:	0f b7 05 e0 b3 1f c0 	movzwl 0xc01fb3e0,%eax
c0104c8f:	0f b7 c0             	movzwl %ax,%eax
c0104c92:	c1 e0 03             	shl    $0x3,%eax
c0104c95:	89 c2                	mov    %eax,%edx
c0104c97:	c1 e2 04             	shl    $0x4,%edx
c0104c9a:	01 d0                	add    %edx,%eax
c0104c9c:	66 c7 80 e4 93 1d c0 	movw   $0x0,-0x3fe26c1c(%eax)
c0104ca3:	00 00 
c0104ca5:	0f b7 05 e0 b3 1f c0 	movzwl 0xc01fb3e0,%eax
c0104cac:	0f b7 c0             	movzwl %ax,%eax
c0104caf:	c1 e0 03             	shl    $0x3,%eax
c0104cb2:	89 c2                	mov    %eax,%edx
c0104cb4:	c1 e2 04             	shl    $0x4,%edx
c0104cb7:	01 d0                	add    %edx,%eax
c0104cb9:	c7 80 ec 93 1d c0 00 	movl   $0x0,-0x3fe26c14(%eax)
c0104cc0:	00 00 00 
c0104cc3:	0f b7 05 e0 b3 1f c0 	movzwl 0xc01fb3e0,%eax
c0104cca:	0f b7 c0             	movzwl %ax,%eax
c0104ccd:	c1 e0 03             	shl    $0x3,%eax
c0104cd0:	89 c2                	mov    %eax,%edx
c0104cd2:	c1 e2 04             	shl    $0x4,%edx
c0104cd5:	01 d0                	add    %edx,%eax
c0104cd7:	c7 80 f0 93 1d c0 00 	movl   $0x0,-0x3fe26c10(%eax)
c0104cde:	00 00 00 
c0104ce1:	0f b7 05 e0 b3 1f c0 	movzwl 0xc01fb3e0,%eax
c0104ce8:	0f b7 c0             	movzwl %ax,%eax
c0104ceb:	c1 e0 03             	shl    $0x3,%eax
c0104cee:	89 c2                	mov    %eax,%edx
c0104cf0:	c1 e2 04             	shl    $0x4,%edx
c0104cf3:	01 d0                	add    %edx,%eax
c0104cf5:	c7 80 f4 93 1d c0 00 	movl   $0x0,-0x3fe26c0c(%eax)
c0104cfc:	00 00 00 
c0104cff:	0f b7 05 e0 b3 1f c0 	movzwl 0xc01fb3e0,%eax
c0104d06:	0f b7 c0             	movzwl %ax,%eax
c0104d09:	c1 e0 03             	shl    $0x3,%eax
c0104d0c:	89 c2                	mov    %eax,%edx
c0104d0e:	c1 e2 04             	shl    $0x4,%edx
c0104d11:	01 d0                	add    %edx,%eax
c0104d13:	c7 80 50 94 1d c0 00 	movl   $0x0,-0x3fe26bb0(%eax)
c0104d1a:	00 00 00 
c0104d1d:	c7 80 54 94 1d c0 00 	movl   $0x0,-0x3fe26bac(%eax)
c0104d24:	00 00 00 
c0104d27:	0f b7 05 e0 b3 1f c0 	movzwl 0xc01fb3e0,%eax
c0104d2e:	0f b7 d8             	movzwl %ax,%ebx
c0104d31:	e8 33 e8 ff ff       	call   c0103569 <paging_getProc0PD>
c0104d36:	89 c1                	mov    %eax,%ecx
c0104d38:	81 e1 ff ff ff 3f    	and    $0x3fffffff,%ecx
c0104d3e:	89 d8                	mov    %ebx,%eax
c0104d40:	c1 e0 03             	shl    $0x3,%eax
c0104d43:	89 c2                	mov    %eax,%edx
c0104d45:	c1 e2 04             	shl    $0x4,%edx
c0104d48:	01 d0                	add    %edx,%eax
c0104d4a:	89 88 e8 93 1d c0    	mov    %ecx,-0x3fe26c18(%eax)
c0104d50:	66 c7 45 fa 00 00    	movw   $0x0,-0x6(%ebp)
c0104d56:	eb 2c                	jmp    c0104d84 <proc_init+0x168>
c0104d58:	0f b7 05 e0 b3 1f c0 	movzwl 0xc01fb3e0,%eax
c0104d5f:	0f b7 c0             	movzwl %ax,%eax
c0104d62:	0f b7 4d fa          	movzwl -0x6(%ebp),%ecx
c0104d66:	01 c0                	add    %eax,%eax
c0104d68:	89 c2                	mov    %eax,%edx
c0104d6a:	c1 e2 04             	shl    $0x4,%edx
c0104d6d:	01 d0                	add    %edx,%eax
c0104d6f:	01 c8                	add    %ecx,%eax
c0104d71:	83 c0 08             	add    $0x8,%eax
c0104d74:	c7 04 85 ec 93 1d c0 	movl   $0xffffffff,-0x3fe26c14(,%eax,4)
c0104d7b:	ff ff ff ff 
c0104d7f:	66 83 45 fa 01       	addw   $0x1,-0x6(%ebp)
c0104d84:	66 83 7d fa 0f       	cmpw   $0xf,-0x6(%ebp)
c0104d89:	76 cd                	jbe    c0104d58 <proc_init+0x13c>
c0104d8b:	0f b7 05 e0 b3 1f c0 	movzwl 0xc01fb3e0,%eax
c0104d92:	0f b7 c0             	movzwl %ax,%eax
c0104d95:	c1 e0 03             	shl    $0x3,%eax
c0104d98:	89 c2                	mov    %eax,%edx
c0104d9a:	c1 e2 04             	shl    $0x4,%edx
c0104d9d:	01 d0                	add    %edx,%eax
c0104d9f:	83 c0 70             	add    $0x70,%eax
c0104da2:	05 e0 93 1d c0       	add    $0xc01d93e0,%eax
c0104da7:	83 c0 08             	add    $0x8,%eax
c0104daa:	c7 44 24 08 05 00 00 	movl   $0x5,0x8(%esp)
c0104db1:	00 
c0104db2:	c7 44 24 04 d0 cf 16 	movl   $0xc016cfd0,0x4(%esp)
c0104db9:	c0 
c0104dba:	89 04 24             	mov    %eax,(%esp)
c0104dbd:	e8 d5 73 00 00       	call   c010c197 <memcpy>
c0104dc2:	0f b7 05 e0 b3 1f c0 	movzwl 0xc01fb3e0,%eax
c0104dc9:	0f b7 c0             	movzwl %ax,%eax
c0104dcc:	c1 e0 03             	shl    $0x3,%eax
c0104dcf:	89 c2                	mov    %eax,%edx
c0104dd1:	c1 e2 04             	shl    $0x4,%edx
c0104dd4:	01 d0                	add    %edx,%eax
c0104dd6:	8b 80 e8 93 1d c0    	mov    -0x3fe26c18(%eax),%eax
c0104ddc:	89 04 24             	mov    %eax,(%esp)
c0104ddf:	e8 93 b3 ff ff       	call   c0100177 <paging_exchangePDir>
c0104de4:	c7 44 24 10 00 00 00 	movl   $0x0,0x10(%esp)
c0104deb:	00 
c0104dec:	c7 44 24 0c 03 00 00 	movl   $0x3,0xc(%esp)
c0104df3:	00 
c0104df4:	c7 44 24 08 01 00 00 	movl   $0x1,0x8(%esp)
c0104dfb:	00 
c0104dfc:	c7 44 24 04 00 00 00 	movl   $0x0,0x4(%esp)
c0104e03:	00 
c0104e04:	c7 04 24 00 f0 bf ff 	movl   $0xffbff000,(%esp)
c0104e0b:	e8 41 ea ff ff       	call   c0103851 <paging_map>
c0104e10:	83 c4 24             	add    $0x24,%esp
c0104e13:	5b                   	pop    %ebx
c0104e14:	5d                   	pop    %ebp
c0104e15:	c3                   	ret    

c0104e16 <proc_getFreePid>:
c0104e16:	55                   	push   %ebp
c0104e17:	89 e5                	mov    %esp,%ebp
c0104e19:	83 ec 14             	sub    $0x14,%esp
c0104e1c:	66 c7 45 fe 01 00    	movw   $0x1,-0x2(%ebp)
c0104e22:	eb 28                	jmp    c0104e4c <proc_getFreePid+0x36>
c0104e24:	0f b7 45 fe          	movzwl -0x2(%ebp),%eax
c0104e28:	c1 e0 03             	shl    $0x3,%eax
c0104e2b:	89 c2                	mov    %eax,%edx
c0104e2d:	c1 e2 04             	shl    $0x4,%edx
c0104e30:	01 d0                	add    %edx,%eax
c0104e32:	0f b6 80 e0 93 1d c0 	movzbl -0x3fe26c20(%eax),%eax
c0104e39:	84 c0                	test   %al,%al
c0104e3b:	75 0a                	jne    c0104e47 <proc_getFreePid+0x31>
c0104e3d:	0f b7 45 fe          	movzwl -0x2(%ebp),%eax
c0104e41:	66 89 45 ee          	mov    %ax,-0x12(%ebp)
c0104e45:	eb 13                	jmp    c0104e5a <proc_getFreePid+0x44>
c0104e47:	66 83 45 fe 01       	addw   $0x1,-0x2(%ebp)
c0104e4c:	66 81 7d fe ff 03    	cmpw   $0x3ff,-0x2(%ebp)
c0104e52:	76 d0                	jbe    c0104e24 <proc_getFreePid+0xe>
c0104e54:	66 c7 45 ee 00 00    	movw   $0x0,-0x12(%ebp)
c0104e5a:	0f b7 45 ee          	movzwl -0x12(%ebp),%eax
c0104e5e:	c9                   	leave  
c0104e5f:	c3                   	ret    

c0104e60 <proc_getRunning>:
c0104e60:	55                   	push   %ebp
c0104e61:	89 e5                	mov    %esp,%ebp
c0104e63:	0f b7 05 e0 b3 1f c0 	movzwl 0xc01fb3e0,%eax
c0104e6a:	0f b7 c0             	movzwl %ax,%eax
c0104e6d:	8d 14 c5 00 00 00 00 	lea    0x0(,%eax,8),%edx
c0104e74:	89 d0                	mov    %edx,%eax
c0104e76:	c1 e0 04             	shl    $0x4,%eax
c0104e79:	8d 04 02             	lea    (%edx,%eax,1),%eax
c0104e7c:	05 e0 93 1d c0       	add    $0xc01d93e0,%eax
c0104e81:	5d                   	pop    %ebp
c0104e82:	c3                   	ret    

c0104e83 <proc_getByPid>:
c0104e83:	55                   	push   %ebp
c0104e84:	89 e5                	mov    %esp,%ebp
c0104e86:	83 ec 18             	sub    $0x18,%esp
c0104e89:	8b 45 08             	mov    0x8(%ebp),%eax
c0104e8c:	66 89 45 fc          	mov    %ax,-0x4(%ebp)
c0104e90:	66 81 7d fc ff 03    	cmpw   $0x3ff,-0x4(%ebp)
c0104e96:	76 24                	jbe    c0104ebc <proc_getByPid+0x39>
c0104e98:	c7 44 24 0c 49 00 00 	movl   $0x49,0xc(%esp)
c0104e9f:	00 
c0104ea0:	c7 44 24 08 d5 cf 16 	movl   $0xc016cfd5,0x8(%esp)
c0104ea7:	c0 
c0104ea8:	c7 44 24 04 e3 cf 16 	movl   $0xc016cfe3,0x4(%esp)
c0104eaf:	c0 
c0104eb0:	c7 04 24 f0 cf 16 c0 	movl   $0xc016cff0,(%esp)
c0104eb7:	e8 24 2b 00 00       	call   c01079e0 <panic>
c0104ebc:	0f b7 45 fc          	movzwl -0x4(%ebp),%eax
c0104ec0:	8d 14 c5 00 00 00 00 	lea    0x0(,%eax,8),%edx
c0104ec7:	89 d0                	mov    %edx,%eax
c0104ec9:	c1 e0 04             	shl    $0x4,%eax
c0104ecc:	8d 04 02             	lea    (%edx,%eax,1),%eax
c0104ecf:	05 e0 93 1d c0       	add    $0xc01d93e0,%eax
c0104ed4:	c9                   	leave  
c0104ed5:	c3                   	ret    

c0104ed6 <proc_switch>:
c0104ed6:	55                   	push   %ebp
c0104ed7:	89 e5                	mov    %esp,%ebp
c0104ed9:	83 ec 08             	sub    $0x8,%esp
c0104edc:	e8 25 12 00 00       	call   c0106106 <sched_perform>
c0104ee1:	0f b7 40 02          	movzwl 0x2(%eax),%eax
c0104ee5:	0f b7 c0             	movzwl %ax,%eax
c0104ee8:	89 04 24             	mov    %eax,(%esp)
c0104eeb:	e8 02 00 00 00       	call   c0104ef2 <proc_switchTo>
c0104ef0:	c9                   	leave  
c0104ef1:	c3                   	ret    

c0104ef2 <proc_switchTo>:
c0104ef2:	55                   	push   %ebp
c0104ef3:	89 e5                	mov    %esp,%ebp
c0104ef5:	57                   	push   %edi
c0104ef6:	56                   	push   %esi
c0104ef7:	53                   	push   %ebx
c0104ef8:	83 ec 2c             	sub    $0x2c,%esp
c0104efb:	8b 45 08             	mov    0x8(%ebp),%eax
c0104efe:	66 89 45 dc          	mov    %ax,-0x24(%ebp)
c0104f02:	0f b7 05 e0 b3 1f c0 	movzwl 0xc01fb3e0,%eax
c0104f09:	0f b7 c0             	movzwl %ax,%eax
c0104f0c:	8d 14 c5 00 00 00 00 	lea    0x0(,%eax,8),%edx
c0104f13:	89 d0                	mov    %edx,%eax
c0104f15:	c1 e0 04             	shl    $0x4,%eax
c0104f18:	8d 04 02             	lea    (%edx,%eax,1),%eax
c0104f1b:	05 e0 93 1d c0       	add    $0xc01d93e0,%eax
c0104f20:	89 45 ec             	mov    %eax,-0x14(%ebp)
c0104f23:	a1 c8 93 1d c0       	mov    0xc01d93c8,%eax
c0104f28:	8b 15 cc 93 1d c0    	mov    0xc01d93cc,%edx
c0104f2e:	09 d0                	or     %edx,%eax
c0104f30:	85 c0                	test   %eax,%eax
c0104f32:	74 3a                	je     c0104f6e <proc_switchTo+0x7c>
c0104f34:	8b 45 ec             	mov    -0x14(%ebp),%eax
c0104f37:	8b 70 70             	mov    0x70(%eax),%esi
c0104f3a:	8b 78 74             	mov    0x74(%eax),%edi
c0104f3d:	e8 8b b1 ff ff       	call   c01000cd <cpu_rdtsc>
c0104f42:	89 45 d0             	mov    %eax,-0x30(%ebp)
c0104f45:	89 55 d4             	mov    %edx,-0x2c(%ebp)
c0104f48:	a1 c8 93 1d c0       	mov    0xc01d93c8,%eax
c0104f4d:	8b 15 cc 93 1d c0    	mov    0xc01d93cc,%edx
c0104f53:	8b 4d d0             	mov    -0x30(%ebp),%ecx
c0104f56:	8b 5d d4             	mov    -0x2c(%ebp),%ebx
c0104f59:	29 c1                	sub    %eax,%ecx
c0104f5b:	19 d3                	sbb    %edx,%ebx
c0104f5d:	89 c8                	mov    %ecx,%eax
c0104f5f:	89 da                	mov    %ebx,%edx
c0104f61:	01 f0                	add    %esi,%eax
c0104f63:	11 fa                	adc    %edi,%edx
c0104f65:	8b 4d ec             	mov    -0x14(%ebp),%ecx
c0104f68:	89 41 70             	mov    %eax,0x70(%ecx)
c0104f6b:	89 51 74             	mov    %edx,0x74(%ecx)
c0104f6e:	0f b7 05 e0 b3 1f c0 	movzwl 0xc01fb3e0,%eax
c0104f75:	66 39 45 dc          	cmp    %ax,-0x24(%ebp)
c0104f79:	74 75                	je     c0104ff0 <proc_switchTo+0xfe>
c0104f7b:	8b 45 ec             	mov    -0x14(%ebp),%eax
c0104f7e:	83 c0 18             	add    $0x18,%eax
c0104f81:	89 04 24             	mov    %eax,(%esp)
c0104f84:	e8 5d b1 ff ff       	call   c01000e6 <proc_save>
c0104f89:	85 c0                	test   %eax,%eax
c0104f8b:	75 63                	jne    c0104ff0 <proc_switchTo+0xfe>
c0104f8d:	0f b7 45 dc          	movzwl -0x24(%ebp),%eax
c0104f91:	66 a3 e0 b3 1f c0    	mov    %ax,0xc01fb3e0
c0104f97:	0f b7 05 e0 b3 1f c0 	movzwl 0xc01fb3e0,%eax
c0104f9e:	0f b7 c0             	movzwl %ax,%eax
c0104fa1:	8d 14 c5 00 00 00 00 	lea    0x0(,%eax,8),%edx
c0104fa8:	89 d0                	mov    %edx,%eax
c0104faa:	c1 e0 04             	shl    $0x4,%eax
c0104fad:	8d 04 02             	lea    (%edx,%eax,1),%eax
c0104fb0:	05 e0 93 1d c0       	add    $0xc01d93e0,%eax
c0104fb5:	89 45 ec             	mov    %eax,-0x14(%ebp)
c0104fb8:	8b 45 ec             	mov    -0x14(%ebp),%eax
c0104fbb:	89 04 24             	mov    %eax,(%esp)
c0104fbe:	e8 79 11 00 00       	call   c010613c <sched_setRunning>
c0104fc3:	e8 62 b8 ff ff       	call   c010082a <tss_removeIOMap>
c0104fc8:	e8 00 b1 ff ff       	call   c01000cd <cpu_rdtsc>
c0104fcd:	a3 c8 93 1d c0       	mov    %eax,0xc01d93c8
c0104fd2:	89 15 cc 93 1d c0    	mov    %edx,0xc01d93cc
c0104fd8:	8b 45 ec             	mov    -0x14(%ebp),%eax
c0104fdb:	8d 50 18             	lea    0x18(%eax),%edx
c0104fde:	8b 45 ec             	mov    -0x14(%ebp),%eax
c0104fe1:	8b 40 08             	mov    0x8(%eax),%eax
c0104fe4:	89 54 24 04          	mov    %edx,0x4(%esp)
c0104fe8:	89 04 24             	mov    %eax,(%esp)
c0104feb:	e8 33 b1 ff ff       	call   c0100123 <proc_resume>
c0104ff0:	a1 c0 93 1d c0       	mov    0xc01d93c0,%eax
c0104ff5:	85 c0                	test   %eax,%eax
c0104ff7:	74 17                	je     c0105010 <proc_switchTo+0x11e>
c0104ff9:	a1 c0 93 1d c0       	mov    0xc01d93c0,%eax
c0104ffe:	89 04 24             	mov    %eax,(%esp)
c0105001:	e8 91 08 00 00       	call   c0105897 <proc_destroy>
c0105006:	c7 05 c0 93 1d c0 00 	movl   $0x0,0xc01d93c0
c010500d:	00 00 00 
c0105010:	83 c4 2c             	add    $0x2c,%esp
c0105013:	5b                   	pop    %ebx
c0105014:	5e                   	pop    %esi
c0105015:	5f                   	pop    %edi
c0105016:	5d                   	pop    %ebp
c0105017:	c3                   	ret    

c0105018 <proc_requestIOPorts>:
c0105018:	55                   	push   %ebp
c0105019:	89 e5                	mov    %esp,%ebp
c010501b:	53                   	push   %ebx
c010501c:	83 ec 24             	sub    $0x24,%esp
c010501f:	8b 45 08             	mov    0x8(%ebp),%eax
c0105022:	8b 55 0c             	mov    0xc(%ebp),%edx
c0105025:	66 89 45 e8          	mov    %ax,-0x18(%ebp)
c0105029:	66 89 55 e4          	mov    %dx,-0x1c(%ebp)
c010502d:	0f b7 05 e0 b3 1f c0 	movzwl 0xc01fb3e0,%eax
c0105034:	0f b7 c0             	movzwl %ax,%eax
c0105037:	8d 14 c5 00 00 00 00 	lea    0x0(,%eax,8),%edx
c010503e:	89 d0                	mov    %edx,%eax
c0105040:	c1 e0 04             	shl    $0x4,%eax
c0105043:	8d 04 02             	lea    (%edx,%eax,1),%eax
c0105046:	05 e0 93 1d c0       	add    $0xc01d93e0,%eax
c010504b:	89 45 f4             	mov    %eax,-0xc(%ebp)
c010504e:	8b 45 f4             	mov    -0xc(%ebp),%eax
c0105051:	8b 40 6c             	mov    0x6c(%eax),%eax
c0105054:	85 c0                	test   %eax,%eax
c0105056:	75 2a                	jne    c0105082 <proc_requestIOPorts+0x6a>
c0105058:	c7 04 24 ff 1f 00 00 	movl   $0x1fff,(%esp)
c010505f:	e8 10 cc ff ff       	call   c0101c74 <kheap_alloc>
c0105064:	89 c2                	mov    %eax,%edx
c0105066:	8b 45 f4             	mov    -0xc(%ebp),%eax
c0105069:	89 50 6c             	mov    %edx,0x6c(%eax)
c010506c:	8b 45 f4             	mov    -0xc(%ebp),%eax
c010506f:	8b 40 6c             	mov    0x6c(%eax),%eax
c0105072:	85 c0                	test   %eax,%eax
c0105074:	75 0c                	jne    c0105082 <proc_requestIOPorts+0x6a>
c0105076:	c7 45 e0 f5 ff ff ff 	movl   $0xfffffff5,-0x20(%ebp)
c010507d:	e9 b0 00 00 00       	jmp    c0105132 <proc_requestIOPorts+0x11a>
c0105082:	0f b7 45 e4          	movzwl -0x1c(%ebp),%eax
c0105086:	0f b7 55 e8          	movzwl -0x18(%ebp),%edx
c010508a:	8d 04 02             	lea    (%edx,%eax,1),%eax
c010508d:	66 89 45 fa          	mov    %ax,-0x6(%ebp)
c0105091:	66 81 7d e8 f7 00    	cmpw   $0xf7,-0x18(%ebp)
c0105097:	76 08                	jbe    c01050a1 <proc_requestIOPorts+0x89>
c0105099:	66 81 7d e8 ff 00    	cmpw   $0xff,-0x18(%ebp)
c010509f:	76 20                	jbe    c01050c1 <proc_requestIOPorts+0xa9>
c01050a1:	66 81 7d fa f8 00    	cmpw   $0xf8,-0x6(%ebp)
c01050a7:	76 08                	jbe    c01050b1 <proc_requestIOPorts+0x99>
c01050a9:	66 81 7d fa 00 01    	cmpw   $0x100,-0x6(%ebp)
c01050af:	76 10                	jbe    c01050c1 <proc_requestIOPorts+0xa9>
c01050b1:	66 81 7d e8 f7 00    	cmpw   $0xf7,-0x18(%ebp)
c01050b7:	77 53                	ja     c010510c <proc_requestIOPorts+0xf4>
c01050b9:	66 81 7d fa 00 01    	cmpw   $0x100,-0x6(%ebp)
c01050bf:	76 4b                	jbe    c010510c <proc_requestIOPorts+0xf4>
c01050c1:	c7 45 e0 ef ff ff ff 	movl   $0xffffffef,-0x20(%ebp)
c01050c8:	eb 68                	jmp    c0105132 <proc_requestIOPorts+0x11a>
c01050ca:	8b 45 f4             	mov    -0xc(%ebp),%eax
c01050cd:	8b 50 6c             	mov    0x6c(%eax),%edx
c01050d0:	0f b7 45 e8          	movzwl -0x18(%ebp),%eax
c01050d4:	89 c1                	mov    %eax,%ecx
c01050d6:	66 c1 e9 03          	shr    $0x3,%cx
c01050da:	0f b7 c1             	movzwl %cx,%eax
c01050dd:	8d 1c 02             	lea    (%edx,%eax,1),%ebx
c01050e0:	8b 45 f4             	mov    -0xc(%ebp),%eax
c01050e3:	8b 50 6c             	mov    0x6c(%eax),%edx
c01050e6:	0f b7 c1             	movzwl %cx,%eax
c01050e9:	8d 04 02             	lea    (%edx,%eax,1),%eax
c01050ec:	0f b6 00             	movzbl (%eax),%eax
c01050ef:	89 c2                	mov    %eax,%edx
c01050f1:	0f b7 45 e8          	movzwl -0x18(%ebp),%eax
c01050f5:	89 c1                	mov    %eax,%ecx
c01050f7:	83 e1 07             	and    $0x7,%ecx
c01050fa:	b8 01 00 00 00       	mov    $0x1,%eax
c01050ff:	d3 e0                	shl    %cl,%eax
c0105101:	f7 d0                	not    %eax
c0105103:	21 d0                	and    %edx,%eax
c0105105:	88 03                	mov    %al,(%ebx)
c0105107:	66 83 45 e8 01       	addw   $0x1,-0x18(%ebp)
c010510c:	66 83 7d e4 00       	cmpw   $0x0,-0x1c(%ebp)
c0105111:	0f 95 c0             	setne  %al
c0105114:	66 83 6d e4 01       	subw   $0x1,-0x1c(%ebp)
c0105119:	84 c0                	test   %al,%al
c010511b:	75 ad                	jne    c01050ca <proc_requestIOPorts+0xb2>
c010511d:	8b 45 f4             	mov    -0xc(%ebp),%eax
c0105120:	8b 40 6c             	mov    0x6c(%eax),%eax
c0105123:	89 04 24             	mov    %eax,(%esp)
c0105126:	e8 23 b7 ff ff       	call   c010084e <tss_setIOMap>
c010512b:	c7 45 e0 00 00 00 00 	movl   $0x0,-0x20(%ebp)
c0105132:	8b 45 e0             	mov    -0x20(%ebp),%eax
c0105135:	83 c4 24             	add    $0x24,%esp
c0105138:	5b                   	pop    %ebx
c0105139:	5d                   	pop    %ebp
c010513a:	c3                   	ret    

c010513b <proc_releaseIOPorts>:
c010513b:	55                   	push   %ebp
c010513c:	89 e5                	mov    %esp,%ebp
c010513e:	53                   	push   %ebx
c010513f:	83 ec 24             	sub    $0x24,%esp
c0105142:	8b 45 08             	mov    0x8(%ebp),%eax
c0105145:	8b 55 0c             	mov    0xc(%ebp),%edx
c0105148:	66 89 45 e8          	mov    %ax,-0x18(%ebp)
c010514c:	66 89 55 e4          	mov    %dx,-0x1c(%ebp)
c0105150:	0f b7 05 e0 b3 1f c0 	movzwl 0xc01fb3e0,%eax
c0105157:	0f b7 c0             	movzwl %ax,%eax
c010515a:	8d 14 c5 00 00 00 00 	lea    0x0(,%eax,8),%edx
c0105161:	89 d0                	mov    %edx,%eax
c0105163:	c1 e0 04             	shl    $0x4,%eax
c0105166:	8d 04 02             	lea    (%edx,%eax,1),%eax
c0105169:	05 e0 93 1d c0       	add    $0xc01d93e0,%eax
c010516e:	89 45 f4             	mov    %eax,-0xc(%ebp)
c0105171:	8b 45 f4             	mov    -0xc(%ebp),%eax
c0105174:	8b 40 6c             	mov    0x6c(%eax),%eax
c0105177:	85 c0                	test   %eax,%eax
c0105179:	75 0c                	jne    c0105187 <proc_releaseIOPorts+0x4c>
c010517b:	c7 45 e0 ee ff ff ff 	movl   $0xffffffee,-0x20(%ebp)
c0105182:	e9 ae 00 00 00       	jmp    c0105235 <proc_releaseIOPorts+0xfa>
c0105187:	0f b7 45 e4          	movzwl -0x1c(%ebp),%eax
c010518b:	0f b7 55 e8          	movzwl -0x18(%ebp),%edx
c010518f:	8d 04 02             	lea    (%edx,%eax,1),%eax
c0105192:	66 89 45 fa          	mov    %ax,-0x6(%ebp)
c0105196:	66 81 7d e8 f7 00    	cmpw   $0xf7,-0x18(%ebp)
c010519c:	76 08                	jbe    c01051a6 <proc_releaseIOPorts+0x6b>
c010519e:	66 81 7d e8 ff 00    	cmpw   $0xff,-0x18(%ebp)
c01051a4:	76 20                	jbe    c01051c6 <proc_releaseIOPorts+0x8b>
c01051a6:	66 81 7d fa f8 00    	cmpw   $0xf8,-0x6(%ebp)
c01051ac:	76 08                	jbe    c01051b6 <proc_releaseIOPorts+0x7b>
c01051ae:	66 81 7d fa 00 01    	cmpw   $0x100,-0x6(%ebp)
c01051b4:	76 10                	jbe    c01051c6 <proc_releaseIOPorts+0x8b>
c01051b6:	66 81 7d e8 f7 00    	cmpw   $0xf7,-0x18(%ebp)
c01051bc:	77 51                	ja     c010520f <proc_releaseIOPorts+0xd4>
c01051be:	66 81 7d fa 00 01    	cmpw   $0x100,-0x6(%ebp)
c01051c4:	76 49                	jbe    c010520f <proc_releaseIOPorts+0xd4>
c01051c6:	c7 45 e0 ef ff ff ff 	movl   $0xffffffef,-0x20(%ebp)
c01051cd:	eb 66                	jmp    c0105235 <proc_releaseIOPorts+0xfa>
c01051cf:	8b 45 f4             	mov    -0xc(%ebp),%eax
c01051d2:	8b 50 6c             	mov    0x6c(%eax),%edx
c01051d5:	0f b7 45 e8          	movzwl -0x18(%ebp),%eax
c01051d9:	89 c1                	mov    %eax,%ecx
c01051db:	66 c1 e9 03          	shr    $0x3,%cx
c01051df:	0f b7 c1             	movzwl %cx,%eax
c01051e2:	8d 1c 02             	lea    (%edx,%eax,1),%ebx
c01051e5:	8b 45 f4             	mov    -0xc(%ebp),%eax
c01051e8:	8b 50 6c             	mov    0x6c(%eax),%edx
c01051eb:	0f b7 c1             	movzwl %cx,%eax
c01051ee:	8d 04 02             	lea    (%edx,%eax,1),%eax
c01051f1:	0f b6 00             	movzbl (%eax),%eax
c01051f4:	89 c2                	mov    %eax,%edx
c01051f6:	0f b7 45 e8          	movzwl -0x18(%ebp),%eax
c01051fa:	89 c1                	mov    %eax,%ecx
c01051fc:	83 e1 07             	and    $0x7,%ecx
c01051ff:	b8 01 00 00 00       	mov    $0x1,%eax
c0105204:	d3 e0                	shl    %cl,%eax
c0105206:	09 d0                	or     %edx,%eax
c0105208:	88 03                	mov    %al,(%ebx)
c010520a:	66 83 45 e8 01       	addw   $0x1,-0x18(%ebp)
c010520f:	66 83 7d e4 00       	cmpw   $0x0,-0x1c(%ebp)
c0105214:	0f 95 c0             	setne  %al
c0105217:	66 83 6d e4 01       	subw   $0x1,-0x1c(%ebp)
c010521c:	84 c0                	test   %al,%al
c010521e:	75 af                	jne    c01051cf <proc_releaseIOPorts+0x94>
c0105220:	8b 45 f4             	mov    -0xc(%ebp),%eax
c0105223:	8b 40 6c             	mov    0x6c(%eax),%eax
c0105226:	89 04 24             	mov    %eax,(%esp)
c0105229:	e8 20 b6 ff ff       	call   c010084e <tss_setIOMap>
c010522e:	c7 45 e0 00 00 00 00 	movl   $0x0,-0x20(%ebp)
c0105235:	8b 45 e0             	mov    -0x20(%ebp),%eax
c0105238:	83 c4 24             	add    $0x24,%esp
c010523b:	5b                   	pop    %ebx
c010523c:	5d                   	pop    %ebp
c010523d:	c3                   	ret    

c010523e <proc_fdToFile>:
c010523e:	55                   	push   %ebp
c010523f:	89 e5                	mov    %esp,%ebp
c0105241:	83 ec 18             	sub    $0x18,%esp
c0105244:	8b 45 08             	mov    0x8(%ebp),%eax
c0105247:	66 89 45 ec          	mov    %ax,-0x14(%ebp)
c010524b:	66 83 7d ec 0f       	cmpw   $0xf,-0x14(%ebp)
c0105250:	76 09                	jbe    c010525b <proc_fdToFile+0x1d>
c0105252:	c7 45 e8 fa ff ff ff 	movl   $0xfffffffa,-0x18(%ebp)
c0105259:	eb 42                	jmp    c010529d <proc_fdToFile+0x5f>
c010525b:	0f b7 05 e0 b3 1f c0 	movzwl 0xc01fb3e0,%eax
c0105262:	0f b7 c0             	movzwl %ax,%eax
c0105265:	8d 14 c5 00 00 00 00 	lea    0x0(,%eax,8),%edx
c010526c:	89 d0                	mov    %edx,%eax
c010526e:	c1 e0 04             	shl    $0x4,%eax
c0105271:	8d 04 02             	lea    (%edx,%eax,1),%eax
c0105274:	8d 90 e0 93 1d c0    	lea    -0x3fe26c20(%eax),%edx
c010527a:	0f b7 45 ec          	movzwl -0x14(%ebp),%eax
c010527e:	83 c0 08             	add    $0x8,%eax
c0105281:	8b 44 82 0c          	mov    0xc(%edx,%eax,4),%eax
c0105285:	89 45 fc             	mov    %eax,-0x4(%ebp)
c0105288:	83 7d fc ff          	cmpl   $0xffffffff,-0x4(%ebp)
c010528c:	75 09                	jne    c0105297 <proc_fdToFile+0x59>
c010528e:	c7 45 e8 fa ff ff ff 	movl   $0xfffffffa,-0x18(%ebp)
c0105295:	eb 06                	jmp    c010529d <proc_fdToFile+0x5f>
c0105297:	8b 45 fc             	mov    -0x4(%ebp),%eax
c010529a:	89 45 e8             	mov    %eax,-0x18(%ebp)
c010529d:	8b 45 e8             	mov    -0x18(%ebp),%eax
c01052a0:	c9                   	leave  
c01052a1:	c3                   	ret    

c01052a2 <proc_getFreeFd>:
c01052a2:	55                   	push   %ebp
c01052a3:	89 e5                	mov    %esp,%ebp
c01052a5:	83 ec 14             	sub    $0x14,%esp
c01052a8:	0f b7 05 e0 b3 1f c0 	movzwl 0xc01fb3e0,%eax
c01052af:	0f b7 c0             	movzwl %ax,%eax
c01052b2:	c1 e0 03             	shl    $0x3,%eax
c01052b5:	89 c2                	mov    %eax,%edx
c01052b7:	c1 e2 04             	shl    $0x4,%edx
c01052ba:	01 d0                	add    %edx,%eax
c01052bc:	83 c0 20             	add    $0x20,%eax
c01052bf:	05 e0 93 1d c0       	add    $0xc01d93e0,%eax
c01052c4:	83 c0 0c             	add    $0xc,%eax
c01052c7:	89 45 fc             	mov    %eax,-0x4(%ebp)
c01052ca:	66 c7 45 fa 00 00    	movw   $0x0,-0x6(%ebp)
c01052d0:	eb 1f                	jmp    c01052f1 <proc_getFreeFd+0x4f>
c01052d2:	0f b7 45 fa          	movzwl -0x6(%ebp),%eax
c01052d6:	c1 e0 02             	shl    $0x2,%eax
c01052d9:	03 45 fc             	add    -0x4(%ebp),%eax
c01052dc:	8b 00                	mov    (%eax),%eax
c01052de:	83 f8 ff             	cmp    $0xffffffff,%eax
c01052e1:	75 09                	jne    c01052ec <proc_getFreeFd+0x4a>
c01052e3:	0f b7 45 fa          	movzwl -0x6(%ebp),%eax
c01052e7:	89 45 ec             	mov    %eax,-0x14(%ebp)
c01052ea:	eb 13                	jmp    c01052ff <proc_getFreeFd+0x5d>
c01052ec:	66 83 45 fa 01       	addw   $0x1,-0x6(%ebp)
c01052f1:	66 83 7d fa 0f       	cmpw   $0xf,-0x6(%ebp)
c01052f6:	76 da                	jbe    c01052d2 <proc_getFreeFd+0x30>
c01052f8:	c7 45 ec fd ff ff ff 	movl   $0xfffffffd,-0x14(%ebp)
c01052ff:	8b 45 ec             	mov    -0x14(%ebp),%eax
c0105302:	c9                   	leave  
c0105303:	c3                   	ret    

c0105304 <proc_assocFd>:
c0105304:	55                   	push   %ebp
c0105305:	89 e5                	mov    %esp,%ebp
c0105307:	83 ec 08             	sub    $0x8,%esp
c010530a:	8b 45 08             	mov    0x8(%ebp),%eax
c010530d:	66 89 45 fc          	mov    %ax,-0x4(%ebp)
c0105311:	66 83 7d fc 0f       	cmpw   $0xf,-0x4(%ebp)
c0105316:	76 09                	jbe    c0105321 <proc_assocFd+0x1d>
c0105318:	c7 45 f8 fa ff ff ff 	movl   $0xfffffffa,-0x8(%ebp)
c010531f:	eb 5e                	jmp    c010537f <proc_assocFd+0x7b>
c0105321:	0f b7 05 e0 b3 1f c0 	movzwl 0xc01fb3e0,%eax
c0105328:	0f b7 c0             	movzwl %ax,%eax
c010532b:	0f b7 4d fc          	movzwl -0x4(%ebp),%ecx
c010532f:	01 c0                	add    %eax,%eax
c0105331:	89 c2                	mov    %eax,%edx
c0105333:	c1 e2 04             	shl    $0x4,%edx
c0105336:	01 d0                	add    %edx,%eax
c0105338:	01 c8                	add    %ecx,%eax
c010533a:	83 c0 08             	add    $0x8,%eax
c010533d:	8b 04 85 ec 93 1d c0 	mov    -0x3fe26c14(,%eax,4),%eax
c0105344:	83 f8 ff             	cmp    $0xffffffff,%eax
c0105347:	74 09                	je     c0105352 <proc_assocFd+0x4e>
c0105349:	c7 45 f8 fa ff ff ff 	movl   $0xfffffffa,-0x8(%ebp)
c0105350:	eb 2d                	jmp    c010537f <proc_assocFd+0x7b>
c0105352:	0f b7 05 e0 b3 1f c0 	movzwl 0xc01fb3e0,%eax
c0105359:	0f b7 c0             	movzwl %ax,%eax
c010535c:	0f b7 4d fc          	movzwl -0x4(%ebp),%ecx
c0105360:	01 c0                	add    %eax,%eax
c0105362:	89 c2                	mov    %eax,%edx
c0105364:	c1 e2 04             	shl    $0x4,%edx
c0105367:	01 d0                	add    %edx,%eax
c0105369:	01 c8                	add    %ecx,%eax
c010536b:	8d 50 08             	lea    0x8(%eax),%edx
c010536e:	8b 45 0c             	mov    0xc(%ebp),%eax
c0105371:	89 04 95 ec 93 1d c0 	mov    %eax,-0x3fe26c14(,%edx,4)
c0105378:	c7 45 f8 00 00 00 00 	movl   $0x0,-0x8(%ebp)
c010537f:	8b 45 f8             	mov    -0x8(%ebp),%eax
c0105382:	c9                   	leave  
c0105383:	c3                   	ret    

c0105384 <proc_dupFd>:
c0105384:	55                   	push   %ebp
c0105385:	89 e5                	mov    %esp,%ebp
c0105387:	83 ec 18             	sub    $0x18,%esp
c010538a:	8b 45 08             	mov    0x8(%ebp),%eax
c010538d:	66 89 45 ec          	mov    %ax,-0x14(%ebp)
c0105391:	66 83 7d ec 0f       	cmpw   $0xf,-0x14(%ebp)
c0105396:	76 09                	jbe    c01053a1 <proc_dupFd+0x1d>
c0105398:	c7 45 e8 fa ff ff ff 	movl   $0xfffffffa,-0x18(%ebp)
c010539f:	eb 77                	jmp    c0105418 <proc_dupFd+0x94>
c01053a1:	0f b7 05 e0 b3 1f c0 	movzwl 0xc01fb3e0,%eax
c01053a8:	0f b7 c0             	movzwl %ax,%eax
c01053ab:	0f b7 4d ec          	movzwl -0x14(%ebp),%ecx
c01053af:	01 c0                	add    %eax,%eax
c01053b1:	89 c2                	mov    %eax,%edx
c01053b3:	c1 e2 04             	shl    $0x4,%edx
c01053b6:	01 d0                	add    %edx,%eax
c01053b8:	01 c8                	add    %ecx,%eax
c01053ba:	83 c0 08             	add    $0x8,%eax
c01053bd:	8b 04 85 ec 93 1d c0 	mov    -0x3fe26c14(,%eax,4),%eax
c01053c4:	89 45 f8             	mov    %eax,-0x8(%ebp)
c01053c7:	83 7d f8 ff          	cmpl   $0xffffffff,-0x8(%ebp)
c01053cb:	75 09                	jne    c01053d6 <proc_dupFd+0x52>
c01053cd:	c7 45 e8 fa ff ff ff 	movl   $0xfffffffa,-0x18(%ebp)
c01053d4:	eb 42                	jmp    c0105418 <proc_dupFd+0x94>
c01053d6:	e8 c7 fe ff ff       	call   c01052a2 <proc_getFreeFd>
c01053db:	89 45 fc             	mov    %eax,-0x4(%ebp)
c01053de:	83 7d fc 00          	cmpl   $0x0,-0x4(%ebp)
c01053e2:	79 08                	jns    c01053ec <proc_dupFd+0x68>
c01053e4:	8b 45 fc             	mov    -0x4(%ebp),%eax
c01053e7:	89 45 e8             	mov    %eax,-0x18(%ebp)
c01053ea:	eb 2c                	jmp    c0105418 <proc_dupFd+0x94>
c01053ec:	0f b7 05 e0 b3 1f c0 	movzwl 0xc01fb3e0,%eax
c01053f3:	0f b7 c0             	movzwl %ax,%eax
c01053f6:	8b 4d fc             	mov    -0x4(%ebp),%ecx
c01053f9:	01 c0                	add    %eax,%eax
c01053fb:	89 c2                	mov    %eax,%edx
c01053fd:	c1 e2 04             	shl    $0x4,%edx
c0105400:	01 d0                	add    %edx,%eax
c0105402:	01 c8                	add    %ecx,%eax
c0105404:	8d 50 08             	lea    0x8(%eax),%edx
c0105407:	8b 45 f8             	mov    -0x8(%ebp),%eax
c010540a:	89 04 95 ec 93 1d c0 	mov    %eax,-0x3fe26c14(,%edx,4)
c0105411:	c7 45 e8 00 00 00 00 	movl   $0x0,-0x18(%ebp)
c0105418:	8b 45 e8             	mov    -0x18(%ebp),%eax
c010541b:	c9                   	leave  
c010541c:	c3                   	ret    

c010541d <proc_redirFd>:
c010541d:	55                   	push   %ebp
c010541e:	89 e5                	mov    %esp,%ebp
c0105420:	83 ec 28             	sub    $0x28,%esp
c0105423:	8b 45 08             	mov    0x8(%ebp),%eax
c0105426:	8b 55 0c             	mov    0xc(%ebp),%edx
c0105429:	66 89 45 ec          	mov    %ax,-0x14(%ebp)
c010542d:	66 89 55 e8          	mov    %dx,-0x18(%ebp)
c0105431:	66 83 7d ec 0f       	cmpw   $0xf,-0x14(%ebp)
c0105436:	77 07                	ja     c010543f <proc_redirFd+0x22>
c0105438:	66 83 7d e8 0f       	cmpw   $0xf,-0x18(%ebp)
c010543d:	76 0c                	jbe    c010544b <proc_redirFd+0x2e>
c010543f:	c7 45 e4 fa ff ff ff 	movl   $0xfffffffa,-0x1c(%ebp)
c0105446:	e9 99 00 00 00       	jmp    c01054e4 <proc_redirFd+0xc7>
c010544b:	0f b7 05 e0 b3 1f c0 	movzwl 0xc01fb3e0,%eax
c0105452:	0f b7 c0             	movzwl %ax,%eax
c0105455:	0f b7 4d ec          	movzwl -0x14(%ebp),%ecx
c0105459:	01 c0                	add    %eax,%eax
c010545b:	89 c2                	mov    %eax,%edx
c010545d:	c1 e2 04             	shl    $0x4,%edx
c0105460:	01 d0                	add    %edx,%eax
c0105462:	01 c8                	add    %ecx,%eax
c0105464:	83 c0 08             	add    $0x8,%eax
c0105467:	8b 04 85 ec 93 1d c0 	mov    -0x3fe26c14(,%eax,4),%eax
c010546e:	89 45 f8             	mov    %eax,-0x8(%ebp)
c0105471:	0f b7 05 e0 b3 1f c0 	movzwl 0xc01fb3e0,%eax
c0105478:	0f b7 c0             	movzwl %ax,%eax
c010547b:	0f b7 4d e8          	movzwl -0x18(%ebp),%ecx
c010547f:	01 c0                	add    %eax,%eax
c0105481:	89 c2                	mov    %eax,%edx
c0105483:	c1 e2 04             	shl    $0x4,%edx
c0105486:	01 d0                	add    %edx,%eax
c0105488:	01 c8                	add    %ecx,%eax
c010548a:	83 c0 08             	add    $0x8,%eax
c010548d:	8b 04 85 ec 93 1d c0 	mov    -0x3fe26c14(,%eax,4),%eax
c0105494:	89 45 fc             	mov    %eax,-0x4(%ebp)
c0105497:	83 7d f8 ff          	cmpl   $0xffffffff,-0x8(%ebp)
c010549b:	74 06                	je     c01054a3 <proc_redirFd+0x86>
c010549d:	83 7d fc ff          	cmpl   $0xffffffff,-0x4(%ebp)
c01054a1:	75 09                	jne    c01054ac <proc_redirFd+0x8f>
c01054a3:	c7 45 e4 fa ff ff ff 	movl   $0xfffffffa,-0x1c(%ebp)
c01054aa:	eb 38                	jmp    c01054e4 <proc_redirFd+0xc7>
c01054ac:	8b 45 f8             	mov    -0x8(%ebp),%eax
c01054af:	89 04 24             	mov    %eax,(%esp)
c01054b2:	e8 5f 30 00 00       	call   c0108516 <vfs_closeFile>
c01054b7:	0f b7 05 e0 b3 1f c0 	movzwl 0xc01fb3e0,%eax
c01054be:	0f b7 c0             	movzwl %ax,%eax
c01054c1:	0f b7 4d ec          	movzwl -0x14(%ebp),%ecx
c01054c5:	01 c0                	add    %eax,%eax
c01054c7:	89 c2                	mov    %eax,%edx
c01054c9:	c1 e2 04             	shl    $0x4,%edx
c01054cc:	01 d0                	add    %edx,%eax
c01054ce:	01 c8                	add    %ecx,%eax
c01054d0:	8d 50 08             	lea    0x8(%eax),%edx
c01054d3:	8b 45 fc             	mov    -0x4(%ebp),%eax
c01054d6:	89 04 95 ec 93 1d c0 	mov    %eax,-0x3fe26c14(,%edx,4)
c01054dd:	c7 45 e4 00 00 00 00 	movl   $0x0,-0x1c(%ebp)
c01054e4:	8b 45 e4             	mov    -0x1c(%ebp),%eax
c01054e7:	c9                   	leave  
c01054e8:	c3                   	ret    

c01054e9 <proc_unassocFD>:
c01054e9:	55                   	push   %ebp
c01054ea:	89 e5                	mov    %esp,%ebp
c01054ec:	83 ec 18             	sub    $0x18,%esp
c01054ef:	8b 45 08             	mov    0x8(%ebp),%eax
c01054f2:	66 89 45 ec          	mov    %ax,-0x14(%ebp)
c01054f6:	66 83 7d ec 0f       	cmpw   $0xf,-0x14(%ebp)
c01054fb:	76 09                	jbe    c0105506 <proc_unassocFD+0x1d>
c01054fd:	c7 45 e8 fa ff ff ff 	movl   $0xfffffffa,-0x18(%ebp)
c0105504:	eb 62                	jmp    c0105568 <proc_unassocFD+0x7f>
c0105506:	0f b7 05 e0 b3 1f c0 	movzwl 0xc01fb3e0,%eax
c010550d:	0f b7 c0             	movzwl %ax,%eax
c0105510:	0f b7 4d ec          	movzwl -0x14(%ebp),%ecx
c0105514:	01 c0                	add    %eax,%eax
c0105516:	89 c2                	mov    %eax,%edx
c0105518:	c1 e2 04             	shl    $0x4,%edx
c010551b:	01 d0                	add    %edx,%eax
c010551d:	01 c8                	add    %ecx,%eax
c010551f:	83 c0 08             	add    $0x8,%eax
c0105522:	8b 04 85 ec 93 1d c0 	mov    -0x3fe26c14(,%eax,4),%eax
c0105529:	89 45 fc             	mov    %eax,-0x4(%ebp)
c010552c:	83 7d fc ff          	cmpl   $0xffffffff,-0x4(%ebp)
c0105530:	75 09                	jne    c010553b <proc_unassocFD+0x52>
c0105532:	c7 45 e8 fa ff ff ff 	movl   $0xfffffffa,-0x18(%ebp)
c0105539:	eb 2d                	jmp    c0105568 <proc_unassocFD+0x7f>
c010553b:	0f b7 05 e0 b3 1f c0 	movzwl 0xc01fb3e0,%eax
c0105542:	0f b7 c0             	movzwl %ax,%eax
c0105545:	0f b7 4d ec          	movzwl -0x14(%ebp),%ecx
c0105549:	01 c0                	add    %eax,%eax
c010554b:	89 c2                	mov    %eax,%edx
c010554d:	c1 e2 04             	shl    $0x4,%edx
c0105550:	01 d0                	add    %edx,%eax
c0105552:	01 c8                	add    %ecx,%eax
c0105554:	83 c0 08             	add    $0x8,%eax
c0105557:	c7 04 85 ec 93 1d c0 	movl   $0xffffffff,-0x3fe26c14(,%eax,4)
c010555e:	ff ff ff ff 
c0105562:	8b 45 fc             	mov    -0x4(%ebp),%eax
c0105565:	89 45 e8             	mov    %eax,-0x18(%ebp)
c0105568:	8b 45 e8             	mov    -0x18(%ebp),%eax
c010556b:	c9                   	leave  
c010556c:	c3                   	ret    

c010556d <proc_clone>:
c010556d:	55                   	push   %ebp
c010556e:	89 e5                	mov    %esp,%ebp
c0105570:	53                   	push   %ebx
c0105571:	83 ec 44             	sub    $0x44,%esp
c0105574:	8b 45 08             	mov    0x8(%ebp),%eax
c0105577:	66 89 45 d8          	mov    %ax,-0x28(%ebp)
c010557b:	66 81 7d d8 ff 03    	cmpw   $0x3ff,-0x28(%ebp)
c0105581:	76 24                	jbe    c01055a7 <proc_clone+0x3a>
c0105583:	c7 44 24 0c f7 00 00 	movl   $0xf7,0xc(%esp)
c010558a:	00 
c010558b:	c7 44 24 08 25 d0 16 	movl   $0xc016d025,0x8(%esp)
c0105592:	c0 
c0105593:	c7 44 24 04 e3 cf 16 	movl   $0xc016cfe3,0x4(%esp)
c010559a:	c0 
c010559b:	c7 04 24 30 d0 16 c0 	movl   $0xc016d030,(%esp)
c01055a2:	e8 39 24 00 00       	call   c01079e0 <panic>
c01055a7:	0f b7 45 d8          	movzwl -0x28(%ebp),%eax
c01055ab:	8d 14 c5 00 00 00 00 	lea    0x0(,%eax,8),%edx
c01055b2:	89 d0                	mov    %edx,%eax
c01055b4:	c1 e0 04             	shl    $0x4,%eax
c01055b7:	8d 04 02             	lea    (%edx,%eax,1),%eax
c01055ba:	05 e0 93 1d c0       	add    $0xc01d93e0,%eax
c01055bf:	0f b6 00             	movzbl (%eax),%eax
c01055c2:	84 c0                	test   %al,%al
c01055c4:	74 40                	je     c0105606 <proc_clone+0x99>
c01055c6:	0f b7 45 d8          	movzwl -0x28(%ebp),%eax
c01055ca:	8d 14 c5 00 00 00 00 	lea    0x0(,%eax,8),%edx
c01055d1:	89 d0                	mov    %edx,%eax
c01055d3:	c1 e0 04             	shl    $0x4,%eax
c01055d6:	8d 04 02             	lea    (%edx,%eax,1),%eax
c01055d9:	05 e0 93 1d c0       	add    $0xc01d93e0,%eax
c01055de:	89 44 24 10          	mov    %eax,0x10(%esp)
c01055e2:	c7 44 24 0c f9 00 00 	movl   $0xf9,0xc(%esp)
c01055e9:	00 
c01055ea:	c7 44 24 08 25 d0 16 	movl   $0xc016d025,0x8(%esp)
c01055f1:	c0 
c01055f2:	c7 44 24 04 e3 cf 16 	movl   $0xc016cfe3,0x4(%esp)
c01055f9:	c0 
c01055fa:	c7 04 24 68 d0 16 c0 	movl   $0xc016d068,(%esp)
c0105601:	e8 da 23 00 00       	call   c01079e0 <panic>
c0105606:	0f b7 45 d8          	movzwl -0x28(%ebp),%eax
c010560a:	c7 44 24 04 8c 97 10 	movl   $0xc010978c,0x4(%esp)
c0105611:	c0 
c0105612:	89 04 24             	mov    %eax,(%esp)
c0105615:	e8 82 36 00 00       	call   c0108c9c <vfs_createProcess>
c010561a:	85 c0                	test   %eax,%eax
c010561c:	75 0c                	jne    c010562a <proc_clone+0xbd>
c010561e:	c7 45 d4 ff ff ff ff 	movl   $0xffffffff,-0x2c(%ebp)
c0105625:	e9 19 02 00 00       	jmp    c0105843 <proc_clone+0x2d6>
c010562a:	0f b7 45 d8          	movzwl -0x28(%ebp),%eax
c010562e:	8d 14 c5 00 00 00 00 	lea    0x0(,%eax,8),%edx
c0105635:	89 d0                	mov    %edx,%eax
c0105637:	c1 e0 04             	shl    $0x4,%eax
c010563a:	8d 04 02             	lea    (%edx,%eax,1),%eax
c010563d:	05 e0 93 1d c0       	add    $0xc01d93e0,%eax
c0105642:	89 44 24 04          	mov    %eax,0x4(%esp)
c0105646:	8d 45 e4             	lea    -0x1c(%ebp),%eax
c0105649:	89 04 24             	mov    %eax,(%esp)
c010564c:	e8 b1 e5 ff ff       	call   c0103c02 <paging_clonePageDir>
c0105651:	89 45 ec             	mov    %eax,-0x14(%ebp)
c0105654:	83 7d ec 00          	cmpl   $0x0,-0x14(%ebp)
c0105658:	75 0c                	jne    c0105666 <proc_clone+0xf9>
c010565a:	c7 45 d4 ff ff ff ff 	movl   $0xffffffff,-0x2c(%ebp)
c0105661:	e9 dd 01 00 00       	jmp    c0105843 <proc_clone+0x2d6>
c0105666:	0f b7 45 d8          	movzwl -0x28(%ebp),%eax
c010566a:	8d 14 c5 00 00 00 00 	lea    0x0(,%eax,8),%edx
c0105671:	89 d0                	mov    %edx,%eax
c0105673:	c1 e0 04             	shl    $0x4,%eax
c0105676:	8d 04 02             	lea    (%edx,%eax,1),%eax
c0105679:	05 e0 93 1d c0       	add    $0xc01d93e0,%eax
c010567e:	89 45 f8             	mov    %eax,-0x8(%ebp)
c0105681:	8b 55 f8             	mov    -0x8(%ebp),%edx
c0105684:	0f b7 45 d8          	movzwl -0x28(%ebp),%eax
c0105688:	66 89 42 02          	mov    %ax,0x2(%edx)
c010568c:	0f b7 15 e0 b3 1f c0 	movzwl 0xc01fb3e0,%edx
c0105693:	8b 45 f8             	mov    -0x8(%ebp),%eax
c0105696:	66 89 50 04          	mov    %dx,0x4(%eax)
c010569a:	0f b7 05 e0 b3 1f c0 	movzwl 0xc01fb3e0,%eax
c01056a1:	0f b7 c0             	movzwl %ax,%eax
c01056a4:	c1 e0 03             	shl    $0x3,%eax
c01056a7:	89 c2                	mov    %eax,%edx
c01056a9:	c1 e2 04             	shl    $0x4,%edx
c01056ac:	01 d0                	add    %edx,%eax
c01056ae:	8b 90 ec 93 1d c0    	mov    -0x3fe26c14(%eax),%edx
c01056b4:	8b 45 f8             	mov    -0x8(%ebp),%eax
c01056b7:	89 50 0c             	mov    %edx,0xc(%eax)
c01056ba:	0f b7 05 e0 b3 1f c0 	movzwl 0xc01fb3e0,%eax
c01056c1:	0f b7 c0             	movzwl %ax,%eax
c01056c4:	c1 e0 03             	shl    $0x3,%eax
c01056c7:	89 c2                	mov    %eax,%edx
c01056c9:	c1 e2 04             	shl    $0x4,%edx
c01056cc:	01 d0                	add    %edx,%eax
c01056ce:	8b 90 f0 93 1d c0    	mov    -0x3fe26c10(%eax),%edx
c01056d4:	8b 45 f8             	mov    -0x8(%ebp),%eax
c01056d7:	89 50 10             	mov    %edx,0x10(%eax)
c01056da:	0f b7 05 e0 b3 1f c0 	movzwl 0xc01fb3e0,%eax
c01056e1:	0f b7 c0             	movzwl %ax,%eax
c01056e4:	c1 e0 03             	shl    $0x3,%eax
c01056e7:	89 c2                	mov    %eax,%edx
c01056e9:	c1 e2 04             	shl    $0x4,%edx
c01056ec:	01 d0                	add    %edx,%eax
c01056ee:	8b 90 f4 93 1d c0    	mov    -0x3fe26c0c(%eax),%edx
c01056f4:	8b 45 f8             	mov    -0x8(%ebp),%eax
c01056f7:	89 50 14             	mov    %edx,0x14(%eax)
c01056fa:	8b 45 ec             	mov    -0x14(%ebp),%eax
c01056fd:	89 c2                	mov    %eax,%edx
c01056ff:	c1 e2 0c             	shl    $0xc,%edx
c0105702:	8b 45 f8             	mov    -0x8(%ebp),%eax
c0105705:	89 50 08             	mov    %edx,0x8(%eax)
c0105708:	8b 45 f8             	mov    -0x8(%ebp),%eax
c010570b:	c7 40 70 00 00 00 00 	movl   $0x0,0x70(%eax)
c0105712:	c7 40 74 00 00 00 00 	movl   $0x0,0x74(%eax)
c0105719:	c7 45 e8 00 00 00 00 	movl   $0x0,-0x18(%ebp)
c0105720:	eb 71                	jmp    c0105793 <proc_clone+0x226>
c0105722:	8b 5d e8             	mov    -0x18(%ebp),%ebx
c0105725:	0f b7 05 e0 b3 1f c0 	movzwl 0xc01fb3e0,%eax
c010572c:	0f b7 c0             	movzwl %ax,%eax
c010572f:	8b 4d e8             	mov    -0x18(%ebp),%ecx
c0105732:	01 c0                	add    %eax,%eax
c0105734:	89 c2                	mov    %eax,%edx
c0105736:	c1 e2 04             	shl    $0x4,%edx
c0105739:	01 d0                	add    %edx,%eax
c010573b:	01 c8                	add    %ecx,%eax
c010573d:	83 c0 08             	add    $0x8,%eax
c0105740:	8b 0c 85 ec 93 1d c0 	mov    -0x3fe26c14(,%eax,4),%ecx
c0105747:	8b 55 f8             	mov    -0x8(%ebp),%edx
c010574a:	8d 43 08             	lea    0x8(%ebx),%eax
c010574d:	89 4c 82 0c          	mov    %ecx,0xc(%edx,%eax,4)
c0105751:	8b 45 e8             	mov    -0x18(%ebp),%eax
c0105754:	8b 55 f8             	mov    -0x8(%ebp),%edx
c0105757:	83 c0 08             	add    $0x8,%eax
c010575a:	8b 44 82 0c          	mov    0xc(%edx,%eax,4),%eax
c010575e:	83 f8 ff             	cmp    $0xffffffff,%eax
c0105761:	74 2c                	je     c010578f <proc_clone+0x222>
c0105763:	8b 5d e8             	mov    -0x18(%ebp),%ebx
c0105766:	8b 45 e8             	mov    -0x18(%ebp),%eax
c0105769:	8b 55 f8             	mov    -0x8(%ebp),%edx
c010576c:	83 c0 08             	add    $0x8,%eax
c010576f:	8b 44 82 0c          	mov    0xc(%edx,%eax,4),%eax
c0105773:	0f b7 55 d8          	movzwl -0x28(%ebp),%edx
c0105777:	89 44 24 04          	mov    %eax,0x4(%esp)
c010577b:	89 14 24             	mov    %edx,(%esp)
c010577e:	e8 b9 25 00 00       	call   c0107d3c <vfs_inheritFile>
c0105783:	89 c1                	mov    %eax,%ecx
c0105785:	8b 55 f8             	mov    -0x8(%ebp),%edx
c0105788:	8d 43 08             	lea    0x8(%ebx),%eax
c010578b:	89 4c 82 0c          	mov    %ecx,0xc(%edx,%eax,4)
c010578f:	83 45 e8 01          	addl   $0x1,-0x18(%ebp)
c0105793:	83 7d e8 0f          	cmpl   $0xf,-0x18(%ebp)
c0105797:	76 89                	jbe    c0105722 <proc_clone+0x1b5>
c0105799:	8b 45 f8             	mov    -0x8(%ebp),%eax
c010579c:	89 04 24             	mov    %eax,(%esp)
c010579f:	e8 12 0a 00 00       	call   c01061b6 <sched_setReady>
c01057a4:	c7 44 24 10 01 00 00 	movl   $0x1,0x10(%esp)
c01057ab:	00 
c01057ac:	c7 44 24 0c 03 00 00 	movl   $0x3,0xc(%esp)
c01057b3:	00 
c01057b4:	c7 44 24 08 01 00 00 	movl   $0x1,0x8(%esp)
c01057bb:	00 
c01057bc:	8d 45 e4             	lea    -0x1c(%ebp),%eax
c01057bf:	89 44 24 04          	mov    %eax,0x4(%esp)
c01057c3:	c7 04 24 00 e0 bf ff 	movl   $0xffbfe000,(%esp)
c01057ca:	e8 82 e0 ff ff       	call   c0103851 <paging_map>
c01057cf:	8b 45 f8             	mov    -0x8(%ebp),%eax
c01057d2:	83 c0 18             	add    $0x18,%eax
c01057d5:	89 04 24             	mov    %eax,(%esp)
c01057d8:	e8 09 a9 ff ff       	call   c01000e6 <proc_save>
c01057dd:	85 c0                	test   %eax,%eax
c01057df:	74 09                	je     c01057ea <proc_clone+0x27d>
c01057e1:	c7 45 d4 01 00 00 00 	movl   $0x1,-0x2c(%ebp)
c01057e8:	eb 59                	jmp    c0105843 <proc_clone+0x2d6>
c01057ea:	c7 45 f0 00 f0 bf ff 	movl   $0xffbff000,-0x10(%ebp)
c01057f1:	c7 45 f4 00 e0 bf ff 	movl   $0xffbfe000,-0xc(%ebp)
c01057f8:	c7 45 e8 00 00 00 00 	movl   $0x0,-0x18(%ebp)
c01057ff:	eb 16                	jmp    c0105817 <proc_clone+0x2aa>
c0105801:	8b 45 f0             	mov    -0x10(%ebp),%eax
c0105804:	8b 10                	mov    (%eax),%edx
c0105806:	8b 45 f4             	mov    -0xc(%ebp),%eax
c0105809:	89 10                	mov    %edx,(%eax)
c010580b:	83 45 f4 04          	addl   $0x4,-0xc(%ebp)
c010580f:	83 45 f0 04          	addl   $0x4,-0x10(%ebp)
c0105813:	83 45 e8 01          	addl   $0x1,-0x18(%ebp)
c0105817:	81 7d e8 ff 03 00 00 	cmpl   $0x3ff,-0x18(%ebp)
c010581e:	76 e1                	jbe    c0105801 <proc_clone+0x294>
c0105820:	c7 44 24 08 00 00 00 	movl   $0x0,0x8(%esp)
c0105827:	00 
c0105828:	c7 44 24 04 01 00 00 	movl   $0x1,0x4(%esp)
c010582f:	00 
c0105830:	c7 04 24 00 e0 bf ff 	movl   $0xffbfe000,(%esp)
c0105837:	e8 7b e3 ff ff       	call   c0103bb7 <paging_unmap>
c010583c:	c7 45 d4 00 00 00 00 	movl   $0x0,-0x2c(%ebp)
c0105843:	8b 45 d4             	mov    -0x2c(%ebp),%eax
c0105846:	83 c4 44             	add    $0x44,%esp
c0105849:	5b                   	pop    %ebx
c010584a:	5d                   	pop    %ebp
c010584b:	c3                   	ret    

c010584c <proc_suicide>:
c010584c:	55                   	push   %ebp
c010584d:	89 e5                	mov    %esp,%ebp
c010584f:	83 ec 08             	sub    $0x8,%esp
c0105852:	0f b7 05 e0 b3 1f c0 	movzwl 0xc01fb3e0,%eax
c0105859:	66 85 c0             	test   %ax,%ax
c010585c:	75 0c                	jne    c010586a <proc_suicide+0x1e>
c010585e:	c7 04 24 b4 d0 16 c0 	movl   $0xc016d0b4,(%esp)
c0105865:	e8 76 21 00 00       	call   c01079e0 <panic>
c010586a:	0f b7 05 e0 b3 1f c0 	movzwl 0xc01fb3e0,%eax
c0105871:	0f b7 c0             	movzwl %ax,%eax
c0105874:	8d 14 c5 00 00 00 00 	lea    0x0(,%eax,8),%edx
c010587b:	89 d0                	mov    %edx,%eax
c010587d:	c1 e0 04             	shl    $0x4,%eax
c0105880:	8d 04 02             	lea    (%edx,%eax,1),%eax
c0105883:	05 e0 93 1d c0       	add    $0xc01d93e0,%eax
c0105888:	a3 c0 93 1d c0       	mov    %eax,0xc01d93c0
c010588d:	a1 c0 93 1d c0       	mov    0xc01d93c0,%eax
c0105892:	c6 00 04             	movb   $0x4,(%eax)
c0105895:	c9                   	leave  
c0105896:	c3                   	ret    

c0105897 <proc_destroy>:
c0105897:	55                   	push   %ebp
c0105898:	89 e5                	mov    %esp,%ebp
c010589a:	83 ec 28             	sub    $0x28,%esp
c010589d:	8b 45 08             	mov    0x8(%ebp),%eax
c01058a0:	0f b7 40 02          	movzwl 0x2(%eax),%eax
c01058a4:	66 85 c0             	test   %ax,%ax
c01058a7:	74 0a                	je     c01058b3 <proc_destroy+0x1c>
c01058a9:	8b 45 08             	mov    0x8(%ebp),%eax
c01058ac:	0f b6 00             	movzbl (%eax),%eax
c01058af:	84 c0                	test   %al,%al
c01058b1:	75 39                	jne    c01058ec <proc_destroy+0x55>
c01058b3:	8b 45 08             	mov    0x8(%ebp),%eax
c01058b6:	0f b7 40 02          	movzwl 0x2(%eax),%eax
c01058ba:	0f b7 c0             	movzwl %ax,%eax
c01058bd:	89 44 24 14          	mov    %eax,0x14(%esp)
c01058c1:	8b 45 08             	mov    0x8(%ebp),%eax
c01058c4:	89 44 24 10          	mov    %eax,0x10(%esp)
c01058c8:	c7 44 24 0c 3b 01 00 	movl   $0x13b,0xc(%esp)
c01058cf:	00 
c01058d0:	c7 44 24 08 da d0 16 	movl   $0xc016d0da,0x8(%esp)
c01058d7:	c0 
c01058d8:	c7 44 24 04 e3 cf 16 	movl   $0xc016cfe3,0x4(%esp)
c01058df:	c0 
c01058e0:	c7 04 24 e8 d0 16 c0 	movl   $0xc016d0e8,(%esp)
c01058e7:	e8 f4 20 00 00       	call   c01079e0 <panic>
c01058ec:	8b 45 08             	mov    0x8(%ebp),%eax
c01058ef:	0f b7 50 02          	movzwl 0x2(%eax),%edx
c01058f3:	0f b7 05 e0 b3 1f c0 	movzwl 0xc01fb3e0,%eax
c01058fa:	66 39 c2             	cmp    %ax,%dx
c01058fd:	75 24                	jne    c0105923 <proc_destroy+0x8c>
c01058ff:	c7 44 24 0c 3c 01 00 	movl   $0x13c,0xc(%esp)
c0105906:	00 
c0105907:	c7 44 24 08 da d0 16 	movl   $0xc016d0da,0x8(%esp)
c010590e:	c0 
c010590f:	c7 44 24 04 e3 cf 16 	movl   $0xc016cfe3,0x4(%esp)
c0105916:	c0 
c0105917:	c7 04 24 4c d1 16 c0 	movl   $0xc016d14c,(%esp)
c010591e:	e8 bd 20 00 00       	call   c01079e0 <panic>
c0105923:	8b 45 08             	mov    0x8(%ebp),%eax
c0105926:	89 04 24             	mov    %eax,(%esp)
c0105929:	e8 9e e8 ff ff       	call   c01041cc <paging_destroyPageDir>
c010592e:	66 c7 45 fe 00 00    	movw   $0x0,-0x2(%ebp)
c0105934:	eb 40                	jmp    c0105976 <proc_destroy+0xdf>
c0105936:	0f b7 45 fe          	movzwl -0x2(%ebp),%eax
c010593a:	8b 55 08             	mov    0x8(%ebp),%edx
c010593d:	83 c0 08             	add    $0x8,%eax
c0105940:	8b 44 82 0c          	mov    0xc(%edx,%eax,4),%eax
c0105944:	83 f8 ff             	cmp    $0xffffffff,%eax
c0105947:	74 28                	je     c0105971 <proc_destroy+0xda>
c0105949:	0f b7 45 fe          	movzwl -0x2(%ebp),%eax
c010594d:	8b 55 08             	mov    0x8(%ebp),%edx
c0105950:	83 c0 08             	add    $0x8,%eax
c0105953:	8b 44 82 0c          	mov    0xc(%edx,%eax,4),%eax
c0105957:	89 04 24             	mov    %eax,(%esp)
c010595a:	e8 b7 2b 00 00       	call   c0108516 <vfs_closeFile>
c010595f:	0f b7 45 fe          	movzwl -0x2(%ebp),%eax
c0105963:	8b 55 08             	mov    0x8(%ebp),%edx
c0105966:	83 c0 08             	add    $0x8,%eax
c0105969:	c7 44 82 0c ff ff ff 	movl   $0xffffffff,0xc(%edx,%eax,4)
c0105970:	ff 
c0105971:	66 83 45 fe 01       	addw   $0x1,-0x2(%ebp)
c0105976:	66 83 7d fe 0f       	cmpw   $0xf,-0x2(%ebp)
c010597b:	76 b9                	jbe    c0105936 <proc_destroy+0x9f>
c010597d:	8b 45 08             	mov    0x8(%ebp),%eax
c0105980:	0f b7 40 02          	movzwl 0x2(%eax),%eax
c0105984:	0f b7 c0             	movzwl %ax,%eax
c0105987:	89 04 24             	mov    %eax,(%esp)
c010598a:	e8 ff 33 00 00       	call   c0108d8e <vfs_removeProcess>
c010598f:	8b 45 08             	mov    0x8(%ebp),%eax
c0105992:	c7 40 0c 00 00 00 00 	movl   $0x0,0xc(%eax)
c0105999:	8b 45 08             	mov    0x8(%ebp),%eax
c010599c:	c7 40 10 00 00 00 00 	movl   $0x0,0x10(%eax)
c01059a3:	8b 45 08             	mov    0x8(%ebp),%eax
c01059a6:	c7 40 14 00 00 00 00 	movl   $0x0,0x14(%eax)
c01059ad:	8b 45 08             	mov    0x8(%ebp),%eax
c01059b0:	89 04 24             	mov    %eax,(%esp)
c01059b3:	e8 95 09 00 00       	call   c010634d <sched_removeProc>
c01059b8:	8b 45 08             	mov    0x8(%ebp),%eax
c01059bb:	c6 00 00             	movb   $0x0,(%eax)
c01059be:	8b 45 08             	mov    0x8(%ebp),%eax
c01059c1:	66 c7 40 02 00 00    	movw   $0x0,0x2(%eax)
c01059c7:	8b 45 08             	mov    0x8(%ebp),%eax
c01059ca:	c7 40 08 00 00 00 00 	movl   $0x0,0x8(%eax)
c01059d1:	c9                   	leave  
c01059d2:	c3                   	ret    

c01059d3 <proc_setupIntrptStack>:
c01059d3:	55                   	push   %ebp
c01059d4:	89 e5                	mov    %esp,%ebp
c01059d6:	83 ec 18             	sub    $0x18,%esp
c01059d9:	83 7d 08 00          	cmpl   $0x0,0x8(%ebp)
c01059dd:	75 24                	jne    c0105a03 <proc_setupIntrptStack+0x30>
c01059df:	c7 44 24 0c 5a 01 00 	movl   $0x15a,0xc(%esp)
c01059e6:	00 
c01059e7:	c7 44 24 08 8b d1 16 	movl   $0xc016d18b,0x8(%esp)
c01059ee:	c0 
c01059ef:	c7 44 24 04 e3 cf 16 	movl   $0xc016cfe3,0x4(%esp)
c01059f6:	c0 
c01059f7:	c7 04 24 a4 d1 16 c0 	movl   $0xc016d1a4,(%esp)
c01059fe:	e8 dd 1f 00 00       	call   c01079e0 <panic>
c0105a03:	8b 45 08             	mov    0x8(%ebp),%eax
c0105a06:	c7 40 44 fc ff ff bf 	movl   $0xbffffffc,0x44(%eax)
c0105a0d:	8b 45 08             	mov    0x8(%ebp),%eax
c0105a10:	8b 50 44             	mov    0x44(%eax),%edx
c0105a13:	8b 45 08             	mov    0x8(%ebp),%eax
c0105a16:	89 50 1c             	mov    %edx,0x1c(%eax)
c0105a19:	8b 45 08             	mov    0x8(%ebp),%eax
c0105a1c:	c7 40 3c 1b 00 00 00 	movl   $0x1b,0x3c(%eax)
c0105a23:	8b 45 08             	mov    0x8(%ebp),%eax
c0105a26:	c7 40 08 23 00 00 00 	movl   $0x23,0x8(%eax)
c0105a2d:	8b 45 08             	mov    0x8(%ebp),%eax
c0105a30:	c7 40 04 23 00 00 00 	movl   $0x23,0x4(%eax)
c0105a37:	8b 45 08             	mov    0x8(%ebp),%eax
c0105a3a:	c7 40 0c 23 00 00 00 	movl   $0x23,0xc(%eax)
c0105a41:	8b 45 08             	mov    0x8(%ebp),%eax
c0105a44:	c7 40 10 23 00 00 00 	movl   $0x23,0x10(%eax)
c0105a4b:	8b 45 08             	mov    0x8(%ebp),%eax
c0105a4e:	c7 40 48 23 00 00 00 	movl   $0x23,0x48(%eax)
c0105a55:	8b 45 08             	mov    0x8(%ebp),%eax
c0105a58:	c7 40 38 00 00 00 00 	movl   $0x0,0x38(%eax)
c0105a5f:	8b 45 08             	mov    0x8(%ebp),%eax
c0105a62:	c7 40 2c 00 00 00 00 	movl   $0x0,0x2c(%eax)
c0105a69:	8b 45 08             	mov    0x8(%ebp),%eax
c0105a6c:	c7 40 28 00 00 00 00 	movl   $0x0,0x28(%eax)
c0105a73:	8b 45 08             	mov    0x8(%ebp),%eax
c0105a76:	c7 40 24 00 00 00 00 	movl   $0x0,0x24(%eax)
c0105a7d:	8b 45 08             	mov    0x8(%ebp),%eax
c0105a80:	c7 40 20 00 00 00 00 	movl   $0x0,0x20(%eax)
c0105a87:	8b 45 08             	mov    0x8(%ebp),%eax
c0105a8a:	c7 40 18 00 00 00 00 	movl   $0x0,0x18(%eax)
c0105a91:	8b 45 08             	mov    0x8(%ebp),%eax
c0105a94:	c7 40 14 00 00 00 00 	movl   $0x0,0x14(%eax)
c0105a9b:	c9                   	leave  
c0105a9c:	c3                   	ret    

c0105a9d <proc_segSizesValid>:
c0105a9d:	55                   	push   %ebp
c0105a9e:	89 e5                	mov    %esp,%ebp
c0105aa0:	83 ec 10             	sub    $0x10,%esp
c0105aa3:	c7 45 fc 00 00 0c 00 	movl   $0xc0000,-0x4(%ebp)
c0105aaa:	8b 55 0c             	mov    0xc(%ebp),%edx
c0105aad:	8b 45 08             	mov    0x8(%ebp),%eax
c0105ab0:	01 d0                	add    %edx,%eax
c0105ab2:	03 45 10             	add    0x10(%ebp),%eax
c0105ab5:	3b 45 fc             	cmp    -0x4(%ebp),%eax
c0105ab8:	0f 96 c0             	setbe  %al
c0105abb:	0f b6 c0             	movzbl %al,%eax
c0105abe:	c9                   	leave  
c0105abf:	c3                   	ret    

c0105ac0 <proc_changeSize>:
c0105ac0:	55                   	push   %ebp
c0105ac1:	89 e5                	mov    %esp,%ebp
c0105ac3:	53                   	push   %ebx
c0105ac4:	83 ec 44             	sub    $0x44,%esp
c0105ac7:	8b 45 08             	mov    0x8(%ebp),%eax
c0105aca:	89 45 e0             	mov    %eax,-0x20(%ebp)
c0105acd:	83 7d 0c 00          	cmpl   $0x0,0xc(%ebp)
c0105ad1:	74 2a                	je     c0105afd <proc_changeSize+0x3d>
c0105ad3:	83 7d 0c 01          	cmpl   $0x1,0xc(%ebp)
c0105ad7:	74 24                	je     c0105afd <proc_changeSize+0x3d>
c0105ad9:	c7 44 24 0c 79 01 00 	movl   $0x179,0xc(%esp)
c0105ae0:	00 
c0105ae1:	c7 44 24 08 d5 d1 16 	movl   $0xc016d1d5,0x8(%esp)
c0105ae8:	c0 
c0105ae9:	c7 44 24 04 e3 cf 16 	movl   $0xc016cfe3,0x4(%esp)
c0105af0:	c0 
c0105af1:	c7 04 24 e8 d1 16 c0 	movl   $0xc016d1e8,(%esp)
c0105af8:	e8 e3 1e 00 00       	call   c01079e0 <panic>
c0105afd:	83 7d 0c 00          	cmpl   $0x0,0xc(%ebp)
c0105b01:	75 79                	jne    c0105b7c <proc_changeSize+0xbc>
c0105b03:	0f b7 05 e0 b3 1f c0 	movzwl 0xc01fb3e0,%eax
c0105b0a:	0f b7 c0             	movzwl %ax,%eax
c0105b0d:	c1 e0 03             	shl    $0x3,%eax
c0105b10:	89 c2                	mov    %eax,%edx
c0105b12:	c1 e2 04             	shl    $0x4,%edx
c0105b15:	01 d0                	add    %edx,%eax
c0105b17:	8b 88 ec 93 1d c0    	mov    -0x3fe26c14(%eax),%ecx
c0105b1d:	0f b7 05 e0 b3 1f c0 	movzwl 0xc01fb3e0,%eax
c0105b24:	0f b7 c0             	movzwl %ax,%eax
c0105b27:	c1 e0 03             	shl    $0x3,%eax
c0105b2a:	89 c2                	mov    %eax,%edx
c0105b2c:	c1 e2 04             	shl    $0x4,%edx
c0105b2f:	01 d0                	add    %edx,%eax
c0105b31:	8b 80 f0 93 1d c0    	mov    -0x3fe26c10(%eax),%eax
c0105b37:	8d 04 01             	lea    (%ecx,%eax,1),%eax
c0105b3a:	c1 e0 0c             	shl    $0xc,%eax
c0105b3d:	89 45 dc             	mov    %eax,-0x24(%ebp)
c0105b40:	0f b7 05 e0 b3 1f c0 	movzwl 0xc01fb3e0,%eax
c0105b47:	0f b7 c0             	movzwl %ax,%eax
c0105b4a:	c1 e0 03             	shl    $0x3,%eax
c0105b4d:	89 c2                	mov    %eax,%edx
c0105b4f:	c1 e2 04             	shl    $0x4,%edx
c0105b52:	01 d0                	add    %edx,%eax
c0105b54:	8b 88 ec 93 1d c0    	mov    -0x3fe26c14(%eax),%ecx
c0105b5a:	0f b7 05 e0 b3 1f c0 	movzwl 0xc01fb3e0,%eax
c0105b61:	0f b7 c0             	movzwl %ax,%eax
c0105b64:	c1 e0 03             	shl    $0x3,%eax
c0105b67:	89 c2                	mov    %eax,%edx
c0105b69:	c1 e2 04             	shl    $0x4,%edx
c0105b6c:	01 d0                	add    %edx,%eax
c0105b6e:	8b 80 f0 93 1d c0    	mov    -0x3fe26c10(%eax),%eax
c0105b74:	8d 04 01             	lea    (%ecx,%eax,1),%eax
c0105b77:	89 45 e4             	mov    %eax,-0x1c(%ebp)
c0105b7a:	eb 49                	jmp    c0105bc5 <proc_changeSize+0x105>
c0105b7c:	0f b7 05 e0 b3 1f c0 	movzwl 0xc01fb3e0,%eax
c0105b83:	0f b7 c0             	movzwl %ax,%eax
c0105b86:	c1 e0 03             	shl    $0x3,%eax
c0105b89:	89 c2                	mov    %eax,%edx
c0105b8b:	c1 e2 04             	shl    $0x4,%edx
c0105b8e:	01 d0                	add    %edx,%eax
c0105b90:	8b 90 f4 93 1d c0    	mov    -0x3fe26c0c(%eax),%edx
c0105b96:	8b 45 08             	mov    0x8(%ebp),%eax
c0105b99:	01 c2                	add    %eax,%edx
c0105b9b:	b8 00 00 0c 00       	mov    $0xc0000,%eax
c0105ba0:	29 d0                	sub    %edx,%eax
c0105ba2:	c1 e0 0c             	shl    $0xc,%eax
c0105ba5:	89 45 dc             	mov    %eax,-0x24(%ebp)
c0105ba8:	0f b7 05 e0 b3 1f c0 	movzwl 0xc01fb3e0,%eax
c0105baf:	0f b7 c0             	movzwl %ax,%eax
c0105bb2:	c1 e0 03             	shl    $0x3,%eax
c0105bb5:	89 c2                	mov    %eax,%edx
c0105bb7:	c1 e2 04             	shl    $0x4,%edx
c0105bba:	01 d0                	add    %edx,%eax
c0105bbc:	8b 80 f4 93 1d c0    	mov    -0x3fe26c0c(%eax),%eax
c0105bc2:	89 45 e4             	mov    %eax,-0x1c(%ebp)
c0105bc5:	83 7d 08 00          	cmpl   $0x0,0x8(%ebp)
c0105bc9:	0f 8e 43 01 00 00    	jle    c0105d12 <proc_changeSize+0x252>
c0105bcf:	c7 04 24 02 00 00 00 	movl   $0x2,(%esp)
c0105bd6:	e8 cd cd ff ff       	call   c01029a8 <mm_getFreeFrmCount>
c0105bdb:	89 c3                	mov    %eax,%ebx
c0105bdd:	8b 45 08             	mov    0x8(%ebp),%eax
c0105be0:	89 44 24 04          	mov    %eax,0x4(%esp)
c0105be4:	8b 45 dc             	mov    -0x24(%ebp),%eax
c0105be7:	89 04 24             	mov    %eax,(%esp)
c0105bea:	e8 0e dc ff ff       	call   c01037fd <paging_countFramesForMap>
c0105bef:	39 c3                	cmp    %eax,%ebx
c0105bf1:	73 0c                	jae    c0105bff <proc_changeSize+0x13f>
c0105bf3:	c7 45 d8 00 00 00 00 	movl   $0x0,-0x28(%ebp)
c0105bfa:	e9 79 02 00 00       	jmp    c0105e78 <proc_changeSize+0x3b8>
c0105bff:	0f b7 05 e0 b3 1f c0 	movzwl 0xc01fb3e0,%eax
c0105c06:	0f b7 c0             	movzwl %ax,%eax
c0105c09:	c1 e0 03             	shl    $0x3,%eax
c0105c0c:	89 c2                	mov    %eax,%edx
c0105c0e:	c1 e2 04             	shl    $0x4,%edx
c0105c11:	01 d0                	add    %edx,%eax
c0105c13:	8b 80 ec 93 1d c0    	mov    -0x3fe26c14(%eax),%eax
c0105c19:	89 45 e8             	mov    %eax,-0x18(%ebp)
c0105c1c:	0f b7 05 e0 b3 1f c0 	movzwl 0xc01fb3e0,%eax
c0105c23:	0f b7 c0             	movzwl %ax,%eax
c0105c26:	c1 e0 03             	shl    $0x3,%eax
c0105c29:	89 c2                	mov    %eax,%edx
c0105c2b:	c1 e2 04             	shl    $0x4,%edx
c0105c2e:	01 d0                	add    %edx,%eax
c0105c30:	8b 80 f0 93 1d c0    	mov    -0x3fe26c10(%eax),%eax
c0105c36:	89 45 ec             	mov    %eax,-0x14(%ebp)
c0105c39:	0f b7 05 e0 b3 1f c0 	movzwl 0xc01fb3e0,%eax
c0105c40:	0f b7 c0             	movzwl %ax,%eax
c0105c43:	c1 e0 03             	shl    $0x3,%eax
c0105c46:	89 c2                	mov    %eax,%edx
c0105c48:	c1 e2 04             	shl    $0x4,%edx
c0105c4b:	01 d0                	add    %edx,%eax
c0105c4d:	8b 80 f4 93 1d c0    	mov    -0x3fe26c0c(%eax),%eax
c0105c53:	89 45 f0             	mov    %eax,-0x10(%ebp)
c0105c56:	83 7d 0c 00          	cmpl   $0x0,0xc(%ebp)
c0105c5a:	75 22                	jne    c0105c7e <proc_changeSize+0x1be>
c0105c5c:	8b 45 08             	mov    0x8(%ebp),%eax
c0105c5f:	89 c2                	mov    %eax,%edx
c0105c61:	03 55 ec             	add    -0x14(%ebp),%edx
c0105c64:	8b 45 f0             	mov    -0x10(%ebp),%eax
c0105c67:	89 44 24 08          	mov    %eax,0x8(%esp)
c0105c6b:	89 54 24 04          	mov    %edx,0x4(%esp)
c0105c6f:	8b 45 e8             	mov    -0x18(%ebp),%eax
c0105c72:	89 04 24             	mov    %eax,(%esp)
c0105c75:	e8 23 fe ff ff       	call   c0105a9d <proc_segSizesValid>
c0105c7a:	85 c0                	test   %eax,%eax
c0105c7c:	74 26                	je     c0105ca4 <proc_changeSize+0x1e4>
c0105c7e:	83 7d 0c 01          	cmpl   $0x1,0xc(%ebp)
c0105c82:	75 2c                	jne    c0105cb0 <proc_changeSize+0x1f0>
c0105c84:	8b 45 08             	mov    0x8(%ebp),%eax
c0105c87:	03 45 f0             	add    -0x10(%ebp),%eax
c0105c8a:	89 44 24 08          	mov    %eax,0x8(%esp)
c0105c8e:	8b 45 ec             	mov    -0x14(%ebp),%eax
c0105c91:	89 44 24 04          	mov    %eax,0x4(%esp)
c0105c95:	8b 45 e8             	mov    -0x18(%ebp),%eax
c0105c98:	89 04 24             	mov    %eax,(%esp)
c0105c9b:	e8 fd fd ff ff       	call   c0105a9d <proc_segSizesValid>
c0105ca0:	85 c0                	test   %eax,%eax
c0105ca2:	75 0c                	jne    c0105cb0 <proc_changeSize+0x1f0>
c0105ca4:	c7 45 d8 00 00 00 00 	movl   $0x0,-0x28(%ebp)
c0105cab:	e9 c8 01 00 00       	jmp    c0105e78 <proc_changeSize+0x3b8>
c0105cb0:	8b 45 08             	mov    0x8(%ebp),%eax
c0105cb3:	c7 44 24 10 00 00 00 	movl   $0x0,0x10(%esp)
c0105cba:	00 
c0105cbb:	c7 44 24 0c 01 00 00 	movl   $0x1,0xc(%esp)
c0105cc2:	00 
c0105cc3:	89 44 24 08          	mov    %eax,0x8(%esp)
c0105cc7:	c7 44 24 04 00 00 00 	movl   $0x0,0x4(%esp)
c0105cce:	00 
c0105ccf:	8b 45 dc             	mov    -0x24(%ebp),%eax
c0105cd2:	89 04 24             	mov    %eax,(%esp)
c0105cd5:	e8 77 db ff ff       	call   c0103851 <paging_map>
c0105cda:	eb 22                	jmp    c0105cfe <proc_changeSize+0x23e>
c0105cdc:	8b 45 dc             	mov    -0x24(%ebp),%eax
c0105cdf:	c7 44 24 08 00 10 00 	movl   $0x1000,0x8(%esp)
c0105ce6:	00 
c0105ce7:	c7 44 24 04 00 00 00 	movl   $0x0,0x4(%esp)
c0105cee:	00 
c0105cef:	89 04 24             	mov    %eax,(%esp)
c0105cf2:	e8 9b 65 00 00       	call   c010c292 <memset>
c0105cf7:	81 45 dc 00 10 00 00 	addl   $0x1000,-0x24(%ebp)
c0105cfe:	83 7d 08 00          	cmpl   $0x0,0x8(%ebp)
c0105d02:	0f 9f c0             	setg   %al
c0105d05:	83 6d 08 01          	subl   $0x1,0x8(%ebp)
c0105d09:	84 c0                	test   %al,%al
c0105d0b:	75 cf                	jne    c0105cdc <proc_changeSize+0x21c>
c0105d0d:	e9 e1 00 00 00       	jmp    c0105df3 <proc_changeSize+0x333>
c0105d12:	8b 45 08             	mov    0x8(%ebp),%eax
c0105d15:	c1 e0 0c             	shl    $0xc,%eax
c0105d18:	01 45 dc             	add    %eax,-0x24(%ebp)
c0105d1b:	8b 45 08             	mov    0x8(%ebp),%eax
c0105d1e:	f7 d8                	neg    %eax
c0105d20:	c7 44 24 08 01 00 00 	movl   $0x1,0x8(%esp)
c0105d27:	00 
c0105d28:	89 44 24 04          	mov    %eax,0x4(%esp)
c0105d2c:	8b 45 dc             	mov    -0x24(%ebp),%eax
c0105d2f:	89 04 24             	mov    %eax,(%esp)
c0105d32:	e8 80 de ff ff       	call   c0103bb7 <paging_unmap>
c0105d37:	8b 45 08             	mov    0x8(%ebp),%eax
c0105d3a:	03 45 e4             	add    -0x1c(%ebp),%eax
c0105d3d:	85 c0                	test   %eax,%eax
c0105d3f:	75 30                	jne    c0105d71 <proc_changeSize+0x2b1>
c0105d41:	b8 ff 03 00 00       	mov    $0x3ff,%eax
c0105d46:	89 c2                	mov    %eax,%edx
c0105d48:	2b 55 08             	sub    0x8(%ebp),%edx
c0105d4b:	89 d0                	mov    %edx,%eax
c0105d4d:	c1 f8 1f             	sar    $0x1f,%eax
c0105d50:	c1 e8 16             	shr    $0x16,%eax
c0105d53:	01 d0                	add    %edx,%eax
c0105d55:	c1 f8 0a             	sar    $0xa,%eax
c0105d58:	89 c2                	mov    %eax,%edx
c0105d5a:	8b 45 dc             	mov    -0x24(%ebp),%eax
c0105d5d:	c1 e8 16             	shr    $0x16,%eax
c0105d60:	89 54 24 04          	mov    %edx,0x4(%esp)
c0105d64:	89 04 24             	mov    %eax,(%esp)
c0105d67:	e8 74 de ff ff       	call   c0103be0 <paging_unmapPageTables>
c0105d6c:	e9 82 00 00 00       	jmp    c0105df3 <proc_changeSize+0x333>
c0105d71:	8b 45 dc             	mov    -0x24(%ebp),%eax
c0105d74:	25 00 00 c0 ff       	and    $0xffc00000,%eax
c0105d79:	c1 e8 16             	shr    $0x16,%eax
c0105d7c:	89 45 f4             	mov    %eax,-0xc(%ebp)
c0105d7f:	8b 45 08             	mov    0x8(%ebp),%eax
c0105d82:	f7 d0                	not    %eax
c0105d84:	c1 e0 0c             	shl    $0xc,%eax
c0105d87:	03 45 dc             	add    -0x24(%ebp),%eax
c0105d8a:	89 c2                	mov    %eax,%edx
c0105d8c:	c1 ea 16             	shr    $0x16,%edx
c0105d8f:	8b 45 dc             	mov    -0x24(%ebp),%eax
c0105d92:	c1 e8 16             	shr    $0x16,%eax
c0105d95:	89 d1                	mov    %edx,%ecx
c0105d97:	29 c1                	sub    %eax,%ecx
c0105d99:	89 c8                	mov    %ecx,%eax
c0105d9b:	83 c0 01             	add    $0x1,%eax
c0105d9e:	89 45 f8             	mov    %eax,-0x8(%ebp)
c0105da1:	83 7d 0c 00          	cmpl   $0x0,0xc(%ebp)
c0105da5:	75 16                	jne    c0105dbd <proc_changeSize+0x2fd>
c0105da7:	8b 45 dc             	mov    -0x24(%ebp),%eax
c0105daa:	25 ff ff 3f 00       	and    $0x3fffff,%eax
c0105daf:	85 c0                	test   %eax,%eax
c0105db1:	74 0a                	je     c0105dbd <proc_changeSize+0x2fd>
c0105db3:	83 45 f4 01          	addl   $0x1,-0xc(%ebp)
c0105db7:	83 6d f8 01          	subl   $0x1,-0x8(%ebp)
c0105dbb:	eb 1e                	jmp    c0105ddb <proc_changeSize+0x31b>
c0105dbd:	83 7d 0c 01          	cmpl   $0x1,0xc(%ebp)
c0105dc1:	75 18                	jne    c0105ddb <proc_changeSize+0x31b>
c0105dc3:	8b 45 08             	mov    0x8(%ebp),%eax
c0105dc6:	c1 e0 0c             	shl    $0xc,%eax
c0105dc9:	f7 d8                	neg    %eax
c0105dcb:	03 45 dc             	add    -0x24(%ebp),%eax
c0105dce:	25 ff ff 3f 00       	and    $0x3fffff,%eax
c0105dd3:	85 c0                	test   %eax,%eax
c0105dd5:	74 04                	je     c0105ddb <proc_changeSize+0x31b>
c0105dd7:	83 6d f8 01          	subl   $0x1,-0x8(%ebp)
c0105ddb:	83 7d f8 00          	cmpl   $0x0,-0x8(%ebp)
c0105ddf:	7e 12                	jle    c0105df3 <proc_changeSize+0x333>
c0105de1:	8b 45 f8             	mov    -0x8(%ebp),%eax
c0105de4:	8b 55 f4             	mov    -0xc(%ebp),%edx
c0105de7:	89 44 24 04          	mov    %eax,0x4(%esp)
c0105deb:	89 14 24             	mov    %edx,(%esp)
c0105dee:	e8 ed dd ff ff       	call   c0103be0 <paging_unmapPageTables>
c0105df3:	83 7d 0c 00          	cmpl   $0x0,0xc(%ebp)
c0105df7:	75 3d                	jne    c0105e36 <proc_changeSize+0x376>
c0105df9:	0f b7 05 e0 b3 1f c0 	movzwl 0xc01fb3e0,%eax
c0105e00:	0f b7 d8             	movzwl %ax,%ebx
c0105e03:	0f b7 05 e0 b3 1f c0 	movzwl 0xc01fb3e0,%eax
c0105e0a:	0f b7 c0             	movzwl %ax,%eax
c0105e0d:	c1 e0 03             	shl    $0x3,%eax
c0105e10:	89 c2                	mov    %eax,%edx
c0105e12:	c1 e2 04             	shl    $0x4,%edx
c0105e15:	01 d0                	add    %edx,%eax
c0105e17:	8b 80 f0 93 1d c0    	mov    -0x3fe26c10(%eax),%eax
c0105e1d:	89 c1                	mov    %eax,%ecx
c0105e1f:	03 4d e0             	add    -0x20(%ebp),%ecx
c0105e22:	89 d8                	mov    %ebx,%eax
c0105e24:	c1 e0 03             	shl    $0x3,%eax
c0105e27:	89 c2                	mov    %eax,%edx
c0105e29:	c1 e2 04             	shl    $0x4,%edx
c0105e2c:	01 d0                	add    %edx,%eax
c0105e2e:	89 88 f0 93 1d c0    	mov    %ecx,-0x3fe26c10(%eax)
c0105e34:	eb 3b                	jmp    c0105e71 <proc_changeSize+0x3b1>
c0105e36:	0f b7 05 e0 b3 1f c0 	movzwl 0xc01fb3e0,%eax
c0105e3d:	0f b7 d8             	movzwl %ax,%ebx
c0105e40:	0f b7 05 e0 b3 1f c0 	movzwl 0xc01fb3e0,%eax
c0105e47:	0f b7 c0             	movzwl %ax,%eax
c0105e4a:	c1 e0 03             	shl    $0x3,%eax
c0105e4d:	89 c2                	mov    %eax,%edx
c0105e4f:	c1 e2 04             	shl    $0x4,%edx
c0105e52:	01 d0                	add    %edx,%eax
c0105e54:	8b 80 f4 93 1d c0    	mov    -0x3fe26c0c(%eax),%eax
c0105e5a:	89 c1                	mov    %eax,%ecx
c0105e5c:	03 4d e0             	add    -0x20(%ebp),%ecx
c0105e5f:	89 d8                	mov    %ebx,%eax
c0105e61:	c1 e0 03             	shl    $0x3,%eax
c0105e64:	89 c2                	mov    %eax,%edx
c0105e66:	c1 e2 04             	shl    $0x4,%edx
c0105e69:	01 d0                	add    %edx,%eax
c0105e6b:	89 88 f4 93 1d c0    	mov    %ecx,-0x3fe26c0c(%eax)
c0105e71:	c7 45 d8 01 00 00 00 	movl   $0x1,-0x28(%ebp)
c0105e78:	8b 45 d8             	mov    -0x28(%ebp),%eax
c0105e7b:	83 c4 44             	add    $0x44,%esp
c0105e7e:	5b                   	pop    %ebx
c0105e7f:	5d                   	pop    %ebp
c0105e80:	c3                   	ret    

c0105e81 <proc_dbg_printAll>:
c0105e81:	55                   	push   %ebp
c0105e82:	89 e5                	mov    %esp,%ebp
c0105e84:	83 ec 18             	sub    $0x18,%esp
c0105e87:	c7 45 fc 00 00 00 00 	movl   $0x0,-0x4(%ebp)
c0105e8e:	eb 3b                	jmp    c0105ecb <proc_dbg_printAll+0x4a>
c0105e90:	8b 45 fc             	mov    -0x4(%ebp),%eax
c0105e93:	c1 e0 03             	shl    $0x3,%eax
c0105e96:	89 c2                	mov    %eax,%edx
c0105e98:	c1 e2 04             	shl    $0x4,%edx
c0105e9b:	01 d0                	add    %edx,%eax
c0105e9d:	0f b6 80 e0 93 1d c0 	movzbl -0x3fe26c20(%eax),%eax
c0105ea4:	84 c0                	test   %al,%al
c0105ea6:	74 1f                	je     c0105ec7 <proc_dbg_printAll+0x46>
c0105ea8:	8b 45 fc             	mov    -0x4(%ebp),%eax
c0105eab:	8d 14 c5 00 00 00 00 	lea    0x0(,%eax,8),%edx
c0105eb2:	89 d0                	mov    %edx,%eax
c0105eb4:	c1 e0 04             	shl    $0x4,%eax
c0105eb7:	8d 04 02             	lea    (%edx,%eax,1),%eax
c0105eba:	05 e0 93 1d c0       	add    $0xc01d93e0,%eax
c0105ebf:	89 04 24             	mov    %eax,(%esp)
c0105ec2:	e8 0f 00 00 00       	call   c0105ed6 <proc_dbg_print>
c0105ec7:	83 45 fc 01          	addl   $0x1,-0x4(%ebp)
c0105ecb:	81 7d fc ff 03 00 00 	cmpl   $0x3ff,-0x4(%ebp)
c0105ed2:	76 bc                	jbe    c0105e90 <proc_dbg_printAll+0xf>
c0105ed4:	c9                   	leave  
c0105ed5:	c3                   	ret    

c0105ed6 <proc_dbg_print>:
c0105ed6:	55                   	push   %ebp
c0105ed7:	89 e5                	mov    %esp,%ebp
c0105ed9:	83 ec 28             	sub    $0x28,%esp
c0105edc:	8b 45 08             	mov    0x8(%ebp),%eax
c0105edf:	89 44 24 04          	mov    %eax,0x4(%esp)
c0105ee3:	c7 04 24 18 d2 16 c0 	movl   $0xc016d218,(%esp)
c0105eea:	e8 56 55 00 00       	call   c010b445 <vid_printf>
c0105eef:	8b 45 08             	mov    0x8(%ebp),%eax
c0105ef2:	0f b7 40 02          	movzwl 0x2(%eax),%eax
c0105ef6:	0f b7 c0             	movzwl %ax,%eax
c0105ef9:	89 44 24 04          	mov    %eax,0x4(%esp)
c0105efd:	c7 04 24 2b d2 16 c0 	movl   $0xc016d22b,(%esp)
c0105f04:	e8 3c 55 00 00       	call   c010b445 <vid_printf>
c0105f09:	8b 45 08             	mov    0x8(%ebp),%eax
c0105f0c:	0f b7 40 04          	movzwl 0x4(%eax),%eax
c0105f10:	0f b7 c0             	movzwl %ax,%eax
c0105f13:	89 44 24 04          	mov    %eax,0x4(%esp)
c0105f17:	c7 04 24 36 d2 16 c0 	movl   $0xc016d236,(%esp)
c0105f1e:	e8 22 55 00 00       	call   c010b445 <vid_printf>
c0105f23:	8b 45 08             	mov    0x8(%ebp),%eax
c0105f26:	8b 40 08             	mov    0x8(%eax),%eax
c0105f29:	89 44 24 04          	mov    %eax,0x4(%esp)
c0105f2d:	c7 04 24 47 d2 16 c0 	movl   $0xc016d247,(%esp)
c0105f34:	e8 0c 55 00 00       	call   c010b445 <vid_printf>
c0105f39:	8b 45 08             	mov    0x8(%ebp),%eax
c0105f3c:	8b 40 0c             	mov    0xc(%eax),%eax
c0105f3f:	89 44 24 04          	mov    %eax,0x4(%esp)
c0105f43:	c7 04 24 5f d2 16 c0 	movl   $0xc016d25f,(%esp)
c0105f4a:	e8 f6 54 00 00       	call   c010b445 <vid_printf>
c0105f4f:	8b 45 08             	mov    0x8(%ebp),%eax
c0105f52:	8b 40 10             	mov    0x10(%eax),%eax
c0105f55:	89 44 24 04          	mov    %eax,0x4(%esp)
c0105f59:	c7 04 24 70 d2 16 c0 	movl   $0xc016d270,(%esp)
c0105f60:	e8 e0 54 00 00       	call   c010b445 <vid_printf>
c0105f65:	8b 45 08             	mov    0x8(%ebp),%eax
c0105f68:	8b 40 14             	mov    0x14(%eax),%eax
c0105f6b:	89 44 24 04          	mov    %eax,0x4(%esp)
c0105f6f:	c7 04 24 81 d2 16 c0 	movl   $0xc016d281,(%esp)
c0105f76:	e8 ca 54 00 00       	call   c010b445 <vid_printf>
c0105f7b:	8b 45 08             	mov    0x8(%ebp),%eax
c0105f7e:	83 c0 70             	add    $0x70,%eax
c0105f81:	89 45 fc             	mov    %eax,-0x4(%ebp)
c0105f84:	8b 45 fc             	mov    -0x4(%ebp),%eax
c0105f87:	8b 10                	mov    (%eax),%edx
c0105f89:	8b 45 fc             	mov    -0x4(%ebp),%eax
c0105f8c:	83 c0 04             	add    $0x4,%eax
c0105f8f:	8b 00                	mov    (%eax),%eax
c0105f91:	89 54 24 08          	mov    %edx,0x8(%esp)
c0105f95:	89 44 24 04          	mov    %eax,0x4(%esp)
c0105f99:	c7 04 24 93 d2 16 c0 	movl   $0xc016d293,(%esp)
c0105fa0:	e8 a0 54 00 00       	call   c010b445 <vid_printf>
c0105fa5:	c7 04 24 ad d2 16 c0 	movl   $0xc016d2ad,(%esp)
c0105fac:	e8 94 54 00 00       	call   c010b445 <vid_printf>
c0105fb1:	c7 45 f8 00 00 00 00 	movl   $0x0,-0x8(%ebp)
c0105fb8:	eb 3a                	jmp    c0105ff4 <proc_dbg_print+0x11e>
c0105fba:	8b 45 f8             	mov    -0x8(%ebp),%eax
c0105fbd:	8b 55 08             	mov    0x8(%ebp),%edx
c0105fc0:	83 c0 08             	add    $0x8,%eax
c0105fc3:	8b 44 82 0c          	mov    0xc(%edx,%eax,4),%eax
c0105fc7:	83 f8 ff             	cmp    $0xffffffff,%eax
c0105fca:	74 24                	je     c0105ff0 <proc_dbg_print+0x11a>
c0105fcc:	8b 45 f8             	mov    -0x8(%ebp),%eax
c0105fcf:	8b 55 08             	mov    0x8(%ebp),%edx
c0105fd2:	83 c0 08             	add    $0x8,%eax
c0105fd5:	8b 44 82 0c          	mov    0xc(%edx,%eax,4),%eax
c0105fd9:	89 44 24 08          	mov    %eax,0x8(%esp)
c0105fdd:	8b 45 f8             	mov    -0x8(%ebp),%eax
c0105fe0:	89 44 24 04          	mov    %eax,0x4(%esp)
c0105fe4:	c7 04 24 ba d2 16 c0 	movl   $0xc016d2ba,(%esp)
c0105feb:	e8 55 54 00 00       	call   c010b445 <vid_printf>
c0105ff0:	83 45 f8 01          	addl   $0x1,-0x8(%ebp)
c0105ff4:	83 7d f8 0f          	cmpl   $0xf,-0x8(%ebp)
c0105ff8:	76 c0                	jbe    c0105fba <proc_dbg_print+0xe4>
c0105ffa:	8b 45 08             	mov    0x8(%ebp),%eax
c0105ffd:	83 c0 18             	add    $0x18,%eax
c0106000:	89 04 24             	mov    %eax,(%esp)
c0106003:	e8 0e 00 00 00       	call   c0106016 <proc_dbg_printState>
c0106008:	c7 04 24 c5 d2 16 c0 	movl   $0xc016d2c5,(%esp)
c010600f:	e8 31 54 00 00       	call   c010b445 <vid_printf>
c0106014:	c9                   	leave  
c0106015:	c3                   	ret    

c0106016 <proc_dbg_printState>:
c0106016:	55                   	push   %ebp
c0106017:	89 e5                	mov    %esp,%ebp
c0106019:	83 ec 08             	sub    $0x8,%esp
c010601c:	8b 45 08             	mov    0x8(%ebp),%eax
c010601f:	89 44 24 04          	mov    %eax,0x4(%esp)
c0106023:	c7 04 24 c7 d2 16 c0 	movl   $0xc016d2c7,(%esp)
c010602a:	e8 16 54 00 00       	call   c010b445 <vid_printf>
c010602f:	8b 45 08             	mov    0x8(%ebp),%eax
c0106032:	8b 00                	mov    (%eax),%eax
c0106034:	89 44 24 04          	mov    %eax,0x4(%esp)
c0106038:	c7 04 24 e0 d2 16 c0 	movl   $0xc016d2e0,(%esp)
c010603f:	e8 01 54 00 00       	call   c010b445 <vid_printf>
c0106044:	8b 45 08             	mov    0x8(%ebp),%eax
c0106047:	8b 40 04             	mov    0x4(%eax),%eax
c010604a:	89 44 24 04          	mov    %eax,0x4(%esp)
c010604e:	c7 04 24 f0 d2 16 c0 	movl   $0xc016d2f0,(%esp)
c0106055:	e8 eb 53 00 00       	call   c010b445 <vid_printf>
c010605a:	8b 45 08             	mov    0x8(%ebp),%eax
c010605d:	8b 40 08             	mov    0x8(%eax),%eax
c0106060:	89 44 24 04          	mov    %eax,0x4(%esp)
c0106064:	c7 04 24 00 d3 16 c0 	movl   $0xc016d300,(%esp)
c010606b:	e8 d5 53 00 00       	call   c010b445 <vid_printf>
c0106070:	8b 45 08             	mov    0x8(%ebp),%eax
c0106073:	8b 40 0c             	mov    0xc(%eax),%eax
c0106076:	89 44 24 04          	mov    %eax,0x4(%esp)
c010607a:	c7 04 24 10 d3 16 c0 	movl   $0xc016d310,(%esp)
c0106081:	e8 bf 53 00 00       	call   c010b445 <vid_printf>
c0106086:	8b 45 08             	mov    0x8(%ebp),%eax
c0106089:	8b 40 10             	mov    0x10(%eax),%eax
c010608c:	89 44 24 04          	mov    %eax,0x4(%esp)
c0106090:	c7 04 24 20 d3 16 c0 	movl   $0xc016d320,(%esp)
c0106097:	e8 a9 53 00 00       	call   c010b445 <vid_printf>
c010609c:	c9                   	leave  
c010609d:	c3                   	ret    
	...

c01060a0 <sched_init>:
c01060a0:	55                   	push   %ebp
c01060a1:	89 e5                	mov    %esp,%ebp
c01060a3:	83 ec 18             	sub    $0x18,%esp
c01060a6:	c7 45 fc f8 d3 1f c0 	movl   $0xc01fd3f8,-0x4(%ebp)
c01060ad:	8b 45 fc             	mov    -0x4(%ebp),%eax
c01060b0:	c7 00 00 00 00 00    	movl   $0x0,(%eax)
c01060b6:	83 6d fc 08          	subl   $0x8,-0x4(%ebp)
c01060ba:	c7 45 f8 fe 03 00 00 	movl   $0x3fe,-0x8(%ebp)
c01060c1:	eb 13                	jmp    c01060d6 <sched_init+0x36>
c01060c3:	8b 45 fc             	mov    -0x4(%ebp),%eax
c01060c6:	8d 50 08             	lea    0x8(%eax),%edx
c01060c9:	8b 45 fc             	mov    -0x4(%ebp),%eax
c01060cc:	89 10                	mov    %edx,(%eax)
c01060ce:	83 6d fc 08          	subl   $0x8,-0x4(%ebp)
c01060d2:	83 6d f8 01          	subl   $0x1,-0x8(%ebp)
c01060d6:	83 7d f8 00          	cmpl   $0x0,-0x8(%ebp)
c01060da:	79 e7                	jns    c01060c3 <sched_init+0x23>
c01060dc:	c7 05 00 d4 1f c0 00 	movl   $0xc01fb400,0xc01fd400
c01060e3:	b4 1f c0 
c01060e6:	c7 05 04 d4 1f c0 00 	movl   $0x0,0xc01fd404
c01060ed:	00 00 00 
c01060f0:	c7 05 08 d4 1f c0 00 	movl   $0x0,0xc01fd408
c01060f7:	00 00 00 
c01060fa:	e8 5d 57 00 00       	call   c010b85c <sll_create>
c01060ff:	a3 0c d4 1f c0       	mov    %eax,0xc01fd40c
c0106104:	c9                   	leave  
c0106105:	c3                   	ret    

c0106106 <sched_perform>:
c0106106:	55                   	push   %ebp
c0106107:	89 e5                	mov    %esp,%ebp
c0106109:	83 ec 18             	sub    $0x18,%esp
c010610c:	e8 4f ed ff ff       	call   c0104e60 <proc_getRunning>
c0106111:	89 45 fc             	mov    %eax,-0x4(%ebp)
c0106114:	8b 45 fc             	mov    -0x4(%ebp),%eax
c0106117:	0f b6 00             	movzbl (%eax),%eax
c010611a:	3c 01                	cmp    $0x1,%al
c010611c:	75 0b                	jne    c0106129 <sched_perform+0x23>
c010611e:	8b 45 fc             	mov    -0x4(%ebp),%eax
c0106121:	89 04 24             	mov    %eax,(%esp)
c0106124:	e8 8d 00 00 00       	call   c01061b6 <sched_setReady>
c0106129:	e8 bf 01 00 00       	call   c01062ed <sched_dequeueReady>
c010612e:	89 45 fc             	mov    %eax,-0x4(%ebp)
c0106131:	8b 45 fc             	mov    -0x4(%ebp),%eax
c0106134:	c6 00 01             	movb   $0x1,(%eax)
c0106137:	8b 45 fc             	mov    -0x4(%ebp),%eax
c010613a:	c9                   	leave  
c010613b:	c3                   	ret    

c010613c <sched_setRunning>:
c010613c:	55                   	push   %ebp
c010613d:	89 e5                	mov    %esp,%ebp
c010613f:	83 ec 18             	sub    $0x18,%esp
c0106142:	83 7d 08 00          	cmpl   $0x0,0x8(%ebp)
c0106146:	75 24                	jne    c010616c <sched_setRunning+0x30>
c0106148:	c7 44 24 0c 47 00 00 	movl   $0x47,0xc(%esp)
c010614f:	00 
c0106150:	c7 44 24 08 34 d3 16 	movl   $0xc016d334,0x8(%esp)
c0106157:	c0 
c0106158:	c7 44 24 04 45 d3 16 	movl   $0xc016d345,0x4(%esp)
c010615f:	c0 
c0106160:	c7 04 24 54 d3 16 c0 	movl   $0xc016d354,(%esp)
c0106167:	e8 74 18 00 00       	call   c01079e0 <panic>
c010616c:	8b 45 08             	mov    0x8(%ebp),%eax
c010616f:	0f b6 00             	movzbl (%eax),%eax
c0106172:	0f b6 c0             	movzbl %al,%eax
c0106175:	89 45 fc             	mov    %eax,-0x4(%ebp)
c0106178:	83 7d fc 02          	cmpl   $0x2,-0x4(%ebp)
c010617c:	74 0e                	je     c010618c <sched_setRunning+0x50>
c010617e:	83 7d fc 03          	cmpl   $0x3,-0x4(%ebp)
c0106182:	74 15                	je     c0106199 <sched_setRunning+0x5d>
c0106184:	83 7d fc 01          	cmpl   $0x1,-0x4(%ebp)
c0106188:	74 2a                	je     c01061b4 <sched_setRunning+0x78>
c010618a:	eb 22                	jmp    c01061ae <sched_setRunning+0x72>
c010618c:	8b 45 08             	mov    0x8(%ebp),%eax
c010618f:	89 04 24             	mov    %eax,(%esp)
c0106192:	e8 87 02 00 00       	call   c010641e <sched_dequeueReadyProc>
c0106197:	eb 15                	jmp    c01061ae <sched_setRunning+0x72>
c0106199:	8b 15 0c d4 1f c0    	mov    0xc01fd40c,%edx
c010619f:	8b 45 08             	mov    0x8(%ebp),%eax
c01061a2:	89 44 24 04          	mov    %eax,0x4(%esp)
c01061a6:	89 14 24             	mov    %edx,(%esp)
c01061a9:	e8 24 5b 00 00       	call   c010bcd2 <sll_removeFirst>
c01061ae:	8b 45 08             	mov    0x8(%ebp),%eax
c01061b1:	c6 00 01             	movb   $0x1,(%eax)
c01061b4:	c9                   	leave  
c01061b5:	c3                   	ret    

c01061b6 <sched_setReady>:
c01061b6:	55                   	push   %ebp
c01061b7:	89 e5                	mov    %esp,%ebp
c01061b9:	83 ec 18             	sub    $0x18,%esp
c01061bc:	83 7d 08 00          	cmpl   $0x0,0x8(%ebp)
c01061c0:	75 24                	jne    c01061e6 <sched_setReady+0x30>
c01061c2:	c7 44 24 0c 58 00 00 	movl   $0x58,0xc(%esp)
c01061c9:	00 
c01061ca:	c7 44 24 08 81 d3 16 	movl   $0xc016d381,0x8(%esp)
c01061d1:	c0 
c01061d2:	c7 44 24 04 45 d3 16 	movl   $0xc016d345,0x4(%esp)
c01061d9:	c0 
c01061da:	c7 04 24 54 d3 16 c0 	movl   $0xc016d354,(%esp)
c01061e1:	e8 fa 17 00 00       	call   c01079e0 <panic>
c01061e6:	8b 45 08             	mov    0x8(%ebp),%eax
c01061e9:	0f b6 00             	movzbl (%eax),%eax
c01061ec:	3c 02                	cmp    $0x2,%al
c01061ee:	74 30                	je     c0106220 <sched_setReady+0x6a>
c01061f0:	8b 45 08             	mov    0x8(%ebp),%eax
c01061f3:	0f b6 00             	movzbl (%eax),%eax
c01061f6:	3c 03                	cmp    $0x3,%al
c01061f8:	75 15                	jne    c010620f <sched_setReady+0x59>
c01061fa:	8b 15 0c d4 1f c0    	mov    0xc01fd40c,%edx
c0106200:	8b 45 08             	mov    0x8(%ebp),%eax
c0106203:	89 44 24 04          	mov    %eax,0x4(%esp)
c0106207:	89 14 24             	mov    %edx,(%esp)
c010620a:	e8 c3 5a 00 00       	call   c010bcd2 <sll_removeFirst>
c010620f:	8b 45 08             	mov    0x8(%ebp),%eax
c0106212:	c6 00 02             	movb   $0x2,(%eax)
c0106215:	8b 45 08             	mov    0x8(%ebp),%eax
c0106218:	89 04 24             	mov    %eax,(%esp)
c010621b:	e8 71 01 00 00       	call   c0106391 <sched_enqueueReadyProc>
c0106220:	c9                   	leave  
c0106221:	c3                   	ret    

c0106222 <sched_setBlocked>:
c0106222:	55                   	push   %ebp
c0106223:	89 e5                	mov    %esp,%ebp
c0106225:	83 ec 18             	sub    $0x18,%esp
c0106228:	83 7d 08 00          	cmpl   $0x0,0x8(%ebp)
c010622c:	75 24                	jne    c0106252 <sched_setBlocked+0x30>
c010622e:	c7 44 24 0c 66 00 00 	movl   $0x66,0xc(%esp)
c0106235:	00 
c0106236:	c7 44 24 08 90 d3 16 	movl   $0xc016d390,0x8(%esp)
c010623d:	c0 
c010623e:	c7 44 24 04 45 d3 16 	movl   $0xc016d345,0x4(%esp)
c0106245:	c0 
c0106246:	c7 04 24 54 d3 16 c0 	movl   $0xc016d354,(%esp)
c010624d:	e8 8e 17 00 00       	call   c01079e0 <panic>
c0106252:	8b 45 08             	mov    0x8(%ebp),%eax
c0106255:	0f b6 00             	movzbl (%eax),%eax
c0106258:	3c 03                	cmp    $0x3,%al
c010625a:	74 30                	je     c010628c <sched_setBlocked+0x6a>
c010625c:	8b 45 08             	mov    0x8(%ebp),%eax
c010625f:	0f b6 00             	movzbl (%eax),%eax
c0106262:	3c 02                	cmp    $0x2,%al
c0106264:	75 0b                	jne    c0106271 <sched_setBlocked+0x4f>
c0106266:	8b 45 08             	mov    0x8(%ebp),%eax
c0106269:	89 04 24             	mov    %eax,(%esp)
c010626c:	e8 ad 01 00 00       	call   c010641e <sched_dequeueReadyProc>
c0106271:	8b 45 08             	mov    0x8(%ebp),%eax
c0106274:	c6 00 03             	movb   $0x3,(%eax)
c0106277:	8b 15 0c d4 1f c0    	mov    0xc01fd40c,%edx
c010627d:	8b 45 08             	mov    0x8(%ebp),%eax
c0106280:	89 44 24 04          	mov    %eax,0x4(%esp)
c0106284:	89 14 24             	mov    %edx,(%esp)
c0106287:	e8 0d 58 00 00       	call   c010ba99 <sll_append>
c010628c:	c9                   	leave  
c010628d:	c3                   	ret    

c010628e <sched_unblockAll>:
c010628e:	55                   	push   %ebp
c010628f:	89 e5                	mov    %esp,%ebp
c0106291:	83 ec 28             	sub    $0x28,%esp
c0106294:	a1 0c d4 1f c0       	mov    0xc01fd40c,%eax
c0106299:	89 04 24             	mov    %eax,(%esp)
c010629c:	e8 87 56 00 00       	call   c010b928 <sll_begin>
c01062a1:	89 45 f8             	mov    %eax,-0x8(%ebp)
c01062a4:	eb 3f                	jmp    c01062e5 <sched_unblockAll+0x57>
c01062a6:	8b 45 f8             	mov    -0x8(%ebp),%eax
c01062a9:	8b 40 04             	mov    0x4(%eax),%eax
c01062ac:	89 45 fc             	mov    %eax,-0x4(%ebp)
c01062af:	8b 45 fc             	mov    -0x4(%ebp),%eax
c01062b2:	c6 00 02             	movb   $0x2,(%eax)
c01062b5:	8b 45 fc             	mov    -0x4(%ebp),%eax
c01062b8:	89 04 24             	mov    %eax,(%esp)
c01062bb:	e8 d1 00 00 00       	call   c0106391 <sched_enqueueReadyProc>
c01062c0:	8b 15 0c d4 1f c0    	mov    0xc01fd40c,%edx
c01062c6:	c7 44 24 08 00 00 00 	movl   $0x0,0x8(%esp)
c01062cd:	00 
c01062ce:	8b 45 f8             	mov    -0x8(%ebp),%eax
c01062d1:	89 44 24 04          	mov    %eax,0x4(%esp)
c01062d5:	89 14 24             	mov    %edx,(%esp)
c01062d8:	e8 0b 59 00 00       	call   c010bbe8 <sll_removeNode>
c01062dd:	8b 45 f8             	mov    -0x8(%ebp),%eax
c01062e0:	8b 00                	mov    (%eax),%eax
c01062e2:	89 45 f8             	mov    %eax,-0x8(%ebp)
c01062e5:	83 7d f8 00          	cmpl   $0x0,-0x8(%ebp)
c01062e9:	75 bb                	jne    c01062a6 <sched_unblockAll+0x18>
c01062eb:	c9                   	leave  
c01062ec:	c3                   	ret    

c01062ed <sched_dequeueReady>:
c01062ed:	55                   	push   %ebp
c01062ee:	89 e5                	mov    %esp,%ebp
c01062f0:	83 ec 14             	sub    $0x14,%esp
c01062f3:	a1 04 d4 1f c0       	mov    0xc01fd404,%eax
c01062f8:	85 c0                	test   %eax,%eax
c01062fa:	75 09                	jne    c0106305 <sched_dequeueReady+0x18>
c01062fc:	c7 45 ec 00 00 00 00 	movl   $0x0,-0x14(%ebp)
c0106303:	eb 43                	jmp    c0106348 <sched_dequeueReady+0x5b>
c0106305:	a1 04 d4 1f c0       	mov    0xc01fd404,%eax
c010630a:	89 45 fc             	mov    %eax,-0x4(%ebp)
c010630d:	a1 04 d4 1f c0       	mov    0xc01fd404,%eax
c0106312:	8b 00                	mov    (%eax),%eax
c0106314:	a3 04 d4 1f c0       	mov    %eax,0xc01fd404
c0106319:	a1 04 d4 1f c0       	mov    0xc01fd404,%eax
c010631e:	85 c0                	test   %eax,%eax
c0106320:	75 0a                	jne    c010632c <sched_dequeueReady+0x3f>
c0106322:	c7 05 08 d4 1f c0 00 	movl   $0x0,0xc01fd408
c0106329:	00 00 00 
c010632c:	8b 15 00 d4 1f c0    	mov    0xc01fd400,%edx
c0106332:	8b 45 fc             	mov    -0x4(%ebp),%eax
c0106335:	89 10                	mov    %edx,(%eax)
c0106337:	8b 45 fc             	mov    -0x4(%ebp),%eax
c010633a:	a3 00 d4 1f c0       	mov    %eax,0xc01fd400
c010633f:	8b 45 fc             	mov    -0x4(%ebp),%eax
c0106342:	8b 40 04             	mov    0x4(%eax),%eax
c0106345:	89 45 ec             	mov    %eax,-0x14(%ebp)
c0106348:	8b 45 ec             	mov    -0x14(%ebp),%eax
c010634b:	c9                   	leave  
c010634c:	c3                   	ret    

c010634d <sched_removeProc>:
c010634d:	55                   	push   %ebp
c010634e:	89 e5                	mov    %esp,%ebp
c0106350:	83 ec 18             	sub    $0x18,%esp
c0106353:	8b 45 08             	mov    0x8(%ebp),%eax
c0106356:	0f b6 00             	movzbl (%eax),%eax
c0106359:	0f b6 c0             	movzbl %al,%eax
c010635c:	89 45 fc             	mov    %eax,-0x4(%ebp)
c010635f:	83 7d fc 02          	cmpl   $0x2,-0x4(%ebp)
c0106363:	74 08                	je     c010636d <sched_removeProc+0x20>
c0106365:	83 7d fc 03          	cmpl   $0x3,-0x4(%ebp)
c0106369:	74 0f                	je     c010637a <sched_removeProc+0x2d>
c010636b:	eb 22                	jmp    c010638f <sched_removeProc+0x42>
c010636d:	8b 45 08             	mov    0x8(%ebp),%eax
c0106370:	89 04 24             	mov    %eax,(%esp)
c0106373:	e8 a6 00 00 00       	call   c010641e <sched_dequeueReadyProc>
c0106378:	eb 15                	jmp    c010638f <sched_removeProc+0x42>
c010637a:	8b 15 0c d4 1f c0    	mov    0xc01fd40c,%edx
c0106380:	8b 45 08             	mov    0x8(%ebp),%eax
c0106383:	89 44 24 04          	mov    %eax,0x4(%esp)
c0106387:	89 14 24             	mov    %edx,(%esp)
c010638a:	e8 43 59 00 00       	call   c010bcd2 <sll_removeFirst>
c010638f:	c9                   	leave  
c0106390:	c3                   	ret    

c0106391 <sched_enqueueReadyProc>:
c0106391:	55                   	push   %ebp
c0106392:	89 e5                	mov    %esp,%ebp
c0106394:	83 ec 28             	sub    $0x28,%esp
c0106397:	a1 00 d4 1f c0       	mov    0xc01fd400,%eax
c010639c:	85 c0                	test   %eax,%eax
c010639e:	75 24                	jne    c01063c4 <sched_enqueueReadyProc+0x33>
c01063a0:	c7 44 24 0c 9b 00 00 	movl   $0x9b,0xc(%esp)
c01063a7:	00 
c01063a8:	c7 44 24 08 a1 d3 16 	movl   $0xc016d3a1,0x8(%esp)
c01063af:	c0 
c01063b0:	c7 44 24 04 45 d3 16 	movl   $0xc016d345,0x4(%esp)
c01063b7:	c0 
c01063b8:	c7 04 24 b8 d3 16 c0 	movl   $0xc016d3b8,(%esp)
c01063bf:	e8 1c 16 00 00       	call   c01079e0 <panic>
c01063c4:	a1 00 d4 1f c0       	mov    0xc01fd400,%eax
c01063c9:	89 45 f8             	mov    %eax,-0x8(%ebp)
c01063cc:	a1 00 d4 1f c0       	mov    0xc01fd400,%eax
c01063d1:	8b 00                	mov    (%eax),%eax
c01063d3:	a3 00 d4 1f c0       	mov    %eax,0xc01fd400
c01063d8:	8b 55 f8             	mov    -0x8(%ebp),%edx
c01063db:	8b 45 08             	mov    0x8(%ebp),%eax
c01063de:	89 42 04             	mov    %eax,0x4(%edx)
c01063e1:	8b 45 f8             	mov    -0x8(%ebp),%eax
c01063e4:	c7 00 00 00 00 00    	movl   $0x0,(%eax)
c01063ea:	a1 04 d4 1f c0       	mov    0xc01fd404,%eax
c01063ef:	89 45 fc             	mov    %eax,-0x4(%ebp)
c01063f2:	83 7d fc 00          	cmpl   $0x0,-0x4(%ebp)
c01063f6:	74 14                	je     c010640c <sched_enqueueReadyProc+0x7b>
c01063f8:	a1 08 d4 1f c0       	mov    0xc01fd408,%eax
c01063fd:	8b 55 f8             	mov    -0x8(%ebp),%edx
c0106400:	89 10                	mov    %edx,(%eax)
c0106402:	8b 45 f8             	mov    -0x8(%ebp),%eax
c0106405:	a3 08 d4 1f c0       	mov    %eax,0xc01fd408
c010640a:	eb 10                	jmp    c010641c <sched_enqueueReadyProc+0x8b>
c010640c:	8b 45 f8             	mov    -0x8(%ebp),%eax
c010640f:	a3 04 d4 1f c0       	mov    %eax,0xc01fd404
c0106414:	8b 45 f8             	mov    -0x8(%ebp),%eax
c0106417:	a3 08 d4 1f c0       	mov    %eax,0xc01fd408
c010641c:	c9                   	leave  
c010641d:	c3                   	ret    

c010641e <sched_dequeueReadyProc>:
c010641e:	55                   	push   %ebp
c010641f:	89 e5                	mov    %esp,%ebp
c0106421:	83 ec 28             	sub    $0x28,%esp
c0106424:	a1 04 d4 1f c0       	mov    0xc01fd404,%eax
c0106429:	89 45 f8             	mov    %eax,-0x8(%ebp)
c010642c:	c7 45 fc 00 00 00 00 	movl   $0x0,-0x4(%ebp)
c0106433:	83 7d 08 00          	cmpl   $0x0,0x8(%ebp)
c0106437:	0f 85 8f 00 00 00    	jne    c01064cc <sched_dequeueReadyProc+0xae>
c010643d:	c7 44 24 0c b2 00 00 	movl   $0xb2,0xc(%esp)
c0106444:	00 
c0106445:	c7 44 24 08 fe d3 16 	movl   $0xc016d3fe,0x8(%esp)
c010644c:	c0 
c010644d:	c7 44 24 04 45 d3 16 	movl   $0xc016d345,0x4(%esp)
c0106454:	c0 
c0106455:	c7 04 24 54 d3 16 c0 	movl   $0xc016d354,(%esp)
c010645c:	e8 7f 15 00 00       	call   c01079e0 <panic>
c0106461:	eb 69                	jmp    c01064cc <sched_dequeueReadyProc+0xae>
c0106463:	8b 45 f8             	mov    -0x8(%ebp),%eax
c0106466:	8b 40 04             	mov    0x4(%eax),%eax
c0106469:	3b 45 08             	cmp    0x8(%ebp),%eax
c010646c:	75 50                	jne    c01064be <sched_dequeueReadyProc+0xa0>
c010646e:	83 7d fc 00          	cmpl   $0x0,-0x4(%ebp)
c0106472:	75 14                	jne    c0106488 <sched_dequeueReadyProc+0x6a>
c0106474:	8b 45 f8             	mov    -0x8(%ebp),%eax
c0106477:	8b 00                	mov    (%eax),%eax
c0106479:	a3 04 d4 1f c0       	mov    %eax,0xc01fd404
c010647e:	a1 04 d4 1f c0       	mov    0xc01fd404,%eax
c0106483:	89 45 fc             	mov    %eax,-0x4(%ebp)
c0106486:	eb 0a                	jmp    c0106492 <sched_dequeueReadyProc+0x74>
c0106488:	8b 45 f8             	mov    -0x8(%ebp),%eax
c010648b:	8b 10                	mov    (%eax),%edx
c010648d:	8b 45 fc             	mov    -0x4(%ebp),%eax
c0106490:	89 10                	mov    %edx,(%eax)
c0106492:	8b 45 f8             	mov    -0x8(%ebp),%eax
c0106495:	8b 00                	mov    (%eax),%eax
c0106497:	85 c0                	test   %eax,%eax
c0106499:	75 08                	jne    c01064a3 <sched_dequeueReadyProc+0x85>
c010649b:	8b 45 fc             	mov    -0x4(%ebp),%eax
c010649e:	a3 08 d4 1f c0       	mov    %eax,0xc01fd408
c01064a3:	a1 00 d4 1f c0       	mov    0xc01fd400,%eax
c01064a8:	8b 55 f8             	mov    -0x8(%ebp),%edx
c01064ab:	89 02                	mov    %eax,(%edx)
c01064ad:	8b 45 f8             	mov    -0x8(%ebp),%eax
c01064b0:	a3 00 d4 1f c0       	mov    %eax,0xc01fd400
c01064b5:	c7 45 ec 01 00 00 00 	movl   $0x1,-0x14(%ebp)
c01064bc:	eb 1b                	jmp    c01064d9 <sched_dequeueReadyProc+0xbb>
c01064be:	8b 45 f8             	mov    -0x8(%ebp),%eax
c01064c1:	89 45 fc             	mov    %eax,-0x4(%ebp)
c01064c4:	8b 45 f8             	mov    -0x8(%ebp),%eax
c01064c7:	8b 00                	mov    (%eax),%eax
c01064c9:	89 45 f8             	mov    %eax,-0x8(%ebp)
c01064cc:	83 7d f8 00          	cmpl   $0x0,-0x8(%ebp)
c01064d0:	75 91                	jne    c0106463 <sched_dequeueReadyProc+0x45>
c01064d2:	c7 45 ec 00 00 00 00 	movl   $0x0,-0x14(%ebp)
c01064d9:	8b 45 ec             	mov    -0x14(%ebp),%eax
c01064dc:	c9                   	leave  
c01064dd:	c3                   	ret    

c01064de <sched_dbg_print>:
c01064de:	55                   	push   %ebp
c01064df:	89 e5                	mov    %esp,%ebp
c01064e1:	83 ec 28             	sub    $0x28,%esp
c01064e4:	a1 04 d4 1f c0       	mov    0xc01fd404,%eax
c01064e9:	89 45 fc             	mov    %eax,-0x4(%ebp)
c01064ec:	a1 00 d4 1f c0       	mov    0xc01fd400,%eax
c01064f1:	8b 15 08 d4 1f c0    	mov    0xc01fd408,%edx
c01064f7:	8b 0d 04 d4 1f c0    	mov    0xc01fd404,%ecx
c01064fd:	89 44 24 0c          	mov    %eax,0xc(%esp)
c0106501:	89 54 24 08          	mov    %edx,0x8(%esp)
c0106505:	89 4c 24 04          	mov    %ecx,0x4(%esp)
c0106509:	c7 04 24 18 d4 16 c0 	movl   $0xc016d418,(%esp)
c0106510:	e8 30 4f 00 00       	call   c010b445 <vid_printf>
c0106515:	eb 2e                	jmp    c0106545 <sched_dbg_print+0x67>
c0106517:	8b 45 fc             	mov    -0x4(%ebp),%eax
c010651a:	8b 10                	mov    (%eax),%edx
c010651c:	8b 45 fc             	mov    -0x4(%ebp),%eax
c010651f:	8b 40 04             	mov    0x4(%eax),%eax
c0106522:	89 54 24 0c          	mov    %edx,0xc(%esp)
c0106526:	89 44 24 08          	mov    %eax,0x8(%esp)
c010652a:	8b 45 fc             	mov    -0x4(%ebp),%eax
c010652d:	89 44 24 04          	mov    %eax,0x4(%esp)
c0106531:	c7 04 24 4d d4 16 c0 	movl   $0xc016d44d,(%esp)
c0106538:	e8 08 4f 00 00       	call   c010b445 <vid_printf>
c010653d:	8b 45 fc             	mov    -0x4(%ebp),%eax
c0106540:	8b 00                	mov    (%eax),%eax
c0106542:	89 45 fc             	mov    %eax,-0x4(%ebp)
c0106545:	83 7d fc 00          	cmpl   $0x0,-0x4(%ebp)
c0106549:	75 cc                	jne    c0106517 <sched_dbg_print+0x39>
c010654b:	c7 04 24 69 d4 16 c0 	movl   $0xc016d469,(%esp)
c0106552:	e8 ee 4e 00 00       	call   c010b445 <vid_printf>
c0106557:	a1 0c d4 1f c0       	mov    0xc01fd40c,%eax
c010655c:	89 04 24             	mov    %eax,(%esp)
c010655f:	e8 8d 59 00 00       	call   c010bef1 <sll_dbg_print>
c0106564:	c7 04 24 79 d4 16 c0 	movl   $0xc016d479,(%esp)
c010656b:	e8 d5 4e 00 00       	call   c010b445 <vid_printf>
c0106570:	c9                   	leave  
c0106571:	c3                   	ret    
	...

c0106574 <sig_canHandle>:
c0106574:	55                   	push   %ebp
c0106575:	89 e5                	mov    %esp,%ebp
c0106577:	83 ec 08             	sub    $0x8,%esp
c010657a:	8b 45 08             	mov    0x8(%ebp),%eax
c010657d:	88 45 fc             	mov    %al,-0x4(%ebp)
c0106580:	80 7d fc 00          	cmpb   $0x0,-0x4(%ebp)
c0106584:	74 0f                	je     c0106595 <sig_canHandle+0x21>
c0106586:	80 7d fc 0b          	cmpb   $0xb,-0x4(%ebp)
c010658a:	77 09                	ja     c0106595 <sig_canHandle+0x21>
c010658c:	c7 45 f8 01 00 00 00 	movl   $0x1,-0x8(%ebp)
c0106593:	eb 07                	jmp    c010659c <sig_canHandle+0x28>
c0106595:	c7 45 f8 00 00 00 00 	movl   $0x0,-0x8(%ebp)
c010659c:	8b 45 f8             	mov    -0x8(%ebp),%eax
c010659f:	c9                   	leave  
c01065a0:	c3                   	ret    

c01065a1 <sig_setHandler>:
c01065a1:	55                   	push   %ebp
c01065a2:	89 e5                	mov    %esp,%ebp
c01065a4:	53                   	push   %ebx
c01065a5:	83 ec 34             	sub    $0x34,%esp
c01065a8:	8b 45 08             	mov    0x8(%ebp),%eax
c01065ab:	8b 55 0c             	mov    0xc(%ebp),%edx
c01065ae:	66 89 45 e8          	mov    %ax,-0x18(%ebp)
c01065b2:	88 55 e4             	mov    %dl,-0x1c(%ebp)
c01065b5:	0f b6 45 e4          	movzbl -0x1c(%ebp),%eax
c01065b9:	89 04 24             	mov    %eax,(%esp)
c01065bc:	e8 b3 ff ff ff       	call   c0106574 <sig_canHandle>
c01065c1:	85 c0                	test   %eax,%eax
c01065c3:	75 24                	jne    c01065e9 <sig_setHandler+0x48>
c01065c5:	c7 44 24 0c 2c 00 00 	movl   $0x2c,0xc(%esp)
c01065cc:	00 
c01065cd:	c7 44 24 08 7c d4 16 	movl   $0xc016d47c,0x8(%esp)
c01065d4:	c0 
c01065d5:	c7 44 24 04 8b d4 16 	movl   $0xc016d48b,0x4(%esp)
c01065dc:	c0 
c01065dd:	c7 04 24 9c d4 16 c0 	movl   $0xc016d49c,(%esp)
c01065e4:	e8 f7 13 00 00       	call   c01079e0 <panic>
c01065e9:	0f b6 45 e4          	movzbl -0x1c(%ebp),%eax
c01065ed:	0f b7 55 e8          	movzwl -0x18(%ebp),%edx
c01065f1:	89 44 24 04          	mov    %eax,0x4(%esp)
c01065f5:	89 14 24             	mov    %edx,(%esp)
c01065f8:	e8 93 05 00 00       	call   c0106b90 <sig_get>
c01065fd:	89 45 f8             	mov    %eax,-0x8(%ebp)
c0106600:	83 7d f8 00          	cmpl   $0x0,-0x8(%ebp)
c0106604:	75 5e                	jne    c0106664 <sig_setHandler+0xc3>
c0106606:	0f b6 45 e4          	movzbl -0x1c(%ebp),%eax
c010660a:	83 e8 01             	sub    $0x1,%eax
c010660d:	8b 04 85 40 d4 1f c0 	mov    -0x3fe02bc0(,%eax,4),%eax
c0106614:	85 c0                	test   %eax,%eax
c0106616:	75 2e                	jne    c0106646 <sig_setHandler+0xa5>
c0106618:	0f b6 45 e4          	movzbl -0x1c(%ebp),%eax
c010661c:	8d 58 ff             	lea    -0x1(%eax),%ebx
c010661f:	e8 38 52 00 00       	call   c010b85c <sll_create>
c0106624:	89 04 9d 40 d4 1f c0 	mov    %eax,-0x3fe02bc0(,%ebx,4)
c010662b:	0f b6 45 e4          	movzbl -0x1c(%ebp),%eax
c010662f:	83 e8 01             	sub    $0x1,%eax
c0106632:	8b 04 85 40 d4 1f c0 	mov    -0x3fe02bc0(,%eax,4),%eax
c0106639:	85 c0                	test   %eax,%eax
c010663b:	75 09                	jne    c0106646 <sig_setHandler+0xa5>
c010663d:	c7 45 e0 f5 ff ff ff 	movl   $0xfffffff5,-0x20(%ebp)
c0106644:	eb 7b                	jmp    c01066c1 <sig_setHandler+0x120>
c0106646:	c7 04 24 0c 00 00 00 	movl   $0xc,(%esp)
c010664d:	e8 22 b6 ff ff       	call   c0101c74 <kheap_alloc>
c0106652:	89 45 f8             	mov    %eax,-0x8(%ebp)
c0106655:	83 7d f8 00          	cmpl   $0x0,-0x8(%ebp)
c0106659:	75 09                	jne    c0106664 <sig_setHandler+0xc3>
c010665b:	c7 45 e0 f5 ff ff ff 	movl   $0xfffffff5,-0x20(%ebp)
c0106662:	eb 5d                	jmp    c01066c1 <sig_setHandler+0x120>
c0106664:	8b 55 f8             	mov    -0x8(%ebp),%edx
c0106667:	0f b7 45 e8          	movzwl -0x18(%ebp),%eax
c010666b:	66 89 02             	mov    %ax,(%edx)
c010666e:	8b 55 f8             	mov    -0x8(%ebp),%edx
c0106671:	8b 45 10             	mov    0x10(%ebp),%eax
c0106674:	89 42 04             	mov    %eax,0x4(%edx)
c0106677:	8b 45 f8             	mov    -0x8(%ebp),%eax
c010667a:	c6 40 09 00          	movb   $0x0,0x9(%eax)
c010667e:	8b 45 f8             	mov    -0x8(%ebp),%eax
c0106681:	c6 40 08 00          	movb   $0x0,0x8(%eax)
c0106685:	0f b6 45 e4          	movzbl -0x1c(%ebp),%eax
c0106689:	83 e8 01             	sub    $0x1,%eax
c010668c:	8b 14 85 40 d4 1f c0 	mov    -0x3fe02bc0(,%eax,4),%edx
c0106693:	8b 45 f8             	mov    -0x8(%ebp),%eax
c0106696:	89 44 24 04          	mov    %eax,0x4(%esp)
c010669a:	89 14 24             	mov    %edx,(%esp)
c010669d:	e8 f7 53 00 00       	call   c010ba99 <sll_append>
c01066a2:	85 c0                	test   %eax,%eax
c01066a4:	75 14                	jne    c01066ba <sig_setHandler+0x119>
c01066a6:	8b 45 f8             	mov    -0x8(%ebp),%eax
c01066a9:	89 04 24             	mov    %eax,(%esp)
c01066ac:	e8 1a b7 ff ff       	call   c0101dcb <kheap_free>
c01066b1:	c7 45 e0 f5 ff ff ff 	movl   $0xfffffff5,-0x20(%ebp)
c01066b8:	eb 07                	jmp    c01066c1 <sig_setHandler+0x120>
c01066ba:	c7 45 e0 00 00 00 00 	movl   $0x0,-0x20(%ebp)
c01066c1:	8b 45 e0             	mov    -0x20(%ebp),%eax
c01066c4:	83 c4 34             	add    $0x34,%esp
c01066c7:	5b                   	pop    %ebx
c01066c8:	5d                   	pop    %ebp
c01066c9:	c3                   	ret    

c01066ca <sig_unsetHandler>:
c01066ca:	55                   	push   %ebp
c01066cb:	89 e5                	mov    %esp,%ebp
c01066cd:	83 ec 28             	sub    $0x28,%esp
c01066d0:	8b 45 08             	mov    0x8(%ebp),%eax
c01066d3:	8b 55 0c             	mov    0xc(%ebp),%edx
c01066d6:	66 89 45 ec          	mov    %ax,-0x14(%ebp)
c01066da:	88 55 e8             	mov    %dl,-0x18(%ebp)
c01066dd:	0f b6 45 e8          	movzbl -0x18(%ebp),%eax
c01066e1:	89 04 24             	mov    %eax,(%esp)
c01066e4:	e8 8b fe ff ff       	call   c0106574 <sig_canHandle>
c01066e9:	85 c0                	test   %eax,%eax
c01066eb:	75 24                	jne    c0106711 <sig_unsetHandler+0x47>
c01066ed:	c7 44 24 0c 4e 00 00 	movl   $0x4e,0xc(%esp)
c01066f4:	00 
c01066f5:	c7 44 24 08 da d4 16 	movl   $0xc016d4da,0x8(%esp)
c01066fc:	c0 
c01066fd:	c7 44 24 04 8b d4 16 	movl   $0xc016d48b,0x4(%esp)
c0106704:	c0 
c0106705:	c7 04 24 9c d4 16 c0 	movl   $0xc016d49c,(%esp)
c010670c:	e8 cf 12 00 00       	call   c01079e0 <panic>
c0106711:	0f b6 45 e8          	movzbl -0x18(%ebp),%eax
c0106715:	0f b7 55 ec          	movzwl -0x14(%ebp),%edx
c0106719:	89 44 24 04          	mov    %eax,0x4(%esp)
c010671d:	89 14 24             	mov    %edx,(%esp)
c0106720:	e8 6b 04 00 00       	call   c0106b90 <sig_get>
c0106725:	89 45 fc             	mov    %eax,-0x4(%ebp)
c0106728:	83 7d fc 00          	cmpl   $0x0,-0x4(%ebp)
c010672c:	74 28                	je     c0106756 <sig_unsetHandler+0x8c>
c010672e:	0f b6 45 e8          	movzbl -0x18(%ebp),%eax
c0106732:	83 e8 01             	sub    $0x1,%eax
c0106735:	8b 14 85 40 d4 1f c0 	mov    -0x3fe02bc0(,%eax,4),%edx
c010673c:	8b 45 fc             	mov    -0x4(%ebp),%eax
c010673f:	89 44 24 04          	mov    %eax,0x4(%esp)
c0106743:	89 14 24             	mov    %edx,(%esp)
c0106746:	e8 87 55 00 00       	call   c010bcd2 <sll_removeFirst>
c010674b:	8b 45 fc             	mov    -0x4(%ebp),%eax
c010674e:	89 04 24             	mov    %eax,(%esp)
c0106751:	e8 75 b6 ff ff       	call   c0101dcb <kheap_free>
c0106756:	c9                   	leave  
c0106757:	c3                   	ret    

c0106758 <sig_removeHandlerFor>:
c0106758:	55                   	push   %ebp
c0106759:	89 e5                	mov    %esp,%ebp
c010675b:	83 ec 38             	sub    $0x38,%esp
c010675e:	8b 45 08             	mov    0x8(%ebp),%eax
c0106761:	66 89 45 dc          	mov    %ax,-0x24(%ebp)
c0106765:	c7 45 fc 40 d4 1f c0 	movl   $0xc01fd440,-0x4(%ebp)
c010676c:	c7 45 e8 00 00 00 00 	movl   $0x0,-0x18(%ebp)
c0106773:	e9 89 00 00 00       	jmp    c0106801 <sig_removeHandlerFor+0xa9>
c0106778:	8b 45 fc             	mov    -0x4(%ebp),%eax
c010677b:	8b 00                	mov    (%eax),%eax
c010677d:	85 c0                	test   %eax,%eax
c010677f:	74 78                	je     c01067f9 <sig_removeHandlerFor+0xa1>
c0106781:	c7 45 ec 00 00 00 00 	movl   $0x0,-0x14(%ebp)
c0106788:	8b 45 fc             	mov    -0x4(%ebp),%eax
c010678b:	8b 00                	mov    (%eax),%eax
c010678d:	89 04 24             	mov    %eax,(%esp)
c0106790:	e8 93 51 00 00       	call   c010b928 <sll_begin>
c0106795:	89 45 f0             	mov    %eax,-0x10(%ebp)
c0106798:	eb 59                	jmp    c01067f3 <sig_removeHandlerFor+0x9b>
c010679a:	8b 45 f0             	mov    -0x10(%ebp),%eax
c010679d:	8b 40 04             	mov    0x4(%eax),%eax
c01067a0:	89 45 f8             	mov    %eax,-0x8(%ebp)
c01067a3:	8b 45 f8             	mov    -0x8(%ebp),%eax
c01067a6:	0f b7 00             	movzwl (%eax),%eax
c01067a9:	66 3b 45 dc          	cmp    -0x24(%ebp),%ax
c01067ad:	75 36                	jne    c01067e5 <sig_removeHandlerFor+0x8d>
c01067af:	8b 45 f0             	mov    -0x10(%ebp),%eax
c01067b2:	8b 00                	mov    (%eax),%eax
c01067b4:	89 45 f4             	mov    %eax,-0xc(%ebp)
c01067b7:	8b 45 fc             	mov    -0x4(%ebp),%eax
c01067ba:	8b 10                	mov    (%eax),%edx
c01067bc:	8b 45 ec             	mov    -0x14(%ebp),%eax
c01067bf:	89 44 24 08          	mov    %eax,0x8(%esp)
c01067c3:	8b 45 f0             	mov    -0x10(%ebp),%eax
c01067c6:	89 44 24 04          	mov    %eax,0x4(%esp)
c01067ca:	89 14 24             	mov    %edx,(%esp)
c01067cd:	e8 16 54 00 00       	call   c010bbe8 <sll_removeNode>
c01067d2:	8b 45 f8             	mov    -0x8(%ebp),%eax
c01067d5:	89 04 24             	mov    %eax,(%esp)
c01067d8:	e8 ee b5 ff ff       	call   c0101dcb <kheap_free>
c01067dd:	8b 45 f4             	mov    -0xc(%ebp),%eax
c01067e0:	89 45 f0             	mov    %eax,-0x10(%ebp)
c01067e3:	eb 0e                	jmp    c01067f3 <sig_removeHandlerFor+0x9b>
c01067e5:	8b 45 f0             	mov    -0x10(%ebp),%eax
c01067e8:	89 45 ec             	mov    %eax,-0x14(%ebp)
c01067eb:	8b 45 f0             	mov    -0x10(%ebp),%eax
c01067ee:	8b 00                	mov    (%eax),%eax
c01067f0:	89 45 f0             	mov    %eax,-0x10(%ebp)
c01067f3:	83 7d f0 00          	cmpl   $0x0,-0x10(%ebp)
c01067f7:	75 a1                	jne    c010679a <sig_removeHandlerFor+0x42>
c01067f9:	83 45 fc 04          	addl   $0x4,-0x4(%ebp)
c01067fd:	83 45 e8 01          	addl   $0x1,-0x18(%ebp)
c0106801:	83 7d e8 0a          	cmpl   $0xa,-0x18(%ebp)
c0106805:	0f 86 6d ff ff ff    	jbe    c0106778 <sig_removeHandlerFor+0x20>
c010680b:	c9                   	leave  
c010680c:	c3                   	ret    

c010680d <sig_hasSignal>:
c010680d:	55                   	push   %ebp
c010680e:	89 e5                	mov    %esp,%ebp
c0106810:	83 ec 18             	sub    $0x18,%esp
c0106813:	a1 20 d4 1f c0       	mov    0xc01fd420,%eax
c0106818:	85 c0                	test   %eax,%eax
c010681a:	75 0c                	jne    c0106828 <sig_hasSignal+0x1b>
c010681c:	c7 45 ec 00 00 00 00 	movl   $0x0,-0x14(%ebp)
c0106823:	e9 82 00 00 00       	jmp    c01068aa <sig_hasSignal+0x9d>
c0106828:	c7 45 fc 40 d4 1f c0 	movl   $0xc01fd440,-0x4(%ebp)
c010682f:	c7 45 f0 00 00 00 00 	movl   $0x0,-0x10(%ebp)
c0106836:	eb 65                	jmp    c010689d <sig_hasSignal+0x90>
c0106838:	8b 45 fc             	mov    -0x4(%ebp),%eax
c010683b:	8b 00                	mov    (%eax),%eax
c010683d:	85 c0                	test   %eax,%eax
c010683f:	74 54                	je     c0106895 <sig_hasSignal+0x88>
c0106841:	8b 45 fc             	mov    -0x4(%ebp),%eax
c0106844:	8b 00                	mov    (%eax),%eax
c0106846:	89 04 24             	mov    %eax,(%esp)
c0106849:	e8 da 50 00 00       	call   c010b928 <sll_begin>
c010684e:	89 45 f4             	mov    %eax,-0xc(%ebp)
c0106851:	eb 3c                	jmp    c010688f <sig_hasSignal+0x82>
c0106853:	8b 45 f4             	mov    -0xc(%ebp),%eax
c0106856:	8b 40 04             	mov    0x4(%eax),%eax
c0106859:	89 45 f8             	mov    %eax,-0x8(%ebp)
c010685c:	8b 45 f8             	mov    -0x8(%ebp),%eax
c010685f:	0f b6 40 09          	movzbl 0x9(%eax),%eax
c0106863:	84 c0                	test   %al,%al
c0106865:	74 20                	je     c0106887 <sig_hasSignal+0x7a>
c0106867:	8b 45 f8             	mov    -0x8(%ebp),%eax
c010686a:	0f b7 10             	movzwl (%eax),%edx
c010686d:	8b 45 0c             	mov    0xc(%ebp),%eax
c0106870:	66 89 10             	mov    %dx,(%eax)
c0106873:	8b 45 f0             	mov    -0x10(%ebp),%eax
c0106876:	8d 50 01             	lea    0x1(%eax),%edx
c0106879:	8b 45 08             	mov    0x8(%ebp),%eax
c010687c:	88 10                	mov    %dl,(%eax)
c010687e:	c7 45 ec 01 00 00 00 	movl   $0x1,-0x14(%ebp)
c0106885:	eb 23                	jmp    c01068aa <sig_hasSignal+0x9d>
c0106887:	8b 45 f4             	mov    -0xc(%ebp),%eax
c010688a:	8b 00                	mov    (%eax),%eax
c010688c:	89 45 f4             	mov    %eax,-0xc(%ebp)
c010688f:	83 7d f4 00          	cmpl   $0x0,-0xc(%ebp)
c0106893:	75 be                	jne    c0106853 <sig_hasSignal+0x46>
c0106895:	83 45 fc 04          	addl   $0x4,-0x4(%ebp)
c0106899:	83 45 f0 01          	addl   $0x1,-0x10(%ebp)
c010689d:	83 7d f0 0a          	cmpl   $0xa,-0x10(%ebp)
c01068a1:	76 95                	jbe    c0106838 <sig_hasSignal+0x2b>
c01068a3:	c7 45 ec 00 00 00 00 	movl   $0x0,-0x14(%ebp)
c01068aa:	8b 45 ec             	mov    -0x14(%ebp),%eax
c01068ad:	c9                   	leave  
c01068ae:	c3                   	ret    

c01068af <sig_addSignalFor>:
c01068af:	55                   	push   %ebp
c01068b0:	89 e5                	mov    %esp,%ebp
c01068b2:	83 ec 38             	sub    $0x38,%esp
c01068b5:	8b 45 08             	mov    0x8(%ebp),%eax
c01068b8:	8b 55 0c             	mov    0xc(%ebp),%edx
c01068bb:	66 89 45 ec          	mov    %ax,-0x14(%ebp)
c01068bf:	88 55 e8             	mov    %dl,-0x18(%ebp)
c01068c2:	0f b6 45 e8          	movzbl -0x18(%ebp),%eax
c01068c6:	89 04 24             	mov    %eax,(%esp)
c01068c9:	e8 a6 fc ff ff       	call   c0106574 <sig_canHandle>
c01068ce:	85 c0                	test   %eax,%eax
c01068d0:	75 24                	jne    c01068f6 <sig_addSignalFor+0x47>
c01068d2:	c7 44 24 0c 92 00 00 	movl   $0x92,0xc(%esp)
c01068d9:	00 
c01068da:	c7 44 24 08 eb d4 16 	movl   $0xc016d4eb,0x8(%esp)
c01068e1:	c0 
c01068e2:	c7 44 24 04 8b d4 16 	movl   $0xc016d48b,0x4(%esp)
c01068e9:	c0 
c01068ea:	c7 04 24 9c d4 16 c0 	movl   $0xc016d49c,(%esp)
c01068f1:	e8 ea 10 00 00       	call   c01079e0 <panic>
c01068f6:	0f b6 45 e8          	movzbl -0x18(%ebp),%eax
c01068fa:	0f b7 55 ec          	movzwl -0x14(%ebp),%edx
c01068fe:	89 44 24 04          	mov    %eax,0x4(%esp)
c0106902:	89 14 24             	mov    %edx,(%esp)
c0106905:	e8 86 02 00 00       	call   c0106b90 <sig_get>
c010690a:	89 45 fc             	mov    %eax,-0x4(%ebp)
c010690d:	83 7d fc 00          	cmpl   $0x0,-0x4(%ebp)
c0106911:	74 31                	je     c0106944 <sig_addSignalFor+0x95>
c0106913:	a1 20 d4 1f c0       	mov    0xc01fd420,%eax
c0106918:	83 c0 01             	add    $0x1,%eax
c010691b:	a3 20 d4 1f c0       	mov    %eax,0xc01fd420
c0106920:	8b 45 fc             	mov    -0x4(%ebp),%eax
c0106923:	0f b6 40 09          	movzbl 0x9(%eax),%eax
c0106927:	8d 50 01             	lea    0x1(%eax),%edx
c010692a:	8b 45 fc             	mov    -0x4(%ebp),%eax
c010692d:	88 50 09             	mov    %dl,0x9(%eax)
c0106930:	8b 45 fc             	mov    -0x4(%ebp),%eax
c0106933:	0f b6 40 08          	movzbl 0x8(%eax),%eax
c0106937:	84 c0                	test   %al,%al
c0106939:	0f 94 c0             	sete   %al
c010693c:	0f b6 c0             	movzbl %al,%eax
c010693f:	89 45 e4             	mov    %eax,-0x1c(%ebp)
c0106942:	eb 07                	jmp    c010694b <sig_addSignalFor+0x9c>
c0106944:	c7 45 e4 00 00 00 00 	movl   $0x0,-0x1c(%ebp)
c010694b:	8b 45 e4             	mov    -0x1c(%ebp),%eax
c010694e:	c9                   	leave  
c010694f:	c3                   	ret    

c0106950 <sig_addSignal>:
c0106950:	55                   	push   %ebp
c0106951:	89 e5                	mov    %esp,%ebp
c0106953:	83 ec 28             	sub    $0x28,%esp
c0106956:	8b 45 08             	mov    0x8(%ebp),%eax
c0106959:	88 45 ec             	mov    %al,-0x14(%ebp)
c010695c:	66 c7 45 fe 02 04    	movw   $0x402,-0x2(%ebp)
c0106962:	0f b6 45 ec          	movzbl -0x14(%ebp),%eax
c0106966:	89 04 24             	mov    %eax,(%esp)
c0106969:	e8 06 fc ff ff       	call   c0106574 <sig_canHandle>
c010696e:	85 c0                	test   %eax,%eax
c0106970:	75 24                	jne    c0106996 <sig_addSignal+0x46>
c0106972:	c7 44 24 0c a3 00 00 	movl   $0xa3,0xc(%esp)
c0106979:	00 
c010697a:	c7 44 24 08 fc d4 16 	movl   $0xc016d4fc,0x8(%esp)
c0106981:	c0 
c0106982:	c7 44 24 04 8b d4 16 	movl   $0xc016d48b,0x4(%esp)
c0106989:	c0 
c010698a:	c7 04 24 9c d4 16 c0 	movl   $0xc016d49c,(%esp)
c0106991:	e8 4a 10 00 00       	call   c01079e0 <panic>
c0106996:	0f b6 45 ec          	movzbl -0x14(%ebp),%eax
c010699a:	83 e8 01             	sub    $0x1,%eax
c010699d:	8b 04 85 40 d4 1f c0 	mov    -0x3fe02bc0(,%eax,4),%eax
c01069a4:	89 45 f0             	mov    %eax,-0x10(%ebp)
c01069a7:	83 7d f0 00          	cmpl   $0x0,-0x10(%ebp)
c01069ab:	74 61                	je     c0106a0e <sig_addSignal+0xbe>
c01069ad:	8b 45 f0             	mov    -0x10(%ebp),%eax
c01069b0:	89 04 24             	mov    %eax,(%esp)
c01069b3:	e8 70 4f 00 00       	call   c010b928 <sll_begin>
c01069b8:	89 45 f8             	mov    %eax,-0x8(%ebp)
c01069bb:	eb 4b                	jmp    c0106a08 <sig_addSignal+0xb8>
c01069bd:	8b 45 f8             	mov    -0x8(%ebp),%eax
c01069c0:	8b 40 04             	mov    0x4(%eax),%eax
c01069c3:	89 45 f4             	mov    %eax,-0xc(%ebp)
c01069c6:	8b 45 f4             	mov    -0xc(%ebp),%eax
c01069c9:	0f b6 40 09          	movzbl 0x9(%eax),%eax
c01069cd:	8d 50 01             	lea    0x1(%eax),%edx
c01069d0:	8b 45 f4             	mov    -0xc(%ebp),%eax
c01069d3:	88 50 09             	mov    %dl,0x9(%eax)
c01069d6:	a1 20 d4 1f c0       	mov    0xc01fd420,%eax
c01069db:	83 c0 01             	add    $0x1,%eax
c01069de:	a3 20 d4 1f c0       	mov    %eax,0xc01fd420
c01069e3:	8b 45 f4             	mov    -0xc(%ebp),%eax
c01069e6:	0f b6 40 08          	movzbl 0x8(%eax),%eax
c01069ea:	84 c0                	test   %al,%al
c01069ec:	75 12                	jne    c0106a00 <sig_addSignal+0xb0>
c01069ee:	66 81 7d fe 02 04    	cmpw   $0x402,-0x2(%ebp)
c01069f4:	75 0a                	jne    c0106a00 <sig_addSignal+0xb0>
c01069f6:	8b 45 f4             	mov    -0xc(%ebp),%eax
c01069f9:	0f b7 00             	movzwl (%eax),%eax
c01069fc:	66 89 45 fe          	mov    %ax,-0x2(%ebp)
c0106a00:	8b 45 f8             	mov    -0x8(%ebp),%eax
c0106a03:	8b 00                	mov    (%eax),%eax
c0106a05:	89 45 f8             	mov    %eax,-0x8(%ebp)
c0106a08:	83 7d f8 00          	cmpl   $0x0,-0x8(%ebp)
c0106a0c:	75 af                	jne    c01069bd <sig_addSignal+0x6d>
c0106a0e:	0f b7 45 fe          	movzwl -0x2(%ebp),%eax
c0106a12:	c9                   	leave  
c0106a13:	c3                   	ret    

c0106a14 <sig_startHandling>:
c0106a14:	55                   	push   %ebp
c0106a15:	89 e5                	mov    %esp,%ebp
c0106a17:	83 ec 38             	sub    $0x38,%esp
c0106a1a:	8b 45 08             	mov    0x8(%ebp),%eax
c0106a1d:	8b 55 0c             	mov    0xc(%ebp),%edx
c0106a20:	66 89 45 ec          	mov    %ax,-0x14(%ebp)
c0106a24:	88 55 e8             	mov    %dl,-0x18(%ebp)
c0106a27:	0f b6 45 e8          	movzbl -0x18(%ebp),%eax
c0106a2b:	89 04 24             	mov    %eax,(%esp)
c0106a2e:	e8 41 fb ff ff       	call   c0106574 <sig_canHandle>
c0106a33:	85 c0                	test   %eax,%eax
c0106a35:	75 24                	jne    c0106a5b <sig_startHandling+0x47>
c0106a37:	c7 44 24 0c b6 00 00 	movl   $0xb6,0xc(%esp)
c0106a3e:	00 
c0106a3f:	c7 44 24 08 0a d5 16 	movl   $0xc016d50a,0x8(%esp)
c0106a46:	c0 
c0106a47:	c7 44 24 04 8b d4 16 	movl   $0xc016d48b,0x4(%esp)
c0106a4e:	c0 
c0106a4f:	c7 04 24 9c d4 16 c0 	movl   $0xc016d49c,(%esp)
c0106a56:	e8 85 0f 00 00       	call   c01079e0 <panic>
c0106a5b:	0f b6 45 e8          	movzbl -0x18(%ebp),%eax
c0106a5f:	0f b7 55 ec          	movzwl -0x14(%ebp),%edx
c0106a63:	89 44 24 04          	mov    %eax,0x4(%esp)
c0106a67:	89 14 24             	mov    %edx,(%esp)
c0106a6a:	e8 21 01 00 00       	call   c0106b90 <sig_get>
c0106a6f:	89 45 fc             	mov    %eax,-0x4(%ebp)
c0106a72:	83 7d fc 00          	cmpl   $0x0,-0x4(%ebp)
c0106a76:	0f 84 9b 00 00 00    	je     c0106b17 <sig_startHandling+0x103>
c0106a7c:	a1 20 d4 1f c0       	mov    0xc01fd420,%eax
c0106a81:	85 c0                	test   %eax,%eax
c0106a83:	75 24                	jne    c0106aa9 <sig_startHandling+0x95>
c0106a85:	c7 44 24 0c ba 00 00 	movl   $0xba,0xc(%esp)
c0106a8c:	00 
c0106a8d:	c7 44 24 08 0a d5 16 	movl   $0xc016d50a,0x8(%esp)
c0106a94:	c0 
c0106a95:	c7 44 24 04 8b d4 16 	movl   $0xc016d48b,0x4(%esp)
c0106a9c:	c0 
c0106a9d:	c7 04 24 1c d5 16 c0 	movl   $0xc016d51c,(%esp)
c0106aa4:	e8 37 0f 00 00       	call   c01079e0 <panic>
c0106aa9:	8b 45 fc             	mov    -0x4(%ebp),%eax
c0106aac:	0f b6 40 09          	movzbl 0x9(%eax),%eax
c0106ab0:	84 c0                	test   %al,%al
c0106ab2:	75 34                	jne    c0106ae8 <sig_startHandling+0xd4>
c0106ab4:	0f b6 45 e8          	movzbl -0x18(%ebp),%eax
c0106ab8:	0f b7 55 ec          	movzwl -0x14(%ebp),%edx
c0106abc:	89 44 24 14          	mov    %eax,0x14(%esp)
c0106ac0:	89 54 24 10          	mov    %edx,0x10(%esp)
c0106ac4:	c7 44 24 0c bb 00 00 	movl   $0xbb,0xc(%esp)
c0106acb:	00 
c0106acc:	c7 44 24 08 0a d5 16 	movl   $0xc016d50a,0x8(%esp)
c0106ad3:	c0 
c0106ad4:	c7 44 24 04 8b d4 16 	movl   $0xc016d48b,0x4(%esp)
c0106adb:	c0 
c0106adc:	c7 04 24 5c d5 16 c0 	movl   $0xc016d55c,(%esp)
c0106ae3:	e8 f8 0e 00 00       	call   c01079e0 <panic>
c0106ae8:	8b 45 fc             	mov    -0x4(%ebp),%eax
c0106aeb:	0f b6 40 09          	movzbl 0x9(%eax),%eax
c0106aef:	8d 50 ff             	lea    -0x1(%eax),%edx
c0106af2:	8b 45 fc             	mov    -0x4(%ebp),%eax
c0106af5:	88 50 09             	mov    %dl,0x9(%eax)
c0106af8:	8b 45 fc             	mov    -0x4(%ebp),%eax
c0106afb:	c6 40 08 01          	movb   $0x1,0x8(%eax)
c0106aff:	a1 20 d4 1f c0       	mov    0xc01fd420,%eax
c0106b04:	83 e8 01             	sub    $0x1,%eax
c0106b07:	a3 20 d4 1f c0       	mov    %eax,0xc01fd420
c0106b0c:	8b 45 fc             	mov    -0x4(%ebp),%eax
c0106b0f:	8b 40 04             	mov    0x4(%eax),%eax
c0106b12:	89 45 e4             	mov    %eax,-0x1c(%ebp)
c0106b15:	eb 07                	jmp    c0106b1e <sig_startHandling+0x10a>
c0106b17:	c7 45 e4 00 00 00 00 	movl   $0x0,-0x1c(%ebp)
c0106b1e:	8b 45 e4             	mov    -0x1c(%ebp),%eax
c0106b21:	c9                   	leave  
c0106b22:	c3                   	ret    

c0106b23 <sig_ackHandling>:
c0106b23:	55                   	push   %ebp
c0106b24:	89 e5                	mov    %esp,%ebp
c0106b26:	83 ec 28             	sub    $0x28,%esp
c0106b29:	8b 45 08             	mov    0x8(%ebp),%eax
c0106b2c:	8b 55 0c             	mov    0xc(%ebp),%edx
c0106b2f:	66 89 45 ec          	mov    %ax,-0x14(%ebp)
c0106b33:	88 55 e8             	mov    %dl,-0x18(%ebp)
c0106b36:	0f b6 45 e8          	movzbl -0x18(%ebp),%eax
c0106b3a:	89 04 24             	mov    %eax,(%esp)
c0106b3d:	e8 32 fa ff ff       	call   c0106574 <sig_canHandle>
c0106b42:	85 c0                	test   %eax,%eax
c0106b44:	75 24                	jne    c0106b6a <sig_ackHandling+0x47>
c0106b46:	c7 44 24 0c c6 00 00 	movl   $0xc6,0xc(%esp)
c0106b4d:	00 
c0106b4e:	c7 44 24 08 9f d5 16 	movl   $0xc016d59f,0x8(%esp)
c0106b55:	c0 
c0106b56:	c7 44 24 04 8b d4 16 	movl   $0xc016d48b,0x4(%esp)
c0106b5d:	c0 
c0106b5e:	c7 04 24 9c d4 16 c0 	movl   $0xc016d49c,(%esp)
c0106b65:	e8 76 0e 00 00       	call   c01079e0 <panic>
c0106b6a:	0f b6 45 e8          	movzbl -0x18(%ebp),%eax
c0106b6e:	0f b7 55 ec          	movzwl -0x14(%ebp),%edx
c0106b72:	89 44 24 04          	mov    %eax,0x4(%esp)
c0106b76:	89 14 24             	mov    %edx,(%esp)
c0106b79:	e8 12 00 00 00       	call   c0106b90 <sig_get>
c0106b7e:	89 45 fc             	mov    %eax,-0x4(%ebp)
c0106b81:	83 7d fc 00          	cmpl   $0x0,-0x4(%ebp)
c0106b85:	74 07                	je     c0106b8e <sig_ackHandling+0x6b>
c0106b87:	8b 45 fc             	mov    -0x4(%ebp),%eax
c0106b8a:	c6 40 08 00          	movb   $0x0,0x8(%eax)
c0106b8e:	c9                   	leave  
c0106b8f:	c3                   	ret    

c0106b90 <sig_get>:
c0106b90:	55                   	push   %ebp
c0106b91:	89 e5                	mov    %esp,%ebp
c0106b93:	83 ec 28             	sub    $0x28,%esp
c0106b96:	8b 45 08             	mov    0x8(%ebp),%eax
c0106b99:	8b 55 0c             	mov    0xc(%ebp),%edx
c0106b9c:	66 89 45 ec          	mov    %ax,-0x14(%ebp)
c0106ba0:	88 55 e8             	mov    %dl,-0x18(%ebp)
c0106ba3:	0f b6 45 e8          	movzbl -0x18(%ebp),%eax
c0106ba7:	83 e8 01             	sub    $0x1,%eax
c0106baa:	8b 04 85 40 d4 1f c0 	mov    -0x3fe02bc0(,%eax,4),%eax
c0106bb1:	89 45 f4             	mov    %eax,-0xc(%ebp)
c0106bb4:	83 7d f4 00          	cmpl   $0x0,-0xc(%ebp)
c0106bb8:	75 09                	jne    c0106bc3 <sig_get+0x33>
c0106bba:	c7 45 e4 00 00 00 00 	movl   $0x0,-0x1c(%ebp)
c0106bc1:	eb 42                	jmp    c0106c05 <sig_get+0x75>
c0106bc3:	8b 45 f4             	mov    -0xc(%ebp),%eax
c0106bc6:	89 04 24             	mov    %eax,(%esp)
c0106bc9:	e8 5a 4d 00 00       	call   c010b928 <sll_begin>
c0106bce:	89 45 fc             	mov    %eax,-0x4(%ebp)
c0106bd1:	eb 25                	jmp    c0106bf8 <sig_get+0x68>
c0106bd3:	8b 45 fc             	mov    -0x4(%ebp),%eax
c0106bd6:	8b 40 04             	mov    0x4(%eax),%eax
c0106bd9:	89 45 f8             	mov    %eax,-0x8(%ebp)
c0106bdc:	8b 45 f8             	mov    -0x8(%ebp),%eax
c0106bdf:	0f b7 00             	movzwl (%eax),%eax
c0106be2:	66 3b 45 ec          	cmp    -0x14(%ebp),%ax
c0106be6:	75 08                	jne    c0106bf0 <sig_get+0x60>
c0106be8:	8b 45 f8             	mov    -0x8(%ebp),%eax
c0106beb:	89 45 e4             	mov    %eax,-0x1c(%ebp)
c0106bee:	eb 15                	jmp    c0106c05 <sig_get+0x75>
c0106bf0:	8b 45 fc             	mov    -0x4(%ebp),%eax
c0106bf3:	8b 00                	mov    (%eax),%eax
c0106bf5:	89 45 fc             	mov    %eax,-0x4(%ebp)
c0106bf8:	83 7d fc 00          	cmpl   $0x0,-0x4(%ebp)
c0106bfc:	75 d5                	jne    c0106bd3 <sig_get+0x43>
c0106bfe:	c7 45 e4 00 00 00 00 	movl   $0x0,-0x1c(%ebp)
c0106c05:	8b 45 e4             	mov    -0x1c(%ebp),%eax
c0106c08:	c9                   	leave  
c0106c09:	c3                   	ret    

c0106c0a <sig_dbg_getHandlerCount>:
c0106c0a:	55                   	push   %ebp
c0106c0b:	89 e5                	mov    %esp,%ebp
c0106c0d:	83 ec 28             	sub    $0x28,%esp
c0106c10:	c7 45 f0 00 00 00 00 	movl   $0x0,-0x10(%ebp)
c0106c17:	c7 45 fc 40 d4 1f c0 	movl   $0xc01fd440,-0x4(%ebp)
c0106c1e:	c7 45 ec 00 00 00 00 	movl   $0x0,-0x14(%ebp)
c0106c25:	eb 35                	jmp    c0106c5c <sig_dbg_getHandlerCount+0x52>
c0106c27:	8b 45 fc             	mov    -0x4(%ebp),%eax
c0106c2a:	8b 00                	mov    (%eax),%eax
c0106c2c:	85 c0                	test   %eax,%eax
c0106c2e:	74 24                	je     c0106c54 <sig_dbg_getHandlerCount+0x4a>
c0106c30:	8b 45 fc             	mov    -0x4(%ebp),%eax
c0106c33:	8b 00                	mov    (%eax),%eax
c0106c35:	89 04 24             	mov    %eax,(%esp)
c0106c38:	e8 eb 4c 00 00       	call   c010b928 <sll_begin>
c0106c3d:	89 45 f4             	mov    %eax,-0xc(%ebp)
c0106c40:	eb 0c                	jmp    c0106c4e <sig_dbg_getHandlerCount+0x44>
c0106c42:	83 45 f0 01          	addl   $0x1,-0x10(%ebp)
c0106c46:	8b 45 f4             	mov    -0xc(%ebp),%eax
c0106c49:	8b 00                	mov    (%eax),%eax
c0106c4b:	89 45 f4             	mov    %eax,-0xc(%ebp)
c0106c4e:	83 7d f4 00          	cmpl   $0x0,-0xc(%ebp)
c0106c52:	75 ee                	jne    c0106c42 <sig_dbg_getHandlerCount+0x38>
c0106c54:	83 45 fc 04          	addl   $0x4,-0x4(%ebp)
c0106c58:	83 45 ec 01          	addl   $0x1,-0x14(%ebp)
c0106c5c:	83 7d ec 0a          	cmpl   $0xa,-0x14(%ebp)
c0106c60:	76 c5                	jbe    c0106c27 <sig_dbg_getHandlerCount+0x1d>
c0106c62:	8b 45 f0             	mov    -0x10(%ebp),%eax
c0106c65:	c9                   	leave  
c0106c66:	c3                   	ret    

c0106c67 <sig_dbg_getName>:
c0106c67:	55                   	push   %ebp
c0106c68:	89 e5                	mov    %esp,%ebp
c0106c6a:	83 ec 08             	sub    $0x8,%esp
c0106c6d:	8b 45 08             	mov    0x8(%ebp),%eax
c0106c70:	88 45 fc             	mov    %al,-0x4(%ebp)
c0106c73:	80 7d fc 0b          	cmpb   $0xb,-0x4(%ebp)
c0106c77:	77 10                	ja     c0106c89 <sig_dbg_getName+0x22>
c0106c79:	0f b6 45 fc          	movzbl -0x4(%ebp),%eax
c0106c7d:	8b 04 85 a0 ad 16 c0 	mov    -0x3fe95260(,%eax,4),%eax
c0106c84:	89 45 f8             	mov    %eax,-0x8(%ebp)
c0106c87:	eb 07                	jmp    c0106c90 <sig_dbg_getName+0x29>
c0106c89:	c7 45 f8 5d d6 16 c0 	movl   $0xc016d65d,-0x8(%ebp)
c0106c90:	8b 45 f8             	mov    -0x8(%ebp),%eax
c0106c93:	c9                   	leave  
c0106c94:	c3                   	ret    

c0106c95 <sig_dbg_print>:
c0106c95:	55                   	push   %ebp
c0106c96:	89 e5                	mov    %esp,%ebp
c0106c98:	53                   	push   %ebx
c0106c99:	83 ec 24             	sub    $0x24,%esp
c0106c9c:	c7 45 f8 40 d4 1f c0 	movl   $0xc01fd440,-0x8(%ebp)
c0106ca3:	c7 04 24 6c d6 16 c0 	movl   $0xc016d66c,(%esp)
c0106caa:	e8 96 47 00 00       	call   c010b445 <vid_printf>
c0106caf:	c7 45 ec 00 00 00 00 	movl   $0x0,-0x14(%ebp)
c0106cb6:	e9 9a 00 00 00       	jmp    c0106d55 <sig_dbg_print+0xc0>
c0106cbb:	8b 45 ec             	mov    -0x14(%ebp),%eax
c0106cbe:	83 c0 01             	add    $0x1,%eax
c0106cc1:	0f b6 c0             	movzbl %al,%eax
c0106cc4:	89 04 24             	mov    %eax,(%esp)
c0106cc7:	e8 9b ff ff ff       	call   c0106c67 <sig_dbg_getName>
c0106ccc:	89 44 24 04          	mov    %eax,0x4(%esp)
c0106cd0:	c7 04 24 88 d6 16 c0 	movl   $0xc016d688,(%esp)
c0106cd7:	e8 69 47 00 00       	call   c010b445 <vid_printf>
c0106cdc:	8b 45 f8             	mov    -0x8(%ebp),%eax
c0106cdf:	8b 00                	mov    (%eax),%eax
c0106ce1:	85 c0                	test   %eax,%eax
c0106ce3:	74 68                	je     c0106d4d <sig_dbg_print+0xb8>
c0106ce5:	8b 45 f8             	mov    -0x8(%ebp),%eax
c0106ce8:	8b 00                	mov    (%eax),%eax
c0106cea:	89 04 24             	mov    %eax,(%esp)
c0106ced:	e8 36 4c 00 00       	call   c010b928 <sll_begin>
c0106cf2:	89 45 f0             	mov    %eax,-0x10(%ebp)
c0106cf5:	eb 50                	jmp    c0106d47 <sig_dbg_print+0xb2>
c0106cf7:	8b 45 f0             	mov    -0x10(%ebp),%eax
c0106cfa:	8b 40 04             	mov    0x4(%eax),%eax
c0106cfd:	89 45 f4             	mov    %eax,-0xc(%ebp)
c0106d00:	8b 45 f4             	mov    -0xc(%ebp),%eax
c0106d03:	0f b6 40 09          	movzbl 0x9(%eax),%eax
c0106d07:	0f b6 d0             	movzbl %al,%edx
c0106d0a:	8b 45 f4             	mov    -0xc(%ebp),%eax
c0106d0d:	0f b6 40 08          	movzbl 0x8(%eax),%eax
c0106d11:	0f b6 c8             	movzbl %al,%ecx
c0106d14:	8b 45 f4             	mov    -0xc(%ebp),%eax
c0106d17:	8b 58 04             	mov    0x4(%eax),%ebx
c0106d1a:	8b 45 f4             	mov    -0xc(%ebp),%eax
c0106d1d:	0f b7 00             	movzwl (%eax),%eax
c0106d20:	0f b7 c0             	movzwl %ax,%eax
c0106d23:	89 54 24 10          	mov    %edx,0x10(%esp)
c0106d27:	89 4c 24 0c          	mov    %ecx,0xc(%esp)
c0106d2b:	89 5c 24 08          	mov    %ebx,0x8(%esp)
c0106d2f:	89 44 24 04          	mov    %eax,0x4(%esp)
c0106d33:	c7 04 24 90 d6 16 c0 	movl   $0xc016d690,(%esp)
c0106d3a:	e8 06 47 00 00       	call   c010b445 <vid_printf>
c0106d3f:	8b 45 f0             	mov    -0x10(%ebp),%eax
c0106d42:	8b 00                	mov    (%eax),%eax
c0106d44:	89 45 f0             	mov    %eax,-0x10(%ebp)
c0106d47:	83 7d f0 00          	cmpl   $0x0,-0x10(%ebp)
c0106d4b:	75 aa                	jne    c0106cf7 <sig_dbg_print+0x62>
c0106d4d:	83 45 f8 04          	addl   $0x4,-0x8(%ebp)
c0106d51:	83 45 ec 01          	addl   $0x1,-0x14(%ebp)
c0106d55:	83 7d ec 0a          	cmpl   $0xa,-0x14(%ebp)
c0106d59:	0f 86 5c ff ff ff    	jbe    c0106cbb <sig_dbg_print+0x26>
c0106d5f:	83 c4 24             	add    $0x24,%esp
c0106d62:	5b                   	pop    %ebx
c0106d63:	5d                   	pop    %ebp
c0106d64:	c3                   	ret    
c0106d65:	00 00                	add    %al,(%eax)
	...

c0106d68 <sysc_handle>:
c0106d68:	55                   	push   %ebp
c0106d69:	89 e5                	mov    %esp,%ebp
c0106d6b:	83 ec 28             	sub    $0x28,%esp
c0106d6e:	8b 45 08             	mov    0x8(%ebp),%eax
c0106d71:	8b 40 44             	mov    0x44(%eax),%eax
c0106d74:	89 45 f8             	mov    %eax,-0x8(%ebp)
c0106d77:	83 7d f8 00          	cmpl   $0x0,-0x8(%ebp)
c0106d7b:	75 24                	jne    c0106da1 <sysc_handle+0x39>
c0106d7d:	c7 44 24 0c f6 00 00 	movl   $0xf6,0xc(%esp)
c0106d84:	00 
c0106d85:	c7 44 24 08 c0 d6 16 	movl   $0xc016d6c0,0x8(%esp)
c0106d8c:	c0 
c0106d8d:	c7 44 24 04 cc d6 16 	movl   $0xc016d6cc,0x4(%esp)
c0106d94:	c0 
c0106d95:	c7 04 24 dc d6 16 c0 	movl   $0xc016d6dc,(%esp)
c0106d9c:	e8 3f 0c 00 00       	call   c01079e0 <panic>
c0106da1:	8b 45 f8             	mov    -0x8(%ebp),%eax
c0106da4:	8b 00                	mov    (%eax),%eax
c0106da6:	89 45 fc             	mov    %eax,-0x4(%ebp)
c0106da9:	83 7d fc 18          	cmpl   $0x18,-0x4(%ebp)
c0106dad:	77 1b                	ja     c0106dca <sysc_handle+0x62>
c0106daf:	8b 45 f8             	mov    -0x8(%ebp),%eax
c0106db2:	c7 00 00 00 00 00    	movl   $0x0,(%eax)
c0106db8:	8b 45 fc             	mov    -0x4(%ebp),%eax
c0106dbb:	8b 14 c5 e0 ad 16 c0 	mov    -0x3fe95220(,%eax,8),%edx
c0106dc2:	8b 45 f8             	mov    -0x8(%ebp),%eax
c0106dc5:	89 04 24             	mov    %eax,(%esp)
c0106dc8:	ff d2                	call   *%edx
c0106dca:	c9                   	leave  
c0106dcb:	c3                   	ret    

c0106dcc <sysc_getpid>:
c0106dcc:	55                   	push   %ebp
c0106dcd:	89 e5                	mov    %esp,%ebp
c0106dcf:	83 ec 18             	sub    $0x18,%esp
c0106dd2:	e8 89 e0 ff ff       	call   c0104e60 <proc_getRunning>
c0106dd7:	89 45 fc             	mov    %eax,-0x4(%ebp)
c0106dda:	8b 45 fc             	mov    -0x4(%ebp),%eax
c0106ddd:	0f b7 40 02          	movzwl 0x2(%eax),%eax
c0106de1:	0f b7 d0             	movzwl %ax,%edx
c0106de4:	8b 45 08             	mov    0x8(%ebp),%eax
c0106de7:	89 50 04             	mov    %edx,0x4(%eax)
c0106dea:	c9                   	leave  
c0106deb:	c3                   	ret    

c0106dec <sysc_getppid>:
c0106dec:	55                   	push   %ebp
c0106ded:	89 e5                	mov    %esp,%ebp
c0106def:	83 ec 18             	sub    $0x18,%esp
c0106df2:	e8 69 e0 ff ff       	call   c0104e60 <proc_getRunning>
c0106df7:	89 45 fc             	mov    %eax,-0x4(%ebp)
c0106dfa:	8b 45 fc             	mov    -0x4(%ebp),%eax
c0106dfd:	0f b7 40 04          	movzwl 0x4(%eax),%eax
c0106e01:	0f b7 d0             	movzwl %ax,%edx
c0106e04:	8b 45 08             	mov    0x8(%ebp),%eax
c0106e07:	89 50 04             	mov    %edx,0x4(%eax)
c0106e0a:	c9                   	leave  
c0106e0b:	c3                   	ret    

c0106e0c <sysc_debugc>:
c0106e0c:	55                   	push   %ebp
c0106e0d:	89 e5                	mov    %esp,%ebp
c0106e0f:	83 ec 08             	sub    $0x8,%esp
c0106e12:	8b 45 08             	mov    0x8(%ebp),%eax
c0106e15:	8b 40 04             	mov    0x4(%eax),%eax
c0106e18:	0f be c0             	movsbl %al,%eax
c0106e1b:	89 04 24             	mov    %eax,(%esp)
c0106e1e:	e8 e1 42 00 00       	call   c010b104 <vid_putchar>
c0106e23:	c9                   	leave  
c0106e24:	c3                   	ret    

c0106e25 <sysc_fork>:
c0106e25:	55                   	push   %ebp
c0106e26:	89 e5                	mov    %esp,%ebp
c0106e28:	83 ec 18             	sub    $0x18,%esp
c0106e2b:	e8 e6 df ff ff       	call   c0104e16 <proc_getFreePid>
c0106e30:	66 89 45 fa          	mov    %ax,-0x6(%ebp)
c0106e34:	0f b7 45 fa          	movzwl -0x6(%ebp),%eax
c0106e38:	89 04 24             	mov    %eax,(%esp)
c0106e3b:	e8 2d e7 ff ff       	call   c010556d <proc_clone>
c0106e40:	89 45 fc             	mov    %eax,-0x4(%ebp)
c0106e43:	83 7d fc ff          	cmpl   $0xffffffff,-0x4(%ebp)
c0106e47:	75 0c                	jne    c0106e55 <sysc_fork+0x30>
c0106e49:	8b 45 08             	mov    0x8(%ebp),%eax
c0106e4c:	c7 40 04 ff ff ff ff 	movl   $0xffffffff,0x4(%eax)
c0106e53:	eb 1c                	jmp    c0106e71 <sysc_fork+0x4c>
c0106e55:	83 7d fc 01          	cmpl   $0x1,-0x4(%ebp)
c0106e59:	75 0c                	jne    c0106e67 <sysc_fork+0x42>
c0106e5b:	8b 45 08             	mov    0x8(%ebp),%eax
c0106e5e:	c7 40 04 00 00 00 00 	movl   $0x0,0x4(%eax)
c0106e65:	eb 0a                	jmp    c0106e71 <sysc_fork+0x4c>
c0106e67:	0f b7 55 fa          	movzwl -0x6(%ebp),%edx
c0106e6b:	8b 45 08             	mov    0x8(%ebp),%eax
c0106e6e:	89 50 04             	mov    %edx,0x4(%eax)
c0106e71:	c9                   	leave  
c0106e72:	c3                   	ret    

c0106e73 <sysc_exit>:
c0106e73:	55                   	push   %ebp
c0106e74:	89 e5                	mov    %esp,%ebp
c0106e76:	53                   	push   %ebx
c0106e77:	83 ec 14             	sub    $0x14,%esp
c0106e7a:	8b 45 08             	mov    0x8(%ebp),%eax
c0106e7d:	8b 58 04             	mov    0x4(%eax),%ebx
c0106e80:	e8 db df ff ff       	call   c0104e60 <proc_getRunning>
c0106e85:	0f b7 40 02          	movzwl 0x2(%eax),%eax
c0106e89:	0f b7 c0             	movzwl %ax,%eax
c0106e8c:	89 5c 24 08          	mov    %ebx,0x8(%esp)
c0106e90:	89 44 24 04          	mov    %eax,0x4(%esp)
c0106e94:	c7 04 24 10 d7 16 c0 	movl   $0xc016d710,(%esp)
c0106e9b:	e8 a5 45 00 00       	call   c010b445 <vid_printf>
c0106ea0:	e8 a7 e9 ff ff       	call   c010584c <proc_suicide>
c0106ea5:	e8 2c e0 ff ff       	call   c0104ed6 <proc_switch>
c0106eaa:	83 c4 14             	add    $0x14,%esp
c0106ead:	5b                   	pop    %ebx
c0106eae:	5d                   	pop    %ebp
c0106eaf:	c3                   	ret    

c0106eb0 <sysc_open>:
c0106eb0:	55                   	push   %ebp
c0106eb1:	89 e5                	mov    %esp,%ebp
c0106eb3:	81 ec 38 01 00 00    	sub    $0x138,%esp
c0106eb9:	e8 a2 df ff ff       	call   c0104e60 <proc_getRunning>
c0106ebe:	89 45 fc             	mov    %eax,-0x4(%ebp)
c0106ec1:	8b 45 08             	mov    0x8(%ebp),%eax
c0106ec4:	8b 40 04             	mov    0x4(%eax),%eax
c0106ec7:	89 04 24             	mov    %eax,(%esp)
c0106eca:	e8 3a 5c 00 00       	call   c010cb09 <strlen>
c0106ecf:	83 c0 01             	add    $0x1,%eax
c0106ed2:	3d ff 00 00 00       	cmp    $0xff,%eax
c0106ed7:	77 19                	ja     c0106ef2 <sysc_open+0x42>
c0106ed9:	8b 45 08             	mov    0x8(%ebp),%eax
c0106edc:	8b 40 04             	mov    0x4(%eax),%eax
c0106edf:	89 04 24             	mov    %eax,(%esp)
c0106ee2:	e8 22 5c 00 00       	call   c010cb09 <strlen>
c0106ee7:	83 c0 01             	add    $0x1,%eax
c0106eea:	89 85 dc fe ff ff    	mov    %eax,-0x124(%ebp)
c0106ef0:	eb 0a                	jmp    c0106efc <sysc_open+0x4c>
c0106ef2:	c7 85 dc fe ff ff ff 	movl   $0xff,-0x124(%ebp)
c0106ef9:	00 00 00 
c0106efc:	8d 95 f0 fe ff ff    	lea    -0x110(%ebp),%edx
c0106f02:	8b 45 08             	mov    0x8(%ebp),%eax
c0106f05:	8b 40 04             	mov    0x4(%eax),%eax
c0106f08:	8b 8d dc fe ff ff    	mov    -0x124(%ebp),%ecx
c0106f0e:	89 4c 24 08          	mov    %ecx,0x8(%esp)
c0106f12:	89 54 24 04          	mov    %edx,0x4(%esp)
c0106f16:	89 04 24             	mov    %eax,(%esp)
c0106f19:	e8 2a 0d 00 00       	call   c0107c48 <copyUserToKernel>
c0106f1e:	8b 45 08             	mov    0x8(%ebp),%eax
c0106f21:	8b 40 08             	mov    0x8(%eax),%eax
c0106f24:	83 e0 03             	and    $0x3,%eax
c0106f27:	88 45 ef             	mov    %al,-0x11(%ebp)
c0106f2a:	0f b6 45 ef          	movzbl -0x11(%ebp),%eax
c0106f2e:	83 e0 03             	and    $0x3,%eax
c0106f31:	85 c0                	test   %eax,%eax
c0106f33:	75 0e                	jne    c0106f43 <sysc_open+0x93>
c0106f35:	8b 45 08             	mov    0x8(%ebp),%eax
c0106f38:	c7 00 fb ff ff ff    	movl   $0xfffffffb,(%eax)
c0106f3e:	e9 07 01 00 00       	jmp    c010704a <sysc_open+0x19a>
c0106f43:	8d 85 ec fe ff ff    	lea    -0x114(%ebp),%eax
c0106f49:	89 44 24 04          	mov    %eax,0x4(%esp)
c0106f4d:	8d 85 f0 fe ff ff    	lea    -0x110(%ebp),%eax
c0106f53:	89 04 24             	mov    %eax,(%esp)
c0106f56:	e8 2f 2c 00 00       	call   c0109b8a <vfsn_resolvePath>
c0106f5b:	89 45 f4             	mov    %eax,-0xc(%ebp)
c0106f5e:	81 7d f4 38 ff ff ff 	cmpl   $0xffffff38,-0xc(%ebp)
c0106f65:	75 50                	jne    c0106fb7 <sysc_open+0x107>
c0106f67:	c7 04 24 35 d7 16 c0 	movl   $0xc016d735,(%esp)
c0106f6e:	e8 96 5b 00 00       	call   c010cb09 <strlen>
c0106f73:	8d 95 f0 fe ff ff    	lea    -0x110(%ebp),%edx
c0106f79:	01 c2                	add    %eax,%edx
c0106f7b:	0f b6 4d ef          	movzbl -0x11(%ebp),%ecx
c0106f7f:	8b 45 fc             	mov    -0x4(%ebp),%eax
c0106f82:	0f b7 40 02          	movzwl 0x2(%eax),%eax
c0106f86:	0f b7 c0             	movzwl %ax,%eax
c0106f89:	89 54 24 08          	mov    %edx,0x8(%esp)
c0106f8d:	89 4c 24 04          	mov    %ecx,0x4(%esp)
c0106f91:	89 04 24             	mov    %eax,(%esp)
c0106f94:	e8 3c 3a 00 00       	call   c010a9d5 <vfsr_openFile>
c0106f99:	89 45 f0             	mov    %eax,-0x10(%ebp)
c0106f9c:	e8 01 e3 ff ff       	call   c01052a2 <proc_getFreeFd>
c0106fa1:	89 45 f8             	mov    %eax,-0x8(%ebp)
c0106fa4:	83 7d f8 00          	cmpl   $0x0,-0x8(%ebp)
c0106fa8:	79 5f                	jns    c0107009 <sysc_open+0x159>
c0106faa:	8b 55 08             	mov    0x8(%ebp),%edx
c0106fad:	8b 45 f8             	mov    -0x8(%ebp),%eax
c0106fb0:	89 02                	mov    %eax,(%edx)
c0106fb2:	e9 93 00 00 00       	jmp    c010704a <sysc_open+0x19a>
c0106fb7:	83 7d f4 00          	cmpl   $0x0,-0xc(%ebp)
c0106fbb:	79 0d                	jns    c0106fca <sysc_open+0x11a>
c0106fbd:	8b 55 08             	mov    0x8(%ebp),%edx
c0106fc0:	8b 45 f4             	mov    -0xc(%ebp),%eax
c0106fc3:	89 02                	mov    %eax,(%edx)
c0106fc5:	e9 80 00 00 00       	jmp    c010704a <sysc_open+0x19a>
c0106fca:	e8 d3 e2 ff ff       	call   c01052a2 <proc_getFreeFd>
c0106fcf:	89 45 f8             	mov    %eax,-0x8(%ebp)
c0106fd2:	83 7d f8 00          	cmpl   $0x0,-0x8(%ebp)
c0106fd6:	79 0a                	jns    c0106fe2 <sysc_open+0x132>
c0106fd8:	8b 55 08             	mov    0x8(%ebp),%edx
c0106fdb:	8b 45 f8             	mov    -0x8(%ebp),%eax
c0106fde:	89 02                	mov    %eax,(%edx)
c0106fe0:	eb 68                	jmp    c010704a <sysc_open+0x19a>
c0106fe2:	8b 95 ec fe ff ff    	mov    -0x114(%ebp),%edx
c0106fe8:	0f b6 4d ef          	movzbl -0x11(%ebp),%ecx
c0106fec:	8b 45 fc             	mov    -0x4(%ebp),%eax
c0106fef:	0f b7 40 02          	movzwl 0x2(%eax),%eax
c0106ff3:	0f b7 c0             	movzwl %ax,%eax
c0106ff6:	89 54 24 08          	mov    %edx,0x8(%esp)
c0106ffa:	89 4c 24 04          	mov    %ecx,0x4(%esp)
c0106ffe:	89 04 24             	mov    %eax,(%esp)
c0107001:	e8 78 0e 00 00       	call   c0107e7e <vfs_openFile>
c0107006:	89 45 f0             	mov    %eax,-0x10(%ebp)
c0107009:	83 7d f0 00          	cmpl   $0x0,-0x10(%ebp)
c010700d:	79 0a                	jns    c0107019 <sysc_open+0x169>
c010700f:	8b 55 08             	mov    0x8(%ebp),%edx
c0107012:	8b 45 f0             	mov    -0x10(%ebp),%eax
c0107015:	89 02                	mov    %eax,(%edx)
c0107017:	eb 31                	jmp    c010704a <sysc_open+0x19a>
c0107019:	8b 45 f8             	mov    -0x8(%ebp),%eax
c010701c:	0f b7 d0             	movzwl %ax,%edx
c010701f:	8b 45 f0             	mov    -0x10(%ebp),%eax
c0107022:	89 44 24 04          	mov    %eax,0x4(%esp)
c0107026:	89 14 24             	mov    %edx,(%esp)
c0107029:	e8 d6 e2 ff ff       	call   c0105304 <proc_assocFd>
c010702e:	89 45 f4             	mov    %eax,-0xc(%ebp)
c0107031:	83 7d f4 00          	cmpl   $0x0,-0xc(%ebp)
c0107035:	79 0a                	jns    c0107041 <sysc_open+0x191>
c0107037:	8b 55 08             	mov    0x8(%ebp),%edx
c010703a:	8b 45 f4             	mov    -0xc(%ebp),%eax
c010703d:	89 02                	mov    %eax,(%edx)
c010703f:	eb 09                	jmp    c010704a <sysc_open+0x19a>
c0107041:	8b 55 f8             	mov    -0x8(%ebp),%edx
c0107044:	8b 45 08             	mov    0x8(%ebp),%eax
c0107047:	89 50 04             	mov    %edx,0x4(%eax)
c010704a:	c9                   	leave  
c010704b:	c3                   	ret    

c010704c <sysc_read>:
c010704c:	55                   	push   %ebp
c010704d:	89 e5                	mov    %esp,%ebp
c010704f:	83 ec 38             	sub    $0x38,%esp
c0107052:	8b 45 08             	mov    0x8(%ebp),%eax
c0107055:	8b 40 04             	mov    0x4(%eax),%eax
c0107058:	66 89 45 ea          	mov    %ax,-0x16(%ebp)
c010705c:	8b 45 08             	mov    0x8(%ebp),%eax
c010705f:	8b 40 08             	mov    0x8(%eax),%eax
c0107062:	89 45 ec             	mov    %eax,-0x14(%ebp)
c0107065:	8b 45 08             	mov    0x8(%ebp),%eax
c0107068:	8b 40 0c             	mov    0xc(%eax),%eax
c010706b:	89 45 f0             	mov    %eax,-0x10(%ebp)
c010706e:	e8 ed dd ff ff       	call   c0104e60 <proc_getRunning>
c0107073:	89 45 f4             	mov    %eax,-0xc(%ebp)
c0107076:	83 7d f0 00          	cmpl   $0x0,-0x10(%ebp)
c010707a:	75 0e                	jne    c010708a <sysc_read+0x3e>
c010707c:	8b 45 08             	mov    0x8(%ebp),%eax
c010707f:	c7 00 fb ff ff ff    	movl   $0xfffffffb,(%eax)
c0107085:	e9 83 00 00 00       	jmp    c010710d <sysc_read+0xc1>
c010708a:	8b 45 ec             	mov    -0x14(%ebp),%eax
c010708d:	8b 55 f0             	mov    -0x10(%ebp),%edx
c0107090:	89 54 24 04          	mov    %edx,0x4(%esp)
c0107094:	89 04 24             	mov    %eax,(%esp)
c0107097:	e8 21 c6 ff ff       	call   c01036bd <paging_isRangeUserWritable>
c010709c:	85 c0                	test   %eax,%eax
c010709e:	75 0b                	jne    c01070ab <sysc_read+0x5f>
c01070a0:	8b 45 08             	mov    0x8(%ebp),%eax
c01070a3:	c7 00 fb ff ff ff    	movl   $0xfffffffb,(%eax)
c01070a9:	eb 62                	jmp    c010710d <sysc_read+0xc1>
c01070ab:	0f b7 45 ea          	movzwl -0x16(%ebp),%eax
c01070af:	89 04 24             	mov    %eax,(%esp)
c01070b2:	e8 87 e1 ff ff       	call   c010523e <proc_fdToFile>
c01070b7:	89 45 fc             	mov    %eax,-0x4(%ebp)
c01070ba:	83 7d fc 00          	cmpl   $0x0,-0x4(%ebp)
c01070be:	79 0a                	jns    c01070ca <sysc_read+0x7e>
c01070c0:	8b 55 08             	mov    0x8(%ebp),%edx
c01070c3:	8b 45 fc             	mov    -0x4(%ebp),%eax
c01070c6:	89 02                	mov    %eax,(%edx)
c01070c8:	eb 43                	jmp    c010710d <sysc_read+0xc1>
c01070ca:	8b 55 ec             	mov    -0x14(%ebp),%edx
c01070cd:	8b 45 f4             	mov    -0xc(%ebp),%eax
c01070d0:	0f b7 40 02          	movzwl 0x2(%eax),%eax
c01070d4:	0f b7 c8             	movzwl %ax,%ecx
c01070d7:	8b 45 f0             	mov    -0x10(%ebp),%eax
c01070da:	89 44 24 0c          	mov    %eax,0xc(%esp)
c01070de:	89 54 24 08          	mov    %edx,0x8(%esp)
c01070e2:	8b 45 fc             	mov    -0x4(%ebp),%eax
c01070e5:	89 44 24 04          	mov    %eax,0x4(%esp)
c01070e9:	89 0c 24             	mov    %ecx,(%esp)
c01070ec:	e8 4f 11 00 00       	call   c0108240 <vfs_readFile>
c01070f1:	89 45 f8             	mov    %eax,-0x8(%ebp)
c01070f4:	83 7d f8 00          	cmpl   $0x0,-0x8(%ebp)
c01070f8:	79 0a                	jns    c0107104 <sysc_read+0xb8>
c01070fa:	8b 55 08             	mov    0x8(%ebp),%edx
c01070fd:	8b 45 f8             	mov    -0x8(%ebp),%eax
c0107100:	89 02                	mov    %eax,(%edx)
c0107102:	eb 09                	jmp    c010710d <sysc_read+0xc1>
c0107104:	8b 55 f8             	mov    -0x8(%ebp),%edx
c0107107:	8b 45 08             	mov    0x8(%ebp),%eax
c010710a:	89 50 04             	mov    %edx,0x4(%eax)
c010710d:	c9                   	leave  
c010710e:	c3                   	ret    

c010710f <sysc_write>:
c010710f:	55                   	push   %ebp
c0107110:	89 e5                	mov    %esp,%ebp
c0107112:	83 ec 38             	sub    $0x38,%esp
c0107115:	8b 45 08             	mov    0x8(%ebp),%eax
c0107118:	8b 40 04             	mov    0x4(%eax),%eax
c010711b:	66 89 45 ea          	mov    %ax,-0x16(%ebp)
c010711f:	8b 45 08             	mov    0x8(%ebp),%eax
c0107122:	8b 40 08             	mov    0x8(%eax),%eax
c0107125:	89 45 ec             	mov    %eax,-0x14(%ebp)
c0107128:	8b 45 08             	mov    0x8(%ebp),%eax
c010712b:	8b 40 0c             	mov    0xc(%eax),%eax
c010712e:	89 45 f0             	mov    %eax,-0x10(%ebp)
c0107131:	e8 2a dd ff ff       	call   c0104e60 <proc_getRunning>
c0107136:	89 45 f4             	mov    %eax,-0xc(%ebp)
c0107139:	83 7d f0 00          	cmpl   $0x0,-0x10(%ebp)
c010713d:	75 0e                	jne    c010714d <sysc_write+0x3e>
c010713f:	8b 45 08             	mov    0x8(%ebp),%eax
c0107142:	c7 00 fb ff ff ff    	movl   $0xfffffffb,(%eax)
c0107148:	e9 83 00 00 00       	jmp    c01071d0 <sysc_write+0xc1>
c010714d:	8b 45 ec             	mov    -0x14(%ebp),%eax
c0107150:	8b 55 f0             	mov    -0x10(%ebp),%edx
c0107153:	89 54 24 04          	mov    %edx,0x4(%esp)
c0107157:	89 04 24             	mov    %eax,(%esp)
c010715a:	e8 92 c4 ff ff       	call   c01035f1 <paging_isRangeUserReadable>
c010715f:	85 c0                	test   %eax,%eax
c0107161:	75 0b                	jne    c010716e <sysc_write+0x5f>
c0107163:	8b 45 08             	mov    0x8(%ebp),%eax
c0107166:	c7 00 fb ff ff ff    	movl   $0xfffffffb,(%eax)
c010716c:	eb 62                	jmp    c01071d0 <sysc_write+0xc1>
c010716e:	0f b7 45 ea          	movzwl -0x16(%ebp),%eax
c0107172:	89 04 24             	mov    %eax,(%esp)
c0107175:	e8 c4 e0 ff ff       	call   c010523e <proc_fdToFile>
c010717a:	89 45 fc             	mov    %eax,-0x4(%ebp)
c010717d:	83 7d fc 00          	cmpl   $0x0,-0x4(%ebp)
c0107181:	79 0a                	jns    c010718d <sysc_write+0x7e>
c0107183:	8b 55 08             	mov    0x8(%ebp),%edx
c0107186:	8b 45 fc             	mov    -0x4(%ebp),%eax
c0107189:	89 02                	mov    %eax,(%edx)
c010718b:	eb 43                	jmp    c01071d0 <sysc_write+0xc1>
c010718d:	8b 55 ec             	mov    -0x14(%ebp),%edx
c0107190:	8b 45 f4             	mov    -0xc(%ebp),%eax
c0107193:	0f b7 40 02          	movzwl 0x2(%eax),%eax
c0107197:	0f b7 c8             	movzwl %ax,%ecx
c010719a:	8b 45 f0             	mov    -0x10(%ebp),%eax
c010719d:	89 44 24 0c          	mov    %eax,0xc(%esp)
c01071a1:	89 54 24 08          	mov    %edx,0x8(%esp)
c01071a5:	8b 45 fc             	mov    -0x4(%ebp),%eax
c01071a8:	89 44 24 04          	mov    %eax,0x4(%esp)
c01071ac:	89 0c 24             	mov    %ecx,(%esp)
c01071af:	e8 35 12 00 00       	call   c01083e9 <vfs_writeFile>
c01071b4:	89 45 f8             	mov    %eax,-0x8(%ebp)
c01071b7:	83 7d f8 00          	cmpl   $0x0,-0x8(%ebp)
c01071bb:	79 0a                	jns    c01071c7 <sysc_write+0xb8>
c01071bd:	8b 55 08             	mov    0x8(%ebp),%edx
c01071c0:	8b 45 f8             	mov    -0x8(%ebp),%eax
c01071c3:	89 02                	mov    %eax,(%edx)
c01071c5:	eb 09                	jmp    c01071d0 <sysc_write+0xc1>
c01071c7:	8b 55 f8             	mov    -0x8(%ebp),%edx
c01071ca:	8b 45 08             	mov    0x8(%ebp),%eax
c01071cd:	89 50 04             	mov    %edx,0x4(%eax)
c01071d0:	c9                   	leave  
c01071d1:	c3                   	ret    

c01071d2 <sysc_dupFd>:
c01071d2:	55                   	push   %ebp
c01071d3:	89 e5                	mov    %esp,%ebp
c01071d5:	83 ec 18             	sub    $0x18,%esp
c01071d8:	8b 45 08             	mov    0x8(%ebp),%eax
c01071db:	8b 40 04             	mov    0x4(%eax),%eax
c01071de:	66 89 45 fa          	mov    %ax,-0x6(%ebp)
c01071e2:	0f b7 45 fa          	movzwl -0x6(%ebp),%eax
c01071e6:	89 04 24             	mov    %eax,(%esp)
c01071e9:	e8 96 e1 ff ff       	call   c0105384 <proc_dupFd>
c01071ee:	89 45 fc             	mov    %eax,-0x4(%ebp)
c01071f1:	83 7d fc 00          	cmpl   $0x0,-0x4(%ebp)
c01071f5:	79 0a                	jns    c0107201 <sysc_dupFd+0x2f>
c01071f7:	8b 55 08             	mov    0x8(%ebp),%edx
c01071fa:	8b 45 fc             	mov    -0x4(%ebp),%eax
c01071fd:	89 02                	mov    %eax,(%edx)
c01071ff:	eb 09                	jmp    c010720a <sysc_dupFd+0x38>
c0107201:	8b 55 fc             	mov    -0x4(%ebp),%edx
c0107204:	8b 45 08             	mov    0x8(%ebp),%eax
c0107207:	89 50 04             	mov    %edx,0x4(%eax)
c010720a:	c9                   	leave  
c010720b:	c3                   	ret    

c010720c <sysc_redirFd>:
c010720c:	55                   	push   %ebp
c010720d:	89 e5                	mov    %esp,%ebp
c010720f:	83 ec 18             	sub    $0x18,%esp
c0107212:	8b 45 08             	mov    0x8(%ebp),%eax
c0107215:	8b 40 04             	mov    0x4(%eax),%eax
c0107218:	66 89 45 f8          	mov    %ax,-0x8(%ebp)
c010721c:	8b 45 08             	mov    0x8(%ebp),%eax
c010721f:	8b 40 08             	mov    0x8(%eax),%eax
c0107222:	66 89 45 fa          	mov    %ax,-0x6(%ebp)
c0107226:	0f b7 45 fa          	movzwl -0x6(%ebp),%eax
c010722a:	0f b7 55 f8          	movzwl -0x8(%ebp),%edx
c010722e:	89 44 24 04          	mov    %eax,0x4(%esp)
c0107232:	89 14 24             	mov    %edx,(%esp)
c0107235:	e8 e3 e1 ff ff       	call   c010541d <proc_redirFd>
c010723a:	89 45 fc             	mov    %eax,-0x4(%ebp)
c010723d:	83 7d fc 00          	cmpl   $0x0,-0x4(%ebp)
c0107241:	79 0a                	jns    c010724d <sysc_redirFd+0x41>
c0107243:	8b 55 08             	mov    0x8(%ebp),%edx
c0107246:	8b 45 fc             	mov    -0x4(%ebp),%eax
c0107249:	89 02                	mov    %eax,(%edx)
c010724b:	eb 09                	jmp    c0107256 <sysc_redirFd+0x4a>
c010724d:	8b 55 fc             	mov    -0x4(%ebp),%edx
c0107250:	8b 45 08             	mov    0x8(%ebp),%eax
c0107253:	89 50 04             	mov    %edx,0x4(%eax)
c0107256:	c9                   	leave  
c0107257:	c3                   	ret    

c0107258 <sysc_close>:
c0107258:	55                   	push   %ebp
c0107259:	89 e5                	mov    %esp,%ebp
c010725b:	83 ec 18             	sub    $0x18,%esp
c010725e:	8b 45 08             	mov    0x8(%ebp),%eax
c0107261:	8b 40 04             	mov    0x4(%eax),%eax
c0107264:	66 89 45 fa          	mov    %ax,-0x6(%ebp)
c0107268:	0f b7 45 fa          	movzwl -0x6(%ebp),%eax
c010726c:	89 04 24             	mov    %eax,(%esp)
c010726f:	e8 75 e2 ff ff       	call   c01054e9 <proc_unassocFD>
c0107274:	89 45 fc             	mov    %eax,-0x4(%ebp)
c0107277:	83 7d fc 00          	cmpl   $0x0,-0x4(%ebp)
c010727b:	78 0b                	js     c0107288 <sysc_close+0x30>
c010727d:	8b 45 fc             	mov    -0x4(%ebp),%eax
c0107280:	89 04 24             	mov    %eax,(%esp)
c0107283:	e8 8e 12 00 00       	call   c0108516 <vfs_closeFile>
c0107288:	c9                   	leave  
c0107289:	c3                   	ret    

c010728a <sysc_regService>:
c010728a:	55                   	push   %ebp
c010728b:	89 e5                	mov    %esp,%ebp
c010728d:	83 ec 28             	sub    $0x28,%esp
c0107290:	8b 45 08             	mov    0x8(%ebp),%eax
c0107293:	8b 40 04             	mov    0x4(%eax),%eax
c0107296:	89 45 f0             	mov    %eax,-0x10(%ebp)
c0107299:	8b 45 08             	mov    0x8(%ebp),%eax
c010729c:	8b 40 08             	mov    0x8(%eax),%eax
c010729f:	88 45 f7             	mov    %al,-0x9(%ebp)
c01072a2:	e8 b9 db ff ff       	call   c0104e60 <proc_getRunning>
c01072a7:	89 45 f8             	mov    %eax,-0x8(%ebp)
c01072aa:	0f b6 55 f7          	movzbl -0x9(%ebp),%edx
c01072ae:	8b 45 f8             	mov    -0x8(%ebp),%eax
c01072b1:	0f b7 40 02          	movzwl 0x2(%eax),%eax
c01072b5:	0f b7 c8             	movzwl %ax,%ecx
c01072b8:	89 54 24 08          	mov    %edx,0x8(%esp)
c01072bc:	8b 45 f0             	mov    -0x10(%ebp),%eax
c01072bf:	89 44 24 04          	mov    %eax,0x4(%esp)
c01072c3:	89 0c 24             	mov    %ecx,(%esp)
c01072c6:	e8 e1 13 00 00       	call   c01086ac <vfs_createService>
c01072cb:	89 45 fc             	mov    %eax,-0x4(%ebp)
c01072ce:	83 7d fc 00          	cmpl   $0x0,-0x4(%ebp)
c01072d2:	79 0a                	jns    c01072de <sysc_regService+0x54>
c01072d4:	8b 55 08             	mov    0x8(%ebp),%edx
c01072d7:	8b 45 fc             	mov    -0x4(%ebp),%eax
c01072da:	89 02                	mov    %eax,(%edx)
c01072dc:	eb 09                	jmp    c01072e7 <sysc_regService+0x5d>
c01072de:	8b 55 fc             	mov    -0x4(%ebp),%edx
c01072e1:	8b 45 08             	mov    0x8(%ebp),%eax
c01072e4:	89 50 04             	mov    %edx,0x4(%eax)
c01072e7:	c9                   	leave  
c01072e8:	c3                   	ret    

c01072e9 <sysc_unregService>:
c01072e9:	55                   	push   %ebp
c01072ea:	89 e5                	mov    %esp,%ebp
c01072ec:	83 ec 18             	sub    $0x18,%esp
c01072ef:	8b 45 08             	mov    0x8(%ebp),%eax
c01072f2:	8b 40 04             	mov    0x4(%eax),%eax
c01072f5:	89 45 f8             	mov    %eax,-0x8(%ebp)
c01072f8:	8b 45 f8             	mov    -0x8(%ebp),%eax
c01072fb:	89 04 24             	mov    %eax,(%esp)
c01072fe:	e8 44 26 00 00       	call   c0109947 <vfsn_isValidNodeNo>
c0107303:	85 c0                	test   %eax,%eax
c0107305:	75 0b                	jne    c0107312 <sysc_unregService+0x29>
c0107307:	8b 45 08             	mov    0x8(%ebp),%eax
c010730a:	c7 00 fb ff ff ff    	movl   $0xfffffffb,(%eax)
c0107310:	eb 38                	jmp    c010734a <sysc_unregService+0x61>
c0107312:	e8 49 db ff ff       	call   c0104e60 <proc_getRunning>
c0107317:	0f b7 40 02          	movzwl 0x2(%eax),%eax
c010731b:	0f b7 d0             	movzwl %ax,%edx
c010731e:	8b 45 f8             	mov    -0x8(%ebp),%eax
c0107321:	89 44 24 04          	mov    %eax,0x4(%esp)
c0107325:	89 14 24             	mov    %edx,(%esp)
c0107328:	e8 f4 17 00 00       	call   c0108b21 <vfs_removeService>
c010732d:	89 45 fc             	mov    %eax,-0x4(%ebp)
c0107330:	83 7d fc 00          	cmpl   $0x0,-0x4(%ebp)
c0107334:	79 0a                	jns    c0107340 <sysc_unregService+0x57>
c0107336:	8b 55 08             	mov    0x8(%ebp),%edx
c0107339:	8b 45 fc             	mov    -0x4(%ebp),%eax
c010733c:	89 02                	mov    %eax,(%edx)
c010733e:	eb 0a                	jmp    c010734a <sysc_unregService+0x61>
c0107340:	8b 45 08             	mov    0x8(%ebp),%eax
c0107343:	c7 40 04 00 00 00 00 	movl   $0x0,0x4(%eax)
c010734a:	c9                   	leave  
c010734b:	c3                   	ret    

c010734c <sysc_getClient>:
c010734c:	55                   	push   %ebp
c010734d:	89 e5                	mov    %esp,%ebp
c010734f:	83 ec 28             	sub    $0x28,%esp
c0107352:	8b 45 08             	mov    0x8(%ebp),%eax
c0107355:	8b 40 04             	mov    0x4(%eax),%eax
c0107358:	89 45 ec             	mov    %eax,-0x14(%ebp)
c010735b:	e8 00 db ff ff       	call   c0104e60 <proc_getRunning>
c0107360:	89 45 f0             	mov    %eax,-0x10(%ebp)
c0107363:	8b 45 ec             	mov    -0x14(%ebp),%eax
c0107366:	89 04 24             	mov    %eax,(%esp)
c0107369:	e8 d9 25 00 00       	call   c0109947 <vfsn_isValidNodeNo>
c010736e:	85 c0                	test   %eax,%eax
c0107370:	75 0e                	jne    c0107380 <sysc_getClient+0x34>
c0107372:	8b 45 08             	mov    0x8(%ebp),%eax
c0107375:	c7 00 fb ff ff ff    	movl   $0xfffffffb,(%eax)
c010737b:	e9 80 00 00 00       	jmp    c0107400 <sysc_getClient+0xb4>
c0107380:	e8 1d df ff ff       	call   c01052a2 <proc_getFreeFd>
c0107385:	89 45 f4             	mov    %eax,-0xc(%ebp)
c0107388:	83 7d f4 00          	cmpl   $0x0,-0xc(%ebp)
c010738c:	79 0a                	jns    c0107398 <sysc_getClient+0x4c>
c010738e:	8b 55 08             	mov    0x8(%ebp),%edx
c0107391:	8b 45 f4             	mov    -0xc(%ebp),%eax
c0107394:	89 02                	mov    %eax,(%edx)
c0107396:	eb 68                	jmp    c0107400 <sysc_getClient+0xb4>
c0107398:	8b 45 f0             	mov    -0x10(%ebp),%eax
c010739b:	0f b7 40 02          	movzwl 0x2(%eax),%eax
c010739f:	0f b7 d0             	movzwl %ax,%edx
c01073a2:	8b 45 ec             	mov    -0x14(%ebp),%eax
c01073a5:	89 44 24 04          	mov    %eax,0x4(%esp)
c01073a9:	89 14 24             	mov    %edx,(%esp)
c01073ac:	e8 13 17 00 00       	call   c0108ac4 <vfs_openClient>
c01073b1:	89 45 fc             	mov    %eax,-0x4(%ebp)
c01073b4:	83 7d fc 00          	cmpl   $0x0,-0x4(%ebp)
c01073b8:	79 0a                	jns    c01073c4 <sysc_getClient+0x78>
c01073ba:	8b 55 08             	mov    0x8(%ebp),%edx
c01073bd:	8b 45 fc             	mov    -0x4(%ebp),%eax
c01073c0:	89 02                	mov    %eax,(%edx)
c01073c2:	eb 3c                	jmp    c0107400 <sysc_getClient+0xb4>
c01073c4:	8b 45 f4             	mov    -0xc(%ebp),%eax
c01073c7:	0f b7 d0             	movzwl %ax,%edx
c01073ca:	8b 45 fc             	mov    -0x4(%ebp),%eax
c01073cd:	89 44 24 04          	mov    %eax,0x4(%esp)
c01073d1:	89 14 24             	mov    %edx,(%esp)
c01073d4:	e8 2b df ff ff       	call   c0105304 <proc_assocFd>
c01073d9:	89 45 f8             	mov    %eax,-0x8(%ebp)
c01073dc:	83 7d f8 00          	cmpl   $0x0,-0x8(%ebp)
c01073e0:	79 15                	jns    c01073f7 <sysc_getClient+0xab>
c01073e2:	8b 45 fc             	mov    -0x4(%ebp),%eax
c01073e5:	89 04 24             	mov    %eax,(%esp)
c01073e8:	e8 29 11 00 00       	call   c0108516 <vfs_closeFile>
c01073ed:	8b 55 08             	mov    0x8(%ebp),%edx
c01073f0:	8b 45 f8             	mov    -0x8(%ebp),%eax
c01073f3:	89 02                	mov    %eax,(%edx)
c01073f5:	eb 09                	jmp    c0107400 <sysc_getClient+0xb4>
c01073f7:	8b 55 f4             	mov    -0xc(%ebp),%edx
c01073fa:	8b 45 08             	mov    0x8(%ebp),%eax
c01073fd:	89 50 04             	mov    %edx,0x4(%eax)
c0107400:	c9                   	leave  
c0107401:	c3                   	ret    

c0107402 <sysc_addIntrptListener>:
c0107402:	55                   	push   %ebp
c0107403:	89 e5                	mov    %esp,%ebp
c0107405:	83 ec 38             	sub    $0x38,%esp
c0107408:	8b 45 08             	mov    0x8(%ebp),%eax
c010740b:	8b 40 04             	mov    0x4(%eax),%eax
c010740e:	89 45 ec             	mov    %eax,-0x14(%ebp)
c0107411:	8b 45 08             	mov    0x8(%ebp),%eax
c0107414:	8b 40 08             	mov    0x8(%eax),%eax
c0107417:	66 89 45 f2          	mov    %ax,-0xe(%ebp)
c010741b:	8b 45 08             	mov    0x8(%ebp),%eax
c010741e:	8b 40 0c             	mov    0xc(%eax),%eax
c0107421:	89 45 f4             	mov    %eax,-0xc(%ebp)
c0107424:	8b 45 08             	mov    0x8(%ebp),%eax
c0107427:	8b 40 10             	mov    0x10(%eax),%eax
c010742a:	89 45 f8             	mov    %eax,-0x8(%ebp)
c010742d:	8b 45 ec             	mov    -0x14(%ebp),%eax
c0107430:	89 04 24             	mov    %eax,(%esp)
c0107433:	e8 0f 25 00 00       	call   c0109947 <vfsn_isValidNodeNo>
c0107438:	85 c0                	test   %eax,%eax
c010743a:	75 0b                	jne    c0107447 <sysc_addIntrptListener+0x45>
c010743c:	8b 45 08             	mov    0x8(%ebp),%eax
c010743f:	c7 00 fb ff ff ff    	movl   $0xfffffffb,(%eax)
c0107445:	eb 7e                	jmp    c01074c5 <sysc_addIntrptListener+0xc3>
c0107447:	8b 45 ec             	mov    -0x14(%ebp),%eax
c010744a:	89 04 24             	mov    %eax,(%esp)
c010744d:	e8 34 25 00 00       	call   c0109986 <vfsn_isOwnServiceNode>
c0107452:	85 c0                	test   %eax,%eax
c0107454:	75 0b                	jne    c0107461 <sysc_addIntrptListener+0x5f>
c0107456:	8b 45 08             	mov    0x8(%ebp),%eax
c0107459:	c7 00 f0 ff ff ff    	movl   $0xfffffff0,(%eax)
c010745f:	eb 64                	jmp    c01074c5 <sysc_addIntrptListener+0xc3>
c0107461:	83 7d f8 00          	cmpl   $0x0,-0x8(%ebp)
c0107465:	74 16                	je     c010747d <sysc_addIntrptListener+0x7b>
c0107467:	8b 45 f4             	mov    -0xc(%ebp),%eax
c010746a:	8b 55 f8             	mov    -0x8(%ebp),%edx
c010746d:	89 54 24 04          	mov    %edx,0x4(%esp)
c0107471:	89 04 24             	mov    %eax,(%esp)
c0107474:	e8 78 c1 ff ff       	call   c01035f1 <paging_isRangeUserReadable>
c0107479:	85 c0                	test   %eax,%eax
c010747b:	75 0b                	jne    c0107488 <sysc_addIntrptListener+0x86>
c010747d:	8b 45 08             	mov    0x8(%ebp),%eax
c0107480:	c7 00 fb ff ff ff    	movl   $0xfffffffb,(%eax)
c0107486:	eb 3d                	jmp    c01074c5 <sysc_addIntrptListener+0xc3>
c0107488:	8b 55 ec             	mov    -0x14(%ebp),%edx
c010748b:	0f b7 4d f2          	movzwl -0xe(%ebp),%ecx
c010748f:	8b 45 f8             	mov    -0x8(%ebp),%eax
c0107492:	89 44 24 0c          	mov    %eax,0xc(%esp)
c0107496:	8b 45 f4             	mov    -0xc(%ebp),%eax
c0107499:	89 44 24 08          	mov    %eax,0x8(%esp)
c010749d:	89 54 24 04          	mov    %edx,0x4(%esp)
c01074a1:	89 0c 24             	mov    %ecx,(%esp)
c01074a4:	e8 b0 9a ff ff       	call   c0100f59 <intrpt_addListener>
c01074a9:	89 45 fc             	mov    %eax,-0x4(%ebp)
c01074ac:	83 7d fc 00          	cmpl   $0x0,-0x4(%ebp)
c01074b0:	79 0a                	jns    c01074bc <sysc_addIntrptListener+0xba>
c01074b2:	8b 55 08             	mov    0x8(%ebp),%edx
c01074b5:	8b 45 fc             	mov    -0x4(%ebp),%eax
c01074b8:	89 02                	mov    %eax,(%edx)
c01074ba:	eb 09                	jmp    c01074c5 <sysc_addIntrptListener+0xc3>
c01074bc:	8b 55 fc             	mov    -0x4(%ebp),%edx
c01074bf:	8b 45 08             	mov    0x8(%ebp),%eax
c01074c2:	89 50 04             	mov    %edx,0x4(%eax)
c01074c5:	c9                   	leave  
c01074c6:	c3                   	ret    

c01074c7 <sysc_remIntrptListener>:
c01074c7:	55                   	push   %ebp
c01074c8:	89 e5                	mov    %esp,%ebp
c01074ca:	83 ec 18             	sub    $0x18,%esp
c01074cd:	8b 45 08             	mov    0x8(%ebp),%eax
c01074d0:	8b 40 04             	mov    0x4(%eax),%eax
c01074d3:	89 45 f4             	mov    %eax,-0xc(%ebp)
c01074d6:	8b 45 08             	mov    0x8(%ebp),%eax
c01074d9:	8b 40 08             	mov    0x8(%eax),%eax
c01074dc:	66 89 45 fa          	mov    %ax,-0x6(%ebp)
c01074e0:	8b 45 f4             	mov    -0xc(%ebp),%eax
c01074e3:	89 04 24             	mov    %eax,(%esp)
c01074e6:	e8 5c 24 00 00       	call   c0109947 <vfsn_isValidNodeNo>
c01074eb:	85 c0                	test   %eax,%eax
c01074ed:	75 0b                	jne    c01074fa <sysc_remIntrptListener+0x33>
c01074ef:	8b 45 08             	mov    0x8(%ebp),%eax
c01074f2:	c7 00 fb ff ff ff    	movl   $0xfffffffb,(%eax)
c01074f8:	eb 49                	jmp    c0107543 <sysc_remIntrptListener+0x7c>
c01074fa:	8b 45 f4             	mov    -0xc(%ebp),%eax
c01074fd:	89 04 24             	mov    %eax,(%esp)
c0107500:	e8 81 24 00 00       	call   c0109986 <vfsn_isOwnServiceNode>
c0107505:	85 c0                	test   %eax,%eax
c0107507:	75 0b                	jne    c0107514 <sysc_remIntrptListener+0x4d>
c0107509:	8b 45 08             	mov    0x8(%ebp),%eax
c010750c:	c7 00 f0 ff ff ff    	movl   $0xfffffff0,(%eax)
c0107512:	eb 2f                	jmp    c0107543 <sysc_remIntrptListener+0x7c>
c0107514:	8b 45 f4             	mov    -0xc(%ebp),%eax
c0107517:	0f b7 55 fa          	movzwl -0x6(%ebp),%edx
c010751b:	89 44 24 04          	mov    %eax,0x4(%esp)
c010751f:	89 14 24             	mov    %edx,(%esp)
c0107522:	e8 73 9b ff ff       	call   c010109a <intrpt_removeListener>
c0107527:	89 45 fc             	mov    %eax,-0x4(%ebp)
c010752a:	83 7d fc 00          	cmpl   $0x0,-0x4(%ebp)
c010752e:	79 0a                	jns    c010753a <sysc_remIntrptListener+0x73>
c0107530:	8b 55 08             	mov    0x8(%ebp),%edx
c0107533:	8b 45 fc             	mov    -0x4(%ebp),%eax
c0107536:	89 02                	mov    %eax,(%edx)
c0107538:	eb 09                	jmp    c0107543 <sysc_remIntrptListener+0x7c>
c010753a:	8b 55 fc             	mov    -0x4(%ebp),%edx
c010753d:	8b 45 08             	mov    0x8(%ebp),%eax
c0107540:	89 50 04             	mov    %edx,0x4(%eax)
c0107543:	c9                   	leave  
c0107544:	c3                   	ret    

c0107545 <sysc_changeSize>:
c0107545:	55                   	push   %ebp
c0107546:	89 e5                	mov    %esp,%ebp
c0107548:	83 ec 28             	sub    $0x28,%esp
c010754b:	8b 45 08             	mov    0x8(%ebp),%eax
c010754e:	8b 40 04             	mov    0x4(%eax),%eax
c0107551:	89 45 f4             	mov    %eax,-0xc(%ebp)
c0107554:	e8 07 d9 ff ff       	call   c0104e60 <proc_getRunning>
c0107559:	89 45 f8             	mov    %eax,-0x8(%ebp)
c010755c:	8b 45 f8             	mov    -0x8(%ebp),%eax
c010755f:	8b 50 0c             	mov    0xc(%eax),%edx
c0107562:	8b 45 f8             	mov    -0x8(%ebp),%eax
c0107565:	8b 40 10             	mov    0x10(%eax),%eax
c0107568:	8d 04 02             	lea    (%edx,%eax,1),%eax
c010756b:	89 45 fc             	mov    %eax,-0x4(%ebp)
c010756e:	83 7d f4 00          	cmpl   $0x0,-0xc(%ebp)
c0107572:	7e 36                	jle    c01075aa <sysc_changeSize+0x65>
c0107574:	8b 45 f8             	mov    -0x8(%ebp),%eax
c0107577:	8b 48 14             	mov    0x14(%eax),%ecx
c010757a:	8b 45 f8             	mov    -0x8(%ebp),%eax
c010757d:	8b 50 10             	mov    0x10(%eax),%edx
c0107580:	8b 45 f4             	mov    -0xc(%ebp),%eax
c0107583:	01 c2                	add    %eax,%edx
c0107585:	8b 45 f8             	mov    -0x8(%ebp),%eax
c0107588:	8b 40 0c             	mov    0xc(%eax),%eax
c010758b:	89 4c 24 08          	mov    %ecx,0x8(%esp)
c010758f:	89 54 24 04          	mov    %edx,0x4(%esp)
c0107593:	89 04 24             	mov    %eax,(%esp)
c0107596:	e8 02 e5 ff ff       	call   c0105a9d <proc_segSizesValid>
c010759b:	85 c0                	test   %eax,%eax
c010759d:	75 38                	jne    c01075d7 <sysc_changeSize+0x92>
c010759f:	8b 45 08             	mov    0x8(%ebp),%eax
c01075a2:	c7 00 f5 ff ff ff    	movl   $0xfffffff5,(%eax)
c01075a8:	eb 58                	jmp    c0107602 <sysc_changeSize+0xbd>
c01075aa:	83 7d f4 00          	cmpl   $0x0,-0xc(%ebp)
c01075ae:	75 0b                	jne    c01075bb <sysc_changeSize+0x76>
c01075b0:	8b 55 08             	mov    0x8(%ebp),%edx
c01075b3:	8b 45 fc             	mov    -0x4(%ebp),%eax
c01075b6:	89 42 04             	mov    %eax,0x4(%edx)
c01075b9:	eb 47                	jmp    c0107602 <sysc_changeSize+0xbd>
c01075bb:	8b 45 f4             	mov    -0xc(%ebp),%eax
c01075be:	f7 d8                	neg    %eax
c01075c0:	89 c2                	mov    %eax,%edx
c01075c2:	8b 45 f8             	mov    -0x8(%ebp),%eax
c01075c5:	8b 40 10             	mov    0x10(%eax),%eax
c01075c8:	39 c2                	cmp    %eax,%edx
c01075ca:	76 0b                	jbe    c01075d7 <sysc_changeSize+0x92>
c01075cc:	8b 45 08             	mov    0x8(%ebp),%eax
c01075cf:	c7 00 fb ff ff ff    	movl   $0xfffffffb,(%eax)
c01075d5:	eb 2b                	jmp    c0107602 <sysc_changeSize+0xbd>
c01075d7:	c7 44 24 04 00 00 00 	movl   $0x0,0x4(%esp)
c01075de:	00 
c01075df:	8b 45 f4             	mov    -0xc(%ebp),%eax
c01075e2:	89 04 24             	mov    %eax,(%esp)
c01075e5:	e8 d6 e4 ff ff       	call   c0105ac0 <proc_changeSize>
c01075ea:	85 c0                	test   %eax,%eax
c01075ec:	75 0b                	jne    c01075f9 <sysc_changeSize+0xb4>
c01075ee:	8b 45 08             	mov    0x8(%ebp),%eax
c01075f1:	c7 00 f5 ff ff ff    	movl   $0xfffffff5,(%eax)
c01075f7:	eb 09                	jmp    c0107602 <sysc_changeSize+0xbd>
c01075f9:	8b 55 08             	mov    0x8(%ebp),%edx
c01075fc:	8b 45 fc             	mov    -0x4(%ebp),%eax
c01075ff:	89 42 04             	mov    %eax,0x4(%edx)
c0107602:	c9                   	leave  
c0107603:	c3                   	ret    

c0107604 <sysc_mapPhysical>:
c0107604:	55                   	push   %ebp
c0107605:	89 e5                	mov    %esp,%ebp
c0107607:	53                   	push   %ebx
c0107608:	83 ec 34             	sub    $0x34,%esp
c010760b:	8b 45 08             	mov    0x8(%ebp),%eax
c010760e:	8b 40 04             	mov    0x4(%eax),%eax
c0107611:	89 45 e8             	mov    %eax,-0x18(%ebp)
c0107614:	8b 45 08             	mov    0x8(%ebp),%eax
c0107617:	8b 40 08             	mov    0x8(%eax),%eax
c010761a:	05 ff 0f 00 00       	add    $0xfff,%eax
c010761f:	c1 e8 0c             	shr    $0xc,%eax
c0107622:	89 45 ec             	mov    %eax,-0x14(%ebp)
c0107625:	e8 36 d8 ff ff       	call   c0104e60 <proc_getRunning>
c010762a:	89 45 f0             	mov    %eax,-0x10(%ebp)
c010762d:	8b 45 ec             	mov    -0x14(%ebp),%eax
c0107630:	c1 e0 0c             	shl    $0xc,%eax
c0107633:	03 45 e8             	add    -0x18(%ebp),%eax
c0107636:	3d 00 00 10 00       	cmp    $0x100000,%eax
c010763b:	76 0e                	jbe    c010764b <sysc_mapPhysical+0x47>
c010763d:	8b 45 08             	mov    0x8(%ebp),%eax
c0107640:	c7 00 fb ff ff ff    	movl   $0xfffffffb,(%eax)
c0107646:	e9 31 01 00 00       	jmp    c010777c <sysc_mapPhysical+0x178>
c010764b:	8b 45 f0             	mov    -0x10(%ebp),%eax
c010764e:	8b 50 0c             	mov    0xc(%eax),%edx
c0107651:	8b 45 f0             	mov    -0x10(%ebp),%eax
c0107654:	8b 40 10             	mov    0x10(%eax),%eax
c0107657:	8d 04 02             	lea    (%edx,%eax,1),%eax
c010765a:	c1 e0 0c             	shl    $0xc,%eax
c010765d:	89 45 e0             	mov    %eax,-0x20(%ebp)
c0107660:	8b 45 f0             	mov    -0x10(%ebp),%eax
c0107663:	8b 50 0c             	mov    0xc(%eax),%edx
c0107666:	8b 45 f0             	mov    -0x10(%ebp),%eax
c0107669:	8b 40 10             	mov    0x10(%eax),%eax
c010766c:	8d 04 02             	lea    (%edx,%eax,1),%eax
c010766f:	89 45 e4             	mov    %eax,-0x1c(%ebp)
c0107672:	c7 04 24 02 00 00 00 	movl   $0x2,(%esp)
c0107679:	e8 2a b3 ff ff       	call   c01029a8 <mm_getFreeFrmCount>
c010767e:	89 c3                	mov    %eax,%ebx
c0107680:	8b 45 ec             	mov    -0x14(%ebp),%eax
c0107683:	89 44 24 04          	mov    %eax,0x4(%esp)
c0107687:	8b 45 e0             	mov    -0x20(%ebp),%eax
c010768a:	89 04 24             	mov    %eax,(%esp)
c010768d:	e8 6b c1 ff ff       	call   c01037fd <paging_countFramesForMap>
c0107692:	39 c3                	cmp    %eax,%ebx
c0107694:	73 0e                	jae    c01076a4 <sysc_mapPhysical+0xa0>
c0107696:	8b 45 08             	mov    0x8(%ebp),%eax
c0107699:	c7 00 f5 ff ff ff    	movl   $0xfffffff5,(%eax)
c010769f:	e9 d8 00 00 00       	jmp    c010777c <sysc_mapPhysical+0x178>
c01076a4:	8b 45 f0             	mov    -0x10(%ebp),%eax
c01076a7:	8b 48 14             	mov    0x14(%eax),%ecx
c01076aa:	8b 45 f0             	mov    -0x10(%ebp),%eax
c01076ad:	8b 40 10             	mov    0x10(%eax),%eax
c01076b0:	89 c2                	mov    %eax,%edx
c01076b2:	03 55 ec             	add    -0x14(%ebp),%edx
c01076b5:	8b 45 f0             	mov    -0x10(%ebp),%eax
c01076b8:	8b 40 0c             	mov    0xc(%eax),%eax
c01076bb:	89 4c 24 08          	mov    %ecx,0x8(%esp)
c01076bf:	89 54 24 04          	mov    %edx,0x4(%esp)
c01076c3:	89 04 24             	mov    %eax,(%esp)
c01076c6:	e8 d2 e3 ff ff       	call   c0105a9d <proc_segSizesValid>
c01076cb:	85 c0                	test   %eax,%eax
c01076cd:	75 0e                	jne    c01076dd <sysc_mapPhysical+0xd9>
c01076cf:	8b 45 08             	mov    0x8(%ebp),%eax
c01076d2:	c7 00 f5 ff ff ff    	movl   $0xfffffff5,(%eax)
c01076d8:	e9 9f 00 00 00       	jmp    c010777c <sysc_mapPhysical+0x178>
c01076dd:	8b 45 ec             	mov    -0x14(%ebp),%eax
c01076e0:	c1 e0 02             	shl    $0x2,%eax
c01076e3:	89 04 24             	mov    %eax,(%esp)
c01076e6:	e8 89 a5 ff ff       	call   c0101c74 <kheap_alloc>
c01076eb:	89 45 f8             	mov    %eax,-0x8(%ebp)
c01076ee:	83 7d f8 00          	cmpl   $0x0,-0x8(%ebp)
c01076f2:	75 0b                	jne    c01076ff <sysc_mapPhysical+0xfb>
c01076f4:	8b 45 08             	mov    0x8(%ebp),%eax
c01076f7:	c7 00 f5 ff ff ff    	movl   $0xfffffff5,(%eax)
c01076fd:	eb 7d                	jmp    c010777c <sysc_mapPhysical+0x178>
c01076ff:	c7 45 f4 00 00 00 00 	movl   $0x0,-0xc(%ebp)
c0107706:	eb 1e                	jmp    c0107726 <sysc_mapPhysical+0x122>
c0107708:	8b 45 f4             	mov    -0xc(%ebp),%eax
c010770b:	c1 e0 02             	shl    $0x2,%eax
c010770e:	89 c2                	mov    %eax,%edx
c0107710:	03 55 f8             	add    -0x8(%ebp),%edx
c0107713:	8b 45 e8             	mov    -0x18(%ebp),%eax
c0107716:	c1 e8 0c             	shr    $0xc,%eax
c0107719:	89 02                	mov    %eax,(%edx)
c010771b:	81 45 e8 00 10 00 00 	addl   $0x1000,-0x18(%ebp)
c0107722:	83 45 f4 01          	addl   $0x1,-0xc(%ebp)
c0107726:	8b 45 f4             	mov    -0xc(%ebp),%eax
c0107729:	3b 45 ec             	cmp    -0x14(%ebp),%eax
c010772c:	72 da                	jb     c0107708 <sysc_mapPhysical+0x104>
c010772e:	c7 44 24 10 00 00 00 	movl   $0x0,0x10(%esp)
c0107735:	00 
c0107736:	c7 44 24 0c 01 00 00 	movl   $0x1,0xc(%esp)
c010773d:	00 
c010773e:	8b 45 ec             	mov    -0x14(%ebp),%eax
c0107741:	89 44 24 08          	mov    %eax,0x8(%esp)
c0107745:	8b 45 f8             	mov    -0x8(%ebp),%eax
c0107748:	89 44 24 04          	mov    %eax,0x4(%esp)
c010774c:	8b 45 e0             	mov    -0x20(%ebp),%eax
c010774f:	89 04 24             	mov    %eax,(%esp)
c0107752:	e8 fa c0 ff ff       	call   c0103851 <paging_map>
c0107757:	8b 45 f8             	mov    -0x8(%ebp),%eax
c010775a:	89 04 24             	mov    %eax,(%esp)
c010775d:	e8 69 a6 ff ff       	call   c0101dcb <kheap_free>
c0107762:	8b 45 f0             	mov    -0x10(%ebp),%eax
c0107765:	8b 40 10             	mov    0x10(%eax),%eax
c0107768:	89 c2                	mov    %eax,%edx
c010776a:	03 55 ec             	add    -0x14(%ebp),%edx
c010776d:	8b 45 f0             	mov    -0x10(%ebp),%eax
c0107770:	89 50 10             	mov    %edx,0x10(%eax)
c0107773:	8b 55 08             	mov    0x8(%ebp),%edx
c0107776:	8b 45 e0             	mov    -0x20(%ebp),%eax
c0107779:	89 42 04             	mov    %eax,0x4(%edx)
c010777c:	83 c4 34             	add    $0x34,%esp
c010777f:	5b                   	pop    %ebx
c0107780:	5d                   	pop    %ebp
c0107781:	c3                   	ret    

c0107782 <sysc_yield>:
c0107782:	55                   	push   %ebp
c0107783:	89 e5                	mov    %esp,%ebp
c0107785:	83 ec 08             	sub    $0x8,%esp
c0107788:	e8 49 d7 ff ff       	call   c0104ed6 <proc_switch>
c010778d:	c9                   	leave  
c010778e:	c3                   	ret    

c010778f <sysc_sleep>:
c010778f:	55                   	push   %ebp
c0107790:	89 e5                	mov    %esp,%ebp
c0107792:	83 ec 18             	sub    $0x18,%esp
c0107795:	e8 c6 d6 ff ff       	call   c0104e60 <proc_getRunning>
c010779a:	89 45 f8             	mov    %eax,-0x8(%ebp)
c010779d:	8b 45 f8             	mov    -0x8(%ebp),%eax
c01077a0:	0f b7 40 02          	movzwl 0x2(%eax),%eax
c01077a4:	0f b7 c0             	movzwl %ax,%eax
c01077a7:	89 04 24             	mov    %eax,(%esp)
c01077aa:	e8 b2 10 00 00       	call   c0108861 <vfs_msgAvailableFor>
c01077af:	89 45 fc             	mov    %eax,-0x4(%ebp)
c01077b2:	83 7d fc 00          	cmpl   $0x0,-0x4(%ebp)
c01077b6:	75 10                	jne    c01077c8 <sysc_sleep+0x39>
c01077b8:	8b 45 f8             	mov    -0x8(%ebp),%eax
c01077bb:	89 04 24             	mov    %eax,(%esp)
c01077be:	e8 5f ea ff ff       	call   c0106222 <sched_setBlocked>
c01077c3:	e8 0e d7 ff ff       	call   c0104ed6 <proc_switch>
c01077c8:	c9                   	leave  
c01077c9:	c3                   	ret    

c01077ca <sysc_requestIOPorts>:
c01077ca:	55                   	push   %ebp
c01077cb:	89 e5                	mov    %esp,%ebp
c01077cd:	83 ec 18             	sub    $0x18,%esp
c01077d0:	8b 45 08             	mov    0x8(%ebp),%eax
c01077d3:	8b 40 04             	mov    0x4(%eax),%eax
c01077d6:	66 89 45 f8          	mov    %ax,-0x8(%ebp)
c01077da:	8b 45 08             	mov    0x8(%ebp),%eax
c01077dd:	8b 40 08             	mov    0x8(%eax),%eax
c01077e0:	66 89 45 fa          	mov    %ax,-0x6(%ebp)
c01077e4:	66 83 7d fa 00       	cmpw   $0x0,-0x6(%ebp)
c01077e9:	74 11                	je     c01077fc <sysc_requestIOPorts+0x32>
c01077eb:	0f b7 45 f8          	movzwl -0x8(%ebp),%eax
c01077ef:	0f b7 55 fa          	movzwl -0x6(%ebp),%edx
c01077f3:	01 d0                	add    %edx,%eax
c01077f5:	3d ff ff 00 00       	cmp    $0xffff,%eax
c01077fa:	76 0b                	jbe    c0107807 <sysc_requestIOPorts+0x3d>
c01077fc:	8b 45 08             	mov    0x8(%ebp),%eax
c01077ff:	c7 00 fb ff ff ff    	movl   $0xfffffffb,(%eax)
c0107805:	eb 31                	jmp    c0107838 <sysc_requestIOPorts+0x6e>
c0107807:	0f b7 45 fa          	movzwl -0x6(%ebp),%eax
c010780b:	0f b7 55 f8          	movzwl -0x8(%ebp),%edx
c010780f:	89 44 24 04          	mov    %eax,0x4(%esp)
c0107813:	89 14 24             	mov    %edx,(%esp)
c0107816:	e8 fd d7 ff ff       	call   c0105018 <proc_requestIOPorts>
c010781b:	89 45 fc             	mov    %eax,-0x4(%ebp)
c010781e:	83 7d fc 00          	cmpl   $0x0,-0x4(%ebp)
c0107822:	79 0a                	jns    c010782e <sysc_requestIOPorts+0x64>
c0107824:	8b 55 08             	mov    0x8(%ebp),%edx
c0107827:	8b 45 fc             	mov    -0x4(%ebp),%eax
c010782a:	89 02                	mov    %eax,(%edx)
c010782c:	eb 0a                	jmp    c0107838 <sysc_requestIOPorts+0x6e>
c010782e:	8b 45 08             	mov    0x8(%ebp),%eax
c0107831:	c7 40 04 00 00 00 00 	movl   $0x0,0x4(%eax)
c0107838:	c9                   	leave  
c0107839:	c3                   	ret    

c010783a <sysc_releaseIOPorts>:
c010783a:	55                   	push   %ebp
c010783b:	89 e5                	mov    %esp,%ebp
c010783d:	83 ec 18             	sub    $0x18,%esp
c0107840:	8b 45 08             	mov    0x8(%ebp),%eax
c0107843:	8b 40 04             	mov    0x4(%eax),%eax
c0107846:	66 89 45 f8          	mov    %ax,-0x8(%ebp)
c010784a:	8b 45 08             	mov    0x8(%ebp),%eax
c010784d:	8b 40 08             	mov    0x8(%eax),%eax
c0107850:	66 89 45 fa          	mov    %ax,-0x6(%ebp)
c0107854:	66 83 7d fa 00       	cmpw   $0x0,-0x6(%ebp)
c0107859:	74 11                	je     c010786c <sysc_releaseIOPorts+0x32>
c010785b:	0f b7 45 f8          	movzwl -0x8(%ebp),%eax
c010785f:	0f b7 55 fa          	movzwl -0x6(%ebp),%edx
c0107863:	01 d0                	add    %edx,%eax
c0107865:	3d ff ff 00 00       	cmp    $0xffff,%eax
c010786a:	76 0b                	jbe    c0107877 <sysc_releaseIOPorts+0x3d>
c010786c:	8b 45 08             	mov    0x8(%ebp),%eax
c010786f:	c7 00 fb ff ff ff    	movl   $0xfffffffb,(%eax)
c0107875:	eb 31                	jmp    c01078a8 <sysc_releaseIOPorts+0x6e>
c0107877:	0f b7 45 fa          	movzwl -0x6(%ebp),%eax
c010787b:	0f b7 55 f8          	movzwl -0x8(%ebp),%edx
c010787f:	89 44 24 04          	mov    %eax,0x4(%esp)
c0107883:	89 14 24             	mov    %edx,(%esp)
c0107886:	e8 b0 d8 ff ff       	call   c010513b <proc_releaseIOPorts>
c010788b:	89 45 fc             	mov    %eax,-0x4(%ebp)
c010788e:	83 7d fc 00          	cmpl   $0x0,-0x4(%ebp)
c0107892:	79 0a                	jns    c010789e <sysc_releaseIOPorts+0x64>
c0107894:	8b 55 08             	mov    0x8(%ebp),%edx
c0107897:	8b 45 fc             	mov    -0x4(%ebp),%eax
c010789a:	89 02                	mov    %eax,(%edx)
c010789c:	eb 0a                	jmp    c01078a8 <sysc_releaseIOPorts+0x6e>
c010789e:	8b 45 08             	mov    0x8(%ebp),%eax
c01078a1:	c7 40 04 00 00 00 00 	movl   $0x0,0x4(%eax)
c01078a8:	c9                   	leave  
c01078a9:	c3                   	ret    

c01078aa <sysc_setSigHandler>:
c01078aa:	55                   	push   %ebp
c01078ab:	89 e5                	mov    %esp,%ebp
c01078ad:	83 ec 28             	sub    $0x28,%esp
c01078b0:	8b 45 08             	mov    0x8(%ebp),%eax
c01078b3:	8b 40 04             	mov    0x4(%eax),%eax
c01078b6:	88 45 f3             	mov    %al,-0xd(%ebp)
c01078b9:	8b 45 08             	mov    0x8(%ebp),%eax
c01078bc:	8b 40 08             	mov    0x8(%eax),%eax
c01078bf:	89 45 f4             	mov    %eax,-0xc(%ebp)
c01078c2:	e8 99 d5 ff ff       	call   c0104e60 <proc_getRunning>
c01078c7:	89 45 f8             	mov    %eax,-0x8(%ebp)
c01078ca:	0f b6 45 f3          	movzbl -0xd(%ebp),%eax
c01078ce:	89 04 24             	mov    %eax,(%esp)
c01078d1:	e8 9e ec ff ff       	call   c0106574 <sig_canHandle>
c01078d6:	85 c0                	test   %eax,%eax
c01078d8:	75 0b                	jne    c01078e5 <sysc_setSigHandler+0x3b>
c01078da:	8b 45 08             	mov    0x8(%ebp),%eax
c01078dd:	c7 00 e8 ff ff ff    	movl   $0xffffffe8,(%eax)
c01078e3:	eb 42                	jmp    c0107927 <sysc_setSigHandler+0x7d>
c01078e5:	0f b6 4d f3          	movzbl -0xd(%ebp),%ecx
c01078e9:	8b 45 f8             	mov    -0x8(%ebp),%eax
c01078ec:	0f b7 40 02          	movzwl 0x2(%eax),%eax
c01078f0:	0f b7 d0             	movzwl %ax,%edx
c01078f3:	8b 45 f4             	mov    -0xc(%ebp),%eax
c01078f6:	89 44 24 08          	mov    %eax,0x8(%esp)
c01078fa:	89 4c 24 04          	mov    %ecx,0x4(%esp)
c01078fe:	89 14 24             	mov    %edx,(%esp)
c0107901:	e8 9b ec ff ff       	call   c01065a1 <sig_setHandler>
c0107906:	89 45 fc             	mov    %eax,-0x4(%ebp)
c0107909:	83 7d fc 00          	cmpl   $0x0,-0x4(%ebp)
c010790d:	79 0a                	jns    c0107919 <sysc_setSigHandler+0x6f>
c010790f:	8b 55 08             	mov    0x8(%ebp),%edx
c0107912:	8b 45 fc             	mov    -0x4(%ebp),%eax
c0107915:	89 02                	mov    %eax,(%edx)
c0107917:	eb 0e                	jmp    c0107927 <sysc_setSigHandler+0x7d>
c0107919:	e8 77 f3 ff ff       	call   c0106c95 <sig_dbg_print>
c010791e:	8b 55 fc             	mov    -0x4(%ebp),%edx
c0107921:	8b 45 08             	mov    0x8(%ebp),%eax
c0107924:	89 50 04             	mov    %edx,0x4(%eax)
c0107927:	c9                   	leave  
c0107928:	c3                   	ret    

c0107929 <sysc_unsetSigHandler>:
c0107929:	55                   	push   %ebp
c010792a:	89 e5                	mov    %esp,%ebp
c010792c:	83 ec 18             	sub    $0x18,%esp
c010792f:	8b 45 08             	mov    0x8(%ebp),%eax
c0107932:	8b 40 04             	mov    0x4(%eax),%eax
c0107935:	88 45 fb             	mov    %al,-0x5(%ebp)
c0107938:	e8 23 d5 ff ff       	call   c0104e60 <proc_getRunning>
c010793d:	89 45 fc             	mov    %eax,-0x4(%ebp)
c0107940:	0f b6 45 fb          	movzbl -0x5(%ebp),%eax
c0107944:	89 04 24             	mov    %eax,(%esp)
c0107947:	e8 28 ec ff ff       	call   c0106574 <sig_canHandle>
c010794c:	85 c0                	test   %eax,%eax
c010794e:	75 0b                	jne    c010795b <sysc_unsetSigHandler+0x32>
c0107950:	8b 45 08             	mov    0x8(%ebp),%eax
c0107953:	c7 00 e8 ff ff ff    	movl   $0xffffffe8,(%eax)
c0107959:	eb 29                	jmp    c0107984 <sysc_unsetSigHandler+0x5b>
c010795b:	0f b6 55 fb          	movzbl -0x5(%ebp),%edx
c010795f:	8b 45 fc             	mov    -0x4(%ebp),%eax
c0107962:	0f b7 40 02          	movzwl 0x2(%eax),%eax
c0107966:	0f b7 c0             	movzwl %ax,%eax
c0107969:	89 54 24 04          	mov    %edx,0x4(%esp)
c010796d:	89 04 24             	mov    %eax,(%esp)
c0107970:	e8 55 ed ff ff       	call   c01066ca <sig_unsetHandler>
c0107975:	e8 1b f3 ff ff       	call   c0106c95 <sig_dbg_print>
c010797a:	8b 45 08             	mov    0x8(%ebp),%eax
c010797d:	c7 40 04 00 00 00 00 	movl   $0x0,0x4(%eax)
c0107984:	c9                   	leave  
c0107985:	c3                   	ret    

c0107986 <sysc_ackSignal>:
c0107986:	55                   	push   %ebp
c0107987:	89 e5                	mov    %esp,%ebp
c0107989:	83 ec 18             	sub    $0x18,%esp
c010798c:	8b 45 08             	mov    0x8(%ebp),%eax
c010798f:	8b 40 04             	mov    0x4(%eax),%eax
c0107992:	88 45 fb             	mov    %al,-0x5(%ebp)
c0107995:	e8 c6 d4 ff ff       	call   c0104e60 <proc_getRunning>
c010799a:	89 45 fc             	mov    %eax,-0x4(%ebp)
c010799d:	0f b6 45 fb          	movzbl -0x5(%ebp),%eax
c01079a1:	89 04 24             	mov    %eax,(%esp)
c01079a4:	e8 cb eb ff ff       	call   c0106574 <sig_canHandle>
c01079a9:	85 c0                	test   %eax,%eax
c01079ab:	75 0b                	jne    c01079b8 <sysc_ackSignal+0x32>
c01079ad:	8b 45 08             	mov    0x8(%ebp),%eax
c01079b0:	c7 00 e8 ff ff ff    	movl   $0xffffffe8,(%eax)
c01079b6:	eb 24                	jmp    c01079dc <sysc_ackSignal+0x56>
c01079b8:	0f b6 55 fb          	movzbl -0x5(%ebp),%edx
c01079bc:	8b 45 fc             	mov    -0x4(%ebp),%eax
c01079bf:	0f b7 40 02          	movzwl 0x2(%eax),%eax
c01079c3:	0f b7 c0             	movzwl %ax,%eax
c01079c6:	89 54 24 04          	mov    %edx,0x4(%esp)
c01079ca:	89 04 24             	mov    %eax,(%esp)
c01079cd:	e8 51 f1 ff ff       	call   c0106b23 <sig_ackHandling>
c01079d2:	8b 45 08             	mov    0x8(%ebp),%eax
c01079d5:	c7 40 04 00 00 00 00 	movl   $0x0,0x4(%eax)
c01079dc:	c9                   	leave  
c01079dd:	c3                   	ret    
	...

c01079e0 <panic>:
c01079e0:	55                   	push   %ebp
c01079e1:	89 e5                	mov    %esp,%ebp
c01079e3:	83 ec 18             	sub    $0x18,%esp
c01079e6:	c7 04 24 3b d7 16 c0 	movl   $0xc016d73b,(%esp)
c01079ed:	e8 53 3a 00 00       	call   c010b445 <vid_printf>
c01079f2:	e8 41 36 00 00       	call   c010b038 <vid_getLine>
c01079f7:	0f b6 c0             	movzbl %al,%eax
c01079fa:	c7 44 24 04 04 00 00 	movl   $0x4,0x4(%esp)
c0107a01:	00 
c0107a02:	89 04 24             	mov    %eax,(%esp)
c0107a05:	e8 d0 35 00 00       	call   c010afda <vid_setLineBG>
c0107a0a:	c7 44 24 04 07 00 00 	movl   $0x7,0x4(%esp)
c0107a11:	00 
c0107a12:	c7 04 24 04 00 00 00 	movl   $0x4,(%esp)
c0107a19:	e8 fe 34 00 00       	call   c010af1c <vid_useColor>
c0107a1e:	c7 04 24 3d d7 16 c0 	movl   $0xc016d73d,(%esp)
c0107a25:	e8 1b 3a 00 00       	call   c010b445 <vid_printf>
c0107a2a:	8d 45 0c             	lea    0xc(%ebp),%eax
c0107a2d:	89 45 fc             	mov    %eax,-0x4(%ebp)
c0107a30:	8b 45 fc             	mov    -0x4(%ebp),%eax
c0107a33:	89 44 24 04          	mov    %eax,0x4(%esp)
c0107a37:	8b 45 08             	mov    0x8(%ebp),%eax
c0107a3a:	89 04 24             	mov    %eax,(%esp)
c0107a3d:	e8 23 3a 00 00       	call   c010b465 <vid_vprintf>
c0107a42:	c7 04 24 3b d7 16 c0 	movl   $0xc016d73b,(%esp)
c0107a49:	e8 f7 39 00 00       	call   c010b445 <vid_printf>
c0107a4e:	e8 fb 34 00 00       	call   c010af4e <vid_restoreColor>
c0107a53:	e8 d1 00 00 00       	call   c0107b29 <printStackTrace>
c0107a58:	c7 04 24 00 00 00 00 	movl   $0x0,(%esp)
c0107a5f:	e8 1b 87 ff ff       	call   c010017f <intrpt_setEnabled>
c0107a64:	e8 4e 86 ff ff       	call   c01000b7 <halt>
c0107a69:	c9                   	leave  
c0107a6a:	c3                   	ret    

c0107a6b <getStackTrace>:
c0107a6b:	55                   	push   %ebp
c0107a6c:	89 e5                	mov    %esp,%ebp
c0107a6e:	83 ec 28             	sub    $0x28,%esp
c0107a71:	c7 45 f4 80 d4 1f c0 	movl   $0xc01fd480,-0xc(%ebp)
c0107a78:	e8 4d 86 ff ff       	call   c01000ca <getStackFrameStart>
c0107a7d:	89 45 fc             	mov    %eax,-0x4(%ebp)
c0107a80:	8b 45 fc             	mov    -0x4(%ebp),%eax
c0107a83:	3d ff ef bf ff       	cmp    $0xffbfefff,%eax
c0107a88:	76 1a                	jbe    c0107aa4 <getStackTrace+0x39>
c0107a8a:	8b 45 fc             	mov    -0x4(%ebp),%eax
c0107a8d:	3d ff ff bf ff       	cmp    $0xffbfffff,%eax
c0107a92:	77 10                	ja     c0107aa4 <getStackTrace+0x39>
c0107a94:	c7 45 e8 00 f0 bf ff 	movl   $0xffbff000,-0x18(%ebp)
c0107a9b:	c7 45 ec 00 00 c0 ff 	movl   $0xffc00000,-0x14(%ebp)
c0107aa2:	eb 0f                	jmp    c0107ab3 <getStackTrace+0x48>
c0107aa4:	b8 c0 2c 1d c0       	mov    $0xc01d2cc0,%eax
c0107aa9:	89 45 e8             	mov    %eax,-0x18(%ebp)
c0107aac:	c7 45 ec c0 3c 1d c0 	movl   $0xc01d3cc0,-0x14(%ebp)
c0107ab3:	c7 45 f0 00 00 00 00 	movl   $0x0,-0x10(%ebp)
c0107aba:	eb 57                	jmp    c0107b13 <getStackTrace+0xa8>
c0107abc:	8b 45 fc             	mov    -0x4(%ebp),%eax
c0107abf:	3b 45 e8             	cmp    -0x18(%ebp),%eax
c0107ac2:	72 55                	jb     c0107b19 <getStackTrace+0xae>
c0107ac4:	8b 45 fc             	mov    -0x4(%ebp),%eax
c0107ac7:	3b 45 ec             	cmp    -0x14(%ebp),%eax
c0107aca:	73 4d                	jae    c0107b19 <getStackTrace+0xae>
c0107acc:	8b 45 fc             	mov    -0x4(%ebp),%eax
c0107acf:	83 c0 04             	add    $0x4,%eax
c0107ad2:	8b 00                	mov    (%eax),%eax
c0107ad4:	8d 50 fb             	lea    -0x5(%eax),%edx
c0107ad7:	8b 45 f4             	mov    -0xc(%ebp),%eax
c0107ada:	89 10                	mov    %edx,(%eax)
c0107adc:	8b 45 f4             	mov    -0xc(%ebp),%eax
c0107adf:	8b 00                	mov    (%eax),%eax
c0107ae1:	89 04 24             	mov    %eax,(%esp)
c0107ae4:	e8 8d ad ff ff       	call   c0102876 <ksym_getSymbolAt>
c0107ae9:	89 45 f8             	mov    %eax,-0x8(%ebp)
c0107aec:	8b 45 f8             	mov    -0x8(%ebp),%eax
c0107aef:	8b 10                	mov    (%eax),%edx
c0107af1:	8b 45 f4             	mov    -0xc(%ebp),%eax
c0107af4:	89 50 04             	mov    %edx,0x4(%eax)
c0107af7:	8b 45 f8             	mov    -0x8(%ebp),%eax
c0107afa:	8b 50 04             	mov    0x4(%eax),%edx
c0107afd:	8b 45 f4             	mov    -0xc(%ebp),%eax
c0107b00:	89 50 08             	mov    %edx,0x8(%eax)
c0107b03:	8b 45 fc             	mov    -0x4(%ebp),%eax
c0107b06:	8b 00                	mov    (%eax),%eax
c0107b08:	89 45 fc             	mov    %eax,-0x4(%ebp)
c0107b0b:	83 45 f4 0c          	addl   $0xc,-0xc(%ebp)
c0107b0f:	83 45 f0 01          	addl   $0x1,-0x10(%ebp)
c0107b13:	83 7d f0 63          	cmpl   $0x63,-0x10(%ebp)
c0107b17:	76 a3                	jbe    c0107abc <getStackTrace+0x51>
c0107b19:	8b 45 f4             	mov    -0xc(%ebp),%eax
c0107b1c:	c7 00 00 00 00 00    	movl   $0x0,(%eax)
c0107b22:	b8 80 d4 1f c0       	mov    $0xc01fd480,%eax
c0107b27:	c9                   	leave  
c0107b28:	c3                   	ret    

c0107b29 <printStackTrace>:
c0107b29:	55                   	push   %ebp
c0107b2a:	89 e5                	mov    %esp,%ebp
c0107b2c:	83 ec 28             	sub    $0x28,%esp
c0107b2f:	e8 37 ff ff ff       	call   c0107a6b <getStackTrace>
c0107b34:	89 45 fc             	mov    %eax,-0x4(%ebp)
c0107b37:	c7 04 24 45 d7 16 c0 	movl   $0xc016d745,(%esp)
c0107b3e:	e8 02 39 00 00       	call   c010b445 <vid_printf>
c0107b43:	eb 30                	jmp    c0107b75 <printStackTrace+0x4c>
c0107b45:	8b 45 fc             	mov    -0x4(%ebp),%eax
c0107b48:	8b 48 08             	mov    0x8(%eax),%ecx
c0107b4b:	8b 45 fc             	mov    -0x4(%ebp),%eax
c0107b4e:	8b 50 04             	mov    0x4(%eax),%edx
c0107b51:	8b 45 fc             	mov    -0x4(%ebp),%eax
c0107b54:	83 c0 0c             	add    $0xc,%eax
c0107b57:	8b 00                	mov    (%eax),%eax
c0107b59:	89 4c 24 0c          	mov    %ecx,0xc(%esp)
c0107b5d:	89 54 24 08          	mov    %edx,0x8(%esp)
c0107b61:	89 44 24 04          	mov    %eax,0x4(%esp)
c0107b65:	c7 04 24 53 d7 16 c0 	movl   $0xc016d753,(%esp)
c0107b6c:	e8 d4 38 00 00       	call   c010b445 <vid_printf>
c0107b71:	83 45 fc 0c          	addl   $0xc,-0x4(%ebp)
c0107b75:	8b 45 fc             	mov    -0x4(%ebp),%eax
c0107b78:	8b 00                	mov    (%eax),%eax
c0107b7a:	85 c0                	test   %eax,%eax
c0107b7c:	75 c7                	jne    c0107b45 <printStackTrace+0x1c>
c0107b7e:	c9                   	leave  
c0107b7f:	c3                   	ret    

c0107b80 <dumpMem>:
c0107b80:	55                   	push   %ebp
c0107b81:	89 e5                	mov    %esp,%ebp
c0107b83:	83 ec 28             	sub    $0x28,%esp
c0107b86:	8b 45 08             	mov    0x8(%ebp),%eax
c0107b89:	89 45 fc             	mov    %eax,-0x4(%ebp)
c0107b8c:	eb 20                	jmp    c0107bae <dumpMem+0x2e>
c0107b8e:	8b 45 fc             	mov    -0x4(%ebp),%eax
c0107b91:	8b 00                	mov    (%eax),%eax
c0107b93:	89 44 24 08          	mov    %eax,0x8(%esp)
c0107b97:	8b 45 fc             	mov    -0x4(%ebp),%eax
c0107b9a:	89 44 24 04          	mov    %eax,0x4(%esp)
c0107b9e:	c7 04 24 6b d7 16 c0 	movl   $0xc016d76b,(%esp)
c0107ba5:	e8 9b 38 00 00       	call   c010b445 <vid_printf>
c0107baa:	83 45 fc 04          	addl   $0x4,-0x4(%ebp)
c0107bae:	83 7d 0c 00          	cmpl   $0x0,0xc(%ebp)
c0107bb2:	0f 95 c0             	setne  %al
c0107bb5:	83 6d 0c 01          	subl   $0x1,0xc(%ebp)
c0107bb9:	84 c0                	test   %al,%al
c0107bbb:	75 d1                	jne    c0107b8e <dumpMem+0xe>
c0107bbd:	c9                   	leave  
c0107bbe:	c3                   	ret    

c0107bbf <dumpBytes>:
c0107bbf:	55                   	push   %ebp
c0107bc0:	89 e5                	mov    %esp,%ebp
c0107bc2:	83 ec 28             	sub    $0x28,%esp
c0107bc5:	c7 45 f8 00 00 00 00 	movl   $0x0,-0x8(%ebp)
c0107bcc:	8b 45 08             	mov    0x8(%ebp),%eax
c0107bcf:	89 45 fc             	mov    %eax,-0x4(%ebp)
c0107bd2:	c7 45 f8 00 00 00 00 	movl   $0x0,-0x8(%ebp)
c0107bd9:	eb 5c                	jmp    c0107c37 <dumpBytes+0x78>
c0107bdb:	8b 45 fc             	mov    -0x4(%ebp),%eax
c0107bde:	0f b6 00             	movzbl (%eax),%eax
c0107be1:	0f b6 c0             	movzbl %al,%eax
c0107be4:	89 44 24 04          	mov    %eax,0x4(%esp)
c0107be8:	c7 04 24 77 d7 16 c0 	movl   $0xc016d777,(%esp)
c0107bef:	e8 51 38 00 00       	call   c010b445 <vid_printf>
c0107bf4:	83 45 fc 01          	addl   $0x1,-0x4(%ebp)
c0107bf8:	8b 4d f8             	mov    -0x8(%ebp),%ecx
c0107bfb:	c7 45 e8 ab aa aa aa 	movl   $0xaaaaaaab,-0x18(%ebp)
c0107c02:	8b 45 e8             	mov    -0x18(%ebp),%eax
c0107c05:	f7 e1                	mul    %ecx
c0107c07:	89 d0                	mov    %edx,%eax
c0107c09:	c1 e8 03             	shr    $0x3,%eax
c0107c0c:	89 45 ec             	mov    %eax,-0x14(%ebp)
c0107c0f:	8b 45 ec             	mov    -0x14(%ebp),%eax
c0107c12:	01 c0                	add    %eax,%eax
c0107c14:	03 45 ec             	add    -0x14(%ebp),%eax
c0107c17:	c1 e0 02             	shl    $0x2,%eax
c0107c1a:	89 ca                	mov    %ecx,%edx
c0107c1c:	29 c2                	sub    %eax,%edx
c0107c1e:	89 55 ec             	mov    %edx,-0x14(%ebp)
c0107c21:	83 7d ec 0b          	cmpl   $0xb,-0x14(%ebp)
c0107c25:	75 0c                	jne    c0107c33 <dumpBytes+0x74>
c0107c27:	c7 04 24 3b d7 16 c0 	movl   $0xc016d73b,(%esp)
c0107c2e:	e8 12 38 00 00       	call   c010b445 <vid_printf>
c0107c33:	83 45 f8 01          	addl   $0x1,-0x8(%ebp)
c0107c37:	83 7d 0c 00          	cmpl   $0x0,0xc(%ebp)
c0107c3b:	0f 95 c0             	setne  %al
c0107c3e:	83 6d 0c 01          	subl   $0x1,0xc(%ebp)
c0107c42:	84 c0                	test   %al,%al
c0107c44:	75 95                	jne    c0107bdb <dumpBytes+0x1c>
c0107c46:	c9                   	leave  
c0107c47:	c3                   	ret    

c0107c48 <copyUserToKernel>:
c0107c48:	55                   	push   %ebp
c0107c49:	89 e5                	mov    %esp,%ebp
c0107c4b:	83 ec 18             	sub    $0x18,%esp
c0107c4e:	8b 45 08             	mov    0x8(%ebp),%eax
c0107c51:	8b 55 10             	mov    0x10(%ebp),%edx
c0107c54:	89 54 24 04          	mov    %edx,0x4(%esp)
c0107c58:	89 04 24             	mov    %eax,(%esp)
c0107c5b:	e8 91 b9 ff ff       	call   c01035f1 <paging_isRangeUserReadable>
c0107c60:	85 c0                	test   %eax,%eax
c0107c62:	75 09                	jne    c0107c6d <copyUserToKernel+0x25>
c0107c64:	c7 45 fc 00 00 00 00 	movl   $0x0,-0x4(%ebp)
c0107c6b:	eb 20                	jmp    c0107c8d <copyUserToKernel+0x45>
c0107c6d:	8b 45 10             	mov    0x10(%ebp),%eax
c0107c70:	89 44 24 08          	mov    %eax,0x8(%esp)
c0107c74:	8b 45 08             	mov    0x8(%ebp),%eax
c0107c77:	89 44 24 04          	mov    %eax,0x4(%esp)
c0107c7b:	8b 45 0c             	mov    0xc(%ebp),%eax
c0107c7e:	89 04 24             	mov    %eax,(%esp)
c0107c81:	e8 11 45 00 00       	call   c010c197 <memcpy>
c0107c86:	c7 45 fc 01 00 00 00 	movl   $0x1,-0x4(%ebp)
c0107c8d:	8b 45 fc             	mov    -0x4(%ebp),%eax
c0107c90:	c9                   	leave  
c0107c91:	c3                   	ret    
	...

c0107c94 <vfs_init>:
c0107c94:	55                   	push   %ebp
c0107c95:	89 e5                	mov    %esp,%ebp
c0107c97:	83 ec 28             	sub    $0x28,%esp
c0107c9a:	e8 61 1c 00 00       	call   c0109900 <vfsn_init>
c0107c9f:	b8 80 d7 16 c0       	mov    $0xc016d780,%eax
c0107ca4:	c7 44 24 08 4d 93 10 	movl   $0xc010934d,0x8(%esp)
c0107cab:	c0 
c0107cac:	89 44 24 04          	mov    %eax,0x4(%esp)
c0107cb0:	c7 04 24 00 00 00 00 	movl   $0x0,(%esp)
c0107cb7:	e8 95 22 00 00       	call   c0109f51 <vfsn_createDir>
c0107cbc:	89 45 f8             	mov    %eax,-0x8(%ebp)
c0107cbf:	b8 81 d7 16 c0       	mov    $0xc016d781,%eax
c0107cc4:	c7 44 24 0c 00 00 00 	movl   $0x0,0xc(%esp)
c0107ccb:	00 
c0107ccc:	89 44 24 08          	mov    %eax,0x8(%esp)
c0107cd0:	8b 45 f8             	mov    -0x8(%ebp),%eax
c0107cd3:	89 44 24 04          	mov    %eax,0x4(%esp)
c0107cd7:	c7 04 24 01 04 00 00 	movl   $0x401,(%esp)
c0107cde:	e8 96 23 00 00       	call   c010a079 <vfsn_createServiceNode>
c0107ce3:	b8 86 d7 16 c0       	mov    $0xc016d786,%eax
c0107ce8:	c7 44 24 08 4d 93 10 	movl   $0xc010934d,0x8(%esp)
c0107cef:	c0 
c0107cf0:	89 44 24 04          	mov    %eax,0x4(%esp)
c0107cf4:	8b 45 f8             	mov    -0x8(%ebp),%eax
c0107cf7:	89 04 24             	mov    %eax,(%esp)
c0107cfa:	e8 52 22 00 00       	call   c0109f51 <vfsn_createDir>
c0107cff:	89 45 fc             	mov    %eax,-0x4(%ebp)
c0107d02:	b8 8d d7 16 c0       	mov    $0xc016d78d,%eax
c0107d07:	c7 44 24 08 4d 93 10 	movl   $0xc010934d,0x8(%esp)
c0107d0e:	c0 
c0107d0f:	89 44 24 04          	mov    %eax,0x4(%esp)
c0107d13:	8b 45 fc             	mov    -0x4(%ebp),%eax
c0107d16:	89 04 24             	mov    %eax,(%esp)
c0107d19:	e8 33 22 00 00       	call   c0109f51 <vfsn_createDir>
c0107d1e:	b8 97 d7 16 c0       	mov    $0xc016d797,%eax
c0107d23:	c7 44 24 08 4d 93 10 	movl   $0xc010934d,0x8(%esp)
c0107d2a:	c0 
c0107d2b:	89 44 24 04          	mov    %eax,0x4(%esp)
c0107d2f:	8b 45 f8             	mov    -0x8(%ebp),%eax
c0107d32:	89 04 24             	mov    %eax,(%esp)
c0107d35:	e8 17 22 00 00       	call   c0109f51 <vfsn_createDir>
c0107d3a:	c9                   	leave  
c0107d3b:	c3                   	ret    

c0107d3c <vfs_inheritFile>:
c0107d3c:	55                   	push   %ebp
c0107d3d:	89 e5                	mov    %esp,%ebp
c0107d3f:	83 ec 38             	sub    $0x38,%esp
c0107d42:	8b 45 08             	mov    0x8(%ebp),%eax
c0107d45:	66 89 45 dc          	mov    %ax,-0x24(%ebp)
c0107d49:	8b 45 0c             	mov    0xc(%ebp),%eax
c0107d4c:	c1 e0 04             	shl    $0x4,%eax
c0107d4f:	05 40 d9 1f c0       	add    $0xc01fd940,%eax
c0107d54:	89 45 ec             	mov    %eax,-0x14(%ebp)
c0107d57:	8b 45 ec             	mov    -0x14(%ebp),%eax
c0107d5a:	8b 40 0c             	mov    0xc(%eax),%eax
c0107d5d:	89 04 24             	mov    %eax,(%esp)
c0107d60:	e8 76 1c 00 00       	call   c01099db <vfsn_getNode>
c0107d65:	89 45 f0             	mov    %eax,-0x10(%ebp)
c0107d68:	8b 45 f0             	mov    -0x10(%ebp),%eax
c0107d6b:	0f b6 40 04          	movzbl 0x4(%eax),%eax
c0107d6f:	3c 04                	cmp    $0x4,%al
c0107d71:	0f 85 9e 00 00 00    	jne    c0107e15 <vfs_inheritFile+0xd9>
c0107d77:	8b 45 f0             	mov    -0x10(%ebp),%eax
c0107d7a:	8b 40 08             	mov    0x8(%eax),%eax
c0107d7d:	0f b6 40 05          	movzbl 0x5(%eax),%eax
c0107d81:	0f b6 c0             	movzbl %al,%eax
c0107d84:	83 e0 04             	and    $0x4,%eax
c0107d87:	85 c0                	test   %eax,%eax
c0107d89:	0f 85 86 00 00 00    	jne    c0107e15 <vfs_inheritFile+0xd9>
c0107d8f:	8b 45 f0             	mov    -0x10(%ebp),%eax
c0107d92:	8b 50 08             	mov    0x8(%eax),%edx
c0107d95:	8d 45 e8             	lea    -0x18(%ebp),%eax
c0107d98:	89 44 24 04          	mov    %eax,0x4(%esp)
c0107d9c:	89 14 24             	mov    %edx,(%esp)
c0107d9f:	e8 d6 24 00 00       	call   c010a27a <vfsn_createServiceUse>
c0107da4:	89 45 fc             	mov    %eax,-0x4(%ebp)
c0107da7:	83 7d fc 00          	cmpl   $0x0,-0x4(%ebp)
c0107dab:	79 09                	jns    c0107db6 <vfs_inheritFile+0x7a>
c0107dad:	c7 45 d8 ff ff ff ff 	movl   $0xffffffff,-0x28(%ebp)
c0107db4:	eb 76                	jmp    c0107e2c <vfs_inheritFile+0xf0>
c0107db6:	8b 45 e8             	mov    -0x18(%ebp),%eax
c0107db9:	89 c2                	mov    %eax,%edx
c0107dbb:	b8 00 20 17 c0       	mov    $0xc0172000,%eax
c0107dc0:	29 c2                	sub    %eax,%edx
c0107dc2:	c7 45 d4 ab aa aa aa 	movl   $0xaaaaaaab,-0x2c(%ebp)
c0107dc9:	8b 45 d4             	mov    -0x2c(%ebp),%eax
c0107dcc:	f7 e2                	mul    %edx
c0107dce:	89 d0                	mov    %edx,%eax
c0107dd0:	c1 e8 05             	shr    $0x5,%eax
c0107dd3:	0d 00 00 00 40       	or     $0x40000000,%eax
c0107dd8:	89 45 f4             	mov    %eax,-0xc(%ebp)
c0107ddb:	8b 45 ec             	mov    -0x14(%ebp),%eax
c0107dde:	0f b6 00             	movzbl (%eax),%eax
c0107de1:	0f b6 d0             	movzbl %al,%edx
c0107de4:	0f b7 4d dc          	movzwl -0x24(%ebp),%ecx
c0107de8:	8b 45 f4             	mov    -0xc(%ebp),%eax
c0107deb:	89 44 24 08          	mov    %eax,0x8(%esp)
c0107def:	89 54 24 04          	mov    %edx,0x4(%esp)
c0107df3:	89 0c 24             	mov    %ecx,(%esp)
c0107df6:	e8 83 00 00 00       	call   c0107e7e <vfs_openFile>
c0107dfb:	89 45 f8             	mov    %eax,-0x8(%ebp)
c0107dfe:	83 7d f8 00          	cmpl   $0x0,-0x8(%ebp)
c0107e02:	79 09                	jns    c0107e0d <vfs_inheritFile+0xd1>
c0107e04:	c7 45 d8 ff ff ff ff 	movl   $0xffffffff,-0x28(%ebp)
c0107e0b:	eb 1f                	jmp    c0107e2c <vfs_inheritFile+0xf0>
c0107e0d:	8b 45 f8             	mov    -0x8(%ebp),%eax
c0107e10:	89 45 d8             	mov    %eax,-0x28(%ebp)
c0107e13:	eb 17                	jmp    c0107e2c <vfs_inheritFile+0xf0>
c0107e15:	8b 45 ec             	mov    -0x14(%ebp),%eax
c0107e18:	0f b7 40 04          	movzwl 0x4(%eax),%eax
c0107e1c:	8d 50 01             	lea    0x1(%eax),%edx
c0107e1f:	8b 45 ec             	mov    -0x14(%ebp),%eax
c0107e22:	66 89 50 04          	mov    %dx,0x4(%eax)
c0107e26:	8b 45 0c             	mov    0xc(%ebp),%eax
c0107e29:	89 45 d8             	mov    %eax,-0x28(%ebp)
c0107e2c:	8b 45 d8             	mov    -0x28(%ebp),%eax
c0107e2f:	c9                   	leave  
c0107e30:	c3                   	ret    

c0107e31 <vfs_getNodeNo>:
c0107e31:	55                   	push   %ebp
c0107e32:	89 e5                	mov    %esp,%ebp
c0107e34:	83 ec 14             	sub    $0x14,%esp
c0107e37:	83 7d 08 00          	cmpl   $0x0,0x8(%ebp)
c0107e3b:	78 09                	js     c0107e46 <vfs_getNodeNo+0x15>
c0107e3d:	81 7d 08 ff 3f 00 00 	cmpl   $0x3fff,0x8(%ebp)
c0107e44:	7e 09                	jle    c0107e4f <vfs_getNodeNo+0x1e>
c0107e46:	c7 45 ec f9 ff ff ff 	movl   $0xfffffff9,-0x14(%ebp)
c0107e4d:	eb 2a                	jmp    c0107e79 <vfs_getNodeNo+0x48>
c0107e4f:	8b 45 08             	mov    0x8(%ebp),%eax
c0107e52:	c1 e0 04             	shl    $0x4,%eax
c0107e55:	05 40 d9 1f c0       	add    $0xc01fd940,%eax
c0107e5a:	89 45 fc             	mov    %eax,-0x4(%ebp)
c0107e5d:	8b 45 fc             	mov    -0x4(%ebp),%eax
c0107e60:	0f b6 00             	movzbl (%eax),%eax
c0107e63:	84 c0                	test   %al,%al
c0107e65:	75 09                	jne    c0107e70 <vfs_getNodeNo+0x3f>
c0107e67:	c7 45 ec f9 ff ff ff 	movl   $0xfffffff9,-0x14(%ebp)
c0107e6e:	eb 09                	jmp    c0107e79 <vfs_getNodeNo+0x48>
c0107e70:	8b 45 fc             	mov    -0x4(%ebp),%eax
c0107e73:	8b 40 0c             	mov    0xc(%eax),%eax
c0107e76:	89 45 ec             	mov    %eax,-0x14(%ebp)
c0107e79:	8b 45 ec             	mov    -0x14(%ebp),%eax
c0107e7c:	c9                   	leave  
c0107e7d:	c3                   	ret    

c0107e7e <vfs_openFile>:
c0107e7e:	55                   	push   %ebp
c0107e7f:	89 e5                	mov    %esp,%ebp
c0107e81:	83 ec 28             	sub    $0x28,%esp
c0107e84:	8b 45 08             	mov    0x8(%ebp),%eax
c0107e87:	8b 55 0c             	mov    0xc(%ebp),%edx
c0107e8a:	66 89 45 ec          	mov    %ax,-0x14(%ebp)
c0107e8e:	88 55 e8             	mov    %dl,-0x18(%ebp)
c0107e91:	0f b6 55 e8          	movzbl -0x18(%ebp),%edx
c0107e95:	0f b7 4d ec          	movzwl -0x14(%ebp),%ecx
c0107e99:	8b 45 10             	mov    0x10(%ebp),%eax
c0107e9c:	89 44 24 08          	mov    %eax,0x8(%esp)
c0107ea0:	89 54 24 04          	mov    %edx,0x4(%esp)
c0107ea4:	89 0c 24             	mov    %ecx,(%esp)
c0107ea7:	e8 b2 00 00 00       	call   c0107f5e <vfs_getFreeFile>
c0107eac:	89 45 f8             	mov    %eax,-0x8(%ebp)
c0107eaf:	83 7d f8 00          	cmpl   $0x0,-0x8(%ebp)
c0107eb3:	79 0b                	jns    c0107ec0 <vfs_openFile+0x42>
c0107eb5:	8b 45 f8             	mov    -0x8(%ebp),%eax
c0107eb8:	89 45 e4             	mov    %eax,-0x1c(%ebp)
c0107ebb:	e9 99 00 00 00       	jmp    c0107f59 <vfs_openFile+0xdb>
c0107ec0:	8b 45 10             	mov    0x10(%ebp),%eax
c0107ec3:	25 00 00 00 40       	and    $0x40000000,%eax
c0107ec8:	85 c0                	test   %eax,%eax
c0107eca:	74 2c                	je     c0107ef8 <vfs_openFile+0x7a>
c0107ecc:	8b 45 10             	mov    0x10(%ebp),%eax
c0107ecf:	89 c2                	mov    %eax,%edx
c0107ed1:	81 e2 ff ff ff bf    	and    $0xbfffffff,%edx
c0107ed7:	89 d0                	mov    %edx,%eax
c0107ed9:	01 c0                	add    %eax,%eax
c0107edb:	01 d0                	add    %edx,%eax
c0107edd:	c1 e0 04             	shl    $0x4,%eax
c0107ee0:	05 00 20 17 c0       	add    $0xc0172000,%eax
c0107ee5:	89 45 fc             	mov    %eax,-0x4(%ebp)
c0107ee8:	8b 45 fc             	mov    -0x4(%ebp),%eax
c0107eeb:	0f b6 40 06          	movzbl 0x6(%eax),%eax
c0107eef:	8d 50 01             	lea    0x1(%eax),%edx
c0107ef2:	8b 45 fc             	mov    -0x4(%ebp),%eax
c0107ef5:	88 50 06             	mov    %dl,0x6(%eax)
c0107ef8:	8b 45 f8             	mov    -0x8(%ebp),%eax
c0107efb:	c1 e0 04             	shl    $0x4,%eax
c0107efe:	05 40 d9 1f c0       	add    $0xc01fd940,%eax
c0107f03:	89 45 f4             	mov    %eax,-0xc(%ebp)
c0107f06:	8b 45 f4             	mov    -0xc(%ebp),%eax
c0107f09:	0f b6 00             	movzbl (%eax),%eax
c0107f0c:	84 c0                	test   %al,%al
c0107f0e:	75 32                	jne    c0107f42 <vfs_openFile+0xc4>
c0107f10:	8b 55 f4             	mov    -0xc(%ebp),%edx
c0107f13:	0f b7 45 ec          	movzwl -0x14(%ebp),%eax
c0107f17:	66 89 42 02          	mov    %ax,0x2(%edx)
c0107f1b:	8b 55 f4             	mov    -0xc(%ebp),%edx
c0107f1e:	0f b6 45 e8          	movzbl -0x18(%ebp),%eax
c0107f22:	88 02                	mov    %al,(%edx)
c0107f24:	8b 45 f4             	mov    -0xc(%ebp),%eax
c0107f27:	66 c7 40 04 01 00    	movw   $0x1,0x4(%eax)
c0107f2d:	8b 45 f4             	mov    -0xc(%ebp),%eax
c0107f30:	c7 40 08 00 00 00 00 	movl   $0x0,0x8(%eax)
c0107f37:	8b 55 f4             	mov    -0xc(%ebp),%edx
c0107f3a:	8b 45 10             	mov    0x10(%ebp),%eax
c0107f3d:	89 42 0c             	mov    %eax,0xc(%edx)
c0107f40:	eb 11                	jmp    c0107f53 <vfs_openFile+0xd5>
c0107f42:	8b 45 f4             	mov    -0xc(%ebp),%eax
c0107f45:	0f b7 40 04          	movzwl 0x4(%eax),%eax
c0107f49:	8d 50 01             	lea    0x1(%eax),%edx
c0107f4c:	8b 45 f4             	mov    -0xc(%ebp),%eax
c0107f4f:	66 89 50 04          	mov    %dx,0x4(%eax)
c0107f53:	8b 45 f8             	mov    -0x8(%ebp),%eax
c0107f56:	89 45 e4             	mov    %eax,-0x1c(%ebp)
c0107f59:	8b 45 e4             	mov    -0x1c(%ebp),%eax
c0107f5c:	c9                   	leave  
c0107f5d:	c3                   	ret    

c0107f5e <vfs_getFreeFile>:
c0107f5e:	55                   	push   %ebp
c0107f5f:	89 e5                	mov    %esp,%ebp
c0107f61:	83 ec 48             	sub    $0x48,%esp
c0107f64:	8b 45 08             	mov    0x8(%ebp),%eax
c0107f67:	8b 55 0c             	mov    0xc(%ebp),%edx
c0107f6a:	66 89 45 dc          	mov    %ax,-0x24(%ebp)
c0107f6e:	88 55 d8             	mov    %dl,-0x28(%ebp)
c0107f71:	c7 45 f0 fe ff ff ff 	movl   $0xfffffffe,-0x10(%ebp)
c0107f78:	c7 45 f4 00 00 00 00 	movl   $0x0,-0xc(%ebp)
c0107f7f:	c7 45 f8 40 d9 1f c0 	movl   $0xc01fd940,-0x8(%ebp)
c0107f86:	0f b6 45 d8          	movzbl -0x28(%ebp),%eax
c0107f8a:	83 e0 03             	and    $0x3,%eax
c0107f8d:	85 c0                	test   %eax,%eax
c0107f8f:	75 24                	jne    c0107fb5 <vfs_getFreeFile+0x57>
c0107f91:	c7 44 24 0c b2 00 00 	movl   $0xb2,0xc(%esp)
c0107f98:	00 
c0107f99:	c7 44 24 08 a0 d7 16 	movl   $0xc016d7a0,0x8(%esp)
c0107fa0:	c0 
c0107fa1:	c7 44 24 04 b0 d7 16 	movl   $0xc016d7b0,0x4(%esp)
c0107fa8:	c0 
c0107fa9:	c7 04 24 bc d7 16 c0 	movl   $0xc016d7bc,(%esp)
c0107fb0:	e8 2b fa ff ff       	call   c01079e0 <panic>
c0107fb5:	0f b6 45 d8          	movzbl -0x28(%ebp),%eax
c0107fb9:	83 e0 fc             	and    $0xfffffffc,%eax
c0107fbc:	85 c0                	test   %eax,%eax
c0107fbe:	74 24                	je     c0107fe4 <vfs_getFreeFile+0x86>
c0107fc0:	c7 44 24 0c b3 00 00 	movl   $0xb3,0xc(%esp)
c0107fc7:	00 
c0107fc8:	c7 44 24 08 a0 d7 16 	movl   $0xc016d7a0,0x8(%esp)
c0107fcf:	c0 
c0107fd0:	c7 44 24 04 b0 d7 16 	movl   $0xc016d7b0,0x4(%esp)
c0107fd7:	c0 
c0107fd8:	c7 04 24 ec d7 16 c0 	movl   $0xc016d7ec,(%esp)
c0107fdf:	e8 fc f9 ff ff       	call   c01079e0 <panic>
c0107fe4:	8b 45 10             	mov    0x10(%ebp),%eax
c0107fe7:	25 ff ff ff bf       	and    $0xbfffffff,%eax
c0107fec:	3d 43 20 00 00       	cmp    $0x2043,%eax
c0107ff1:	76 24                	jbe    c0108017 <vfs_getFreeFile+0xb9>
c0107ff3:	c7 44 24 0c b4 00 00 	movl   $0xb4,0xc(%esp)
c0107ffa:	00 
c0107ffb:	c7 44 24 08 a0 d7 16 	movl   $0xc016d7a0,0x8(%esp)
c0108002:	c0 
c0108003:	c7 44 24 04 b0 d7 16 	movl   $0xc016d7b0,0x4(%esp)
c010800a:	c0 
c010800b:	c7 04 24 2c d8 16 c0 	movl   $0xc016d82c,(%esp)
c0108012:	e8 c9 f9 ff ff       	call   c01079e0 <panic>
c0108017:	80 7d d8 00          	cmpb   $0x0,-0x28(%ebp)
c010801b:	75 24                	jne    c0108041 <vfs_getFreeFile+0xe3>
c010801d:	c7 44 24 0c b6 00 00 	movl   $0xb6,0xc(%esp)
c0108024:	00 
c0108025:	c7 44 24 08 a0 d7 16 	movl   $0xc016d7a0,0x8(%esp)
c010802c:	c0 
c010802d:	c7 44 24 04 b0 d7 16 	movl   $0xc016d7b0,0x4(%esp)
c0108034:	c0 
c0108035:	c7 04 24 60 d8 16 c0 	movl   $0xc016d860,(%esp)
c010803c:	e8 9f f9 ff ff       	call   c01079e0 <panic>
c0108041:	8b 45 10             	mov    0x10(%ebp),%eax
c0108044:	25 00 00 00 40       	and    $0x40000000,%eax
c0108049:	85 c0                	test   %eax,%eax
c010804b:	74 20                	je     c010806d <vfs_getFreeFile+0x10f>
c010804d:	8b 45 10             	mov    0x10(%ebp),%eax
c0108050:	89 04 24             	mov    %eax,(%esp)
c0108053:	e8 83 19 00 00       	call   c01099db <vfsn_getNode>
c0108058:	89 45 fc             	mov    %eax,-0x4(%ebp)
c010805b:	8b 45 fc             	mov    -0x4(%ebp),%eax
c010805e:	0f b6 40 04          	movzbl 0x4(%eax),%eax
c0108062:	3c 04                	cmp    $0x4,%al
c0108064:	0f 94 c0             	sete   %al
c0108067:	0f b6 c0             	movzbl %al,%eax
c010806a:	89 45 f4             	mov    %eax,-0xc(%ebp)
c010806d:	c7 45 ec 00 00 00 00 	movl   $0x0,-0x14(%ebp)
c0108074:	e9 87 00 00 00       	jmp    c0108100 <vfs_getFreeFile+0x1a2>
c0108079:	8b 45 f8             	mov    -0x8(%ebp),%eax
c010807c:	0f b6 00             	movzbl (%eax),%eax
c010807f:	84 c0                	test   %al,%al
c0108081:	74 63                	je     c01080e6 <vfs_getFreeFile+0x188>
c0108083:	8b 45 f8             	mov    -0x8(%ebp),%eax
c0108086:	8b 40 0c             	mov    0xc(%eax),%eax
c0108089:	3b 45 10             	cmp    0x10(%ebp),%eax
c010808c:	75 6a                	jne    c01080f8 <vfs_getFreeFile+0x19a>
c010808e:	8b 45 f8             	mov    -0x8(%ebp),%eax
c0108091:	0f b7 40 02          	movzwl 0x2(%eax),%eax
c0108095:	66 3b 45 dc          	cmp    -0x24(%ebp),%ax
c0108099:	75 5d                	jne    c01080f8 <vfs_getFreeFile+0x19a>
c010809b:	83 7d f4 00          	cmpl   $0x0,-0xc(%ebp)
c010809f:	74 13                	je     c01080b4 <vfs_getFreeFile+0x156>
c01080a1:	8b 45 f8             	mov    -0x8(%ebp),%eax
c01080a4:	0f b6 00             	movzbl (%eax),%eax
c01080a7:	3a 45 d8             	cmp    -0x28(%ebp),%al
c01080aa:	75 08                	jne    c01080b4 <vfs_getFreeFile+0x156>
c01080ac:	8b 45 ec             	mov    -0x14(%ebp),%eax
c01080af:	89 45 d4             	mov    %eax,-0x2c(%ebp)
c01080b2:	eb 5f                	jmp    c0108113 <vfs_getFreeFile+0x1b5>
c01080b4:	83 7d f4 00          	cmpl   $0x0,-0xc(%ebp)
c01080b8:	75 19                	jne    c01080d3 <vfs_getFreeFile+0x175>
c01080ba:	8b 45 f8             	mov    -0x8(%ebp),%eax
c01080bd:	0f b6 00             	movzbl (%eax),%eax
c01080c0:	0f b6 c0             	movzbl %al,%eax
c01080c3:	83 e0 02             	and    $0x2,%eax
c01080c6:	85 c0                	test   %eax,%eax
c01080c8:	74 09                	je     c01080d3 <vfs_getFreeFile+0x175>
c01080ca:	c7 45 d4 ff ff ff ff 	movl   $0xffffffff,-0x2c(%ebp)
c01080d1:	eb 40                	jmp    c0108113 <vfs_getFreeFile+0x1b5>
c01080d3:	8b 45 f8             	mov    -0x8(%ebp),%eax
c01080d6:	0f b6 00             	movzbl (%eax),%eax
c01080d9:	3a 45 d8             	cmp    -0x28(%ebp),%al
c01080dc:	75 1a                	jne    c01080f8 <vfs_getFreeFile+0x19a>
c01080de:	8b 45 ec             	mov    -0x14(%ebp),%eax
c01080e1:	89 45 d4             	mov    %eax,-0x2c(%ebp)
c01080e4:	eb 2d                	jmp    c0108113 <vfs_getFreeFile+0x1b5>
c01080e6:	83 7d f0 fe          	cmpl   $0xfffffffe,-0x10(%ebp)
c01080ea:	75 0c                	jne    c01080f8 <vfs_getFreeFile+0x19a>
c01080ec:	8b 45 ec             	mov    -0x14(%ebp),%eax
c01080ef:	89 45 f0             	mov    %eax,-0x10(%ebp)
c01080f2:	83 7d f4 00          	cmpl   $0x0,-0xc(%ebp)
c01080f6:	75 15                	jne    c010810d <vfs_getFreeFile+0x1af>
c01080f8:	83 45 f8 10          	addl   $0x10,-0x8(%ebp)
c01080fc:	83 45 ec 01          	addl   $0x1,-0x14(%ebp)
c0108100:	81 7d ec ff 3f 00 00 	cmpl   $0x3fff,-0x14(%ebp)
c0108107:	0f 8e 6c ff ff ff    	jle    c0108079 <vfs_getFreeFile+0x11b>
c010810d:	8b 45 f0             	mov    -0x10(%ebp),%eax
c0108110:	89 45 d4             	mov    %eax,-0x2c(%ebp)
c0108113:	8b 45 d4             	mov    -0x2c(%ebp),%eax
c0108116:	c9                   	leave  
c0108117:	c3                   	ret    

c0108118 <vfs_openFileForKernel>:
c0108118:	55                   	push   %ebp
c0108119:	89 e5                	mov    %esp,%ebp
c010811b:	83 ec 38             	sub    $0x38,%esp
c010811e:	8b 45 08             	mov    0x8(%ebp),%eax
c0108121:	66 89 45 ec          	mov    %ax,-0x14(%ebp)
c0108125:	8b 45 0c             	mov    0xc(%ebp),%eax
c0108128:	89 04 24             	mov    %eax,(%esp)
c010812b:	e8 ab 18 00 00       	call   c01099db <vfsn_getNode>
c0108130:	89 45 f8             	mov    %eax,-0x8(%ebp)
c0108133:	8b 45 f8             	mov    -0x8(%ebp),%eax
c0108136:	0f b6 40 04          	movzbl 0x4(%eax),%eax
c010813a:	3c 01                	cmp    $0x1,%al
c010813c:	74 0b                	je     c0108149 <vfs_openFileForKernel+0x31>
c010813e:	8b 45 f8             	mov    -0x8(%ebp),%eax
c0108141:	8b 40 14             	mov    0x14(%eax),%eax
c0108144:	89 45 e4             	mov    %eax,-0x1c(%ebp)
c0108147:	eb 0c                	jmp    c0108155 <vfs_openFileForKernel+0x3d>
c0108149:	8b 45 f8             	mov    -0x8(%ebp),%eax
c010814c:	8b 40 28             	mov    0x28(%eax),%eax
c010814f:	8b 40 14             	mov    0x14(%eax),%eax
c0108152:	89 45 e4             	mov    %eax,-0x1c(%ebp)
c0108155:	8b 45 e4             	mov    -0x1c(%ebp),%eax
c0108158:	89 45 fc             	mov    %eax,-0x4(%ebp)
c010815b:	83 7d fc 00          	cmpl   $0x0,-0x4(%ebp)
c010815f:	74 11                	je     c0108172 <vfs_openFileForKernel+0x5a>
c0108161:	8b 45 fc             	mov    -0x4(%ebp),%eax
c0108164:	0f b7 40 20          	movzwl 0x20(%eax),%eax
c0108168:	66 3d 01 04          	cmp    $0x401,%ax
c010816c:	0f 84 8e 00 00 00    	je     c0108200 <vfs_openFileForKernel+0xe8>
c0108172:	b8 92 d8 16 c0       	mov    $0xc016d892,%eax
c0108177:	89 44 24 04          	mov    %eax,0x4(%esp)
c010817b:	8b 45 f8             	mov    -0x8(%ebp),%eax
c010817e:	89 04 24             	mov    %eax,(%esp)
c0108181:	e8 04 1d 00 00       	call   c0109e8a <vfsn_createNode>
c0108186:	89 45 fc             	mov    %eax,-0x4(%ebp)
c0108189:	83 7d fc 00          	cmpl   $0x0,-0x4(%ebp)
c010818d:	75 0c                	jne    c010819b <vfs_openFileForKernel+0x83>
c010818f:	c7 45 e8 f5 ff ff ff 	movl   $0xfffffff5,-0x18(%ebp)
c0108196:	e9 a0 00 00 00       	jmp    c010823b <vfs_openFileForKernel+0x123>
c010819b:	8b 45 fc             	mov    -0x4(%ebp),%eax
c010819e:	c6 40 04 04          	movb   $0x4,0x4(%eax)
c01081a2:	8b 45 fc             	mov    -0x4(%ebp),%eax
c01081a5:	c6 40 05 03          	movb   $0x3,0x5(%eax)
c01081a9:	8b 45 fc             	mov    -0x4(%ebp),%eax
c01081ac:	c7 40 1c 65 8f 10 c0 	movl   $0xc0108f65,0x1c(%eax)
c01081b3:	8b 45 fc             	mov    -0x4(%ebp),%eax
c01081b6:	66 c7 40 24 02 04    	movw   $0x402,0x24(%eax)
c01081bc:	8b 45 fc             	mov    -0x4(%ebp),%eax
c01081bf:	66 c7 40 20 01 04    	movw   $0x401,0x20(%eax)
c01081c5:	8b 45 fc             	mov    -0x4(%ebp),%eax
c01081c8:	c7 40 0c 00 00 00 00 	movl   $0x0,0xc(%eax)
c01081cf:	8b 45 f8             	mov    -0x8(%ebp),%eax
c01081d2:	8b 50 14             	mov    0x14(%eax),%edx
c01081d5:	8b 45 fc             	mov    -0x4(%ebp),%eax
c01081d8:	89 50 10             	mov    %edx,0x10(%eax)
c01081db:	8b 55 f8             	mov    -0x8(%ebp),%edx
c01081de:	8b 45 fc             	mov    -0x4(%ebp),%eax
c01081e1:	89 42 14             	mov    %eax,0x14(%edx)
c01081e4:	8b 45 f8             	mov    -0x8(%ebp),%eax
c01081e7:	8b 40 18             	mov    0x18(%eax),%eax
c01081ea:	85 c0                	test   %eax,%eax
c01081ec:	75 09                	jne    c01081f7 <vfs_openFileForKernel+0xdf>
c01081ee:	8b 55 f8             	mov    -0x8(%ebp),%edx
c01081f1:	8b 45 fc             	mov    -0x4(%ebp),%eax
c01081f4:	89 42 18             	mov    %eax,0x18(%edx)
c01081f7:	8b 55 fc             	mov    -0x4(%ebp),%edx
c01081fa:	8b 45 f8             	mov    -0x8(%ebp),%eax
c01081fd:	89 42 08             	mov    %eax,0x8(%edx)
c0108200:	8b 55 fc             	mov    -0x4(%ebp),%edx
c0108203:	b8 00 20 17 c0       	mov    $0xc0172000,%eax
c0108208:	29 c2                	sub    %eax,%edx
c010820a:	c7 45 e0 ab aa aa aa 	movl   $0xaaaaaaab,-0x20(%ebp)
c0108211:	8b 45 e0             	mov    -0x20(%ebp),%eax
c0108214:	f7 e2                	mul    %edx
c0108216:	89 d0                	mov    %edx,%eax
c0108218:	c1 e8 05             	shr    $0x5,%eax
c010821b:	0d 00 00 00 40       	or     $0x40000000,%eax
c0108220:	0f b7 55 ec          	movzwl -0x14(%ebp),%edx
c0108224:	89 44 24 08          	mov    %eax,0x8(%esp)
c0108228:	c7 44 24 04 03 00 00 	movl   $0x3,0x4(%esp)
c010822f:	00 
c0108230:	89 14 24             	mov    %edx,(%esp)
c0108233:	e8 46 fc ff ff       	call   c0107e7e <vfs_openFile>
c0108238:	89 45 e8             	mov    %eax,-0x18(%ebp)
c010823b:	8b 45 e8             	mov    -0x18(%ebp),%eax
c010823e:	c9                   	leave  
c010823f:	c3                   	ret    

c0108240 <vfs_readFile>:
c0108240:	55                   	push   %ebp
c0108241:	89 e5                	mov    %esp,%ebp
c0108243:	53                   	push   %ebx
c0108244:	83 ec 34             	sub    $0x34,%esp
c0108247:	8b 45 08             	mov    0x8(%ebp),%eax
c010824a:	66 89 45 e8          	mov    %ax,-0x18(%ebp)
c010824e:	8b 45 0c             	mov    0xc(%ebp),%eax
c0108251:	c1 e0 04             	shl    $0x4,%eax
c0108254:	05 40 d9 1f c0       	add    $0xc01fd940,%eax
c0108259:	89 45 f0             	mov    %eax,-0x10(%ebp)
c010825c:	8b 45 f0             	mov    -0x10(%ebp),%eax
c010825f:	0f b6 00             	movzbl (%eax),%eax
c0108262:	0f b6 c0             	movzbl %al,%eax
c0108265:	83 e0 01             	and    $0x1,%eax
c0108268:	85 c0                	test   %eax,%eax
c010826a:	75 0c                	jne    c0108278 <vfs_readFile+0x38>
c010826c:	c7 45 e4 f8 ff ff ff 	movl   $0xfffffff8,-0x1c(%ebp)
c0108273:	e9 68 01 00 00       	jmp    c01083e0 <vfs_readFile+0x1a0>
c0108278:	8b 45 f0             	mov    -0x10(%ebp),%eax
c010827b:	8b 40 0c             	mov    0xc(%eax),%eax
c010827e:	25 00 00 00 40       	and    $0x40000000,%eax
c0108283:	85 c0                	test   %eax,%eax
c0108285:	0f 84 0d 01 00 00    	je     c0108398 <vfs_readFile+0x158>
c010828b:	8b 45 f0             	mov    -0x10(%ebp),%eax
c010828e:	8b 40 0c             	mov    0xc(%eax),%eax
c0108291:	25 ff ff ff bf       	and    $0xbfffffff,%eax
c0108296:	89 45 f4             	mov    %eax,-0xc(%ebp)
c0108299:	8b 55 f4             	mov    -0xc(%ebp),%edx
c010829c:	89 d0                	mov    %edx,%eax
c010829e:	01 c0                	add    %eax,%eax
c01082a0:	01 d0                	add    %edx,%eax
c01082a2:	c1 e0 04             	shl    $0x4,%eax
c01082a5:	05 00 20 17 c0       	add    $0xc0172000,%eax
c01082aa:	89 45 f8             	mov    %eax,-0x8(%ebp)
c01082ad:	8b 45 f8             	mov    -0x8(%ebp),%eax
c01082b0:	8b 00                	mov    (%eax),%eax
c01082b2:	85 c0                	test   %eax,%eax
c01082b4:	75 0c                	jne    c01082c2 <vfs_readFile+0x82>
c01082b6:	c7 45 e4 f9 ff ff ff 	movl   $0xfffffff9,-0x1c(%ebp)
c01082bd:	e9 1e 01 00 00       	jmp    c01083e0 <vfs_readFile+0x1a0>
c01082c2:	8b 45 f8             	mov    -0x8(%ebp),%eax
c01082c5:	0f b6 40 04          	movzbl 0x4(%eax),%eax
c01082c9:	3c 04                	cmp    $0x4,%al
c01082cb:	75 40                	jne    c010830d <vfs_readFile+0xcd>
c01082cd:	8b 45 f8             	mov    -0x8(%ebp),%eax
c01082d0:	0f b7 40 24          	movzwl 0x24(%eax),%eax
c01082d4:	66 3b 45 e8          	cmp    -0x18(%ebp),%ax
c01082d8:	74 33                	je     c010830d <vfs_readFile+0xcd>
c01082da:	8b 45 f8             	mov    -0x8(%ebp),%eax
c01082dd:	0f b7 40 24          	movzwl 0x24(%eax),%eax
c01082e1:	66 3d 02 04          	cmp    $0x402,%ax
c01082e5:	74 19                	je     c0108300 <vfs_readFile+0xc0>
c01082e7:	66 81 7d e8 01 04    	cmpw   $0x401,-0x18(%ebp)
c01082ed:	75 11                	jne    c0108300 <vfs_readFile+0xc0>
c01082ef:	c7 45 e4 00 00 00 00 	movl   $0x0,-0x1c(%ebp)
c01082f6:	e9 e5 00 00 00       	jmp    c01083e0 <vfs_readFile+0x1a0>
c01082fb:	e8 d6 cb ff ff       	call   c0104ed6 <proc_switch>
c0108300:	8b 45 f8             	mov    -0x8(%ebp),%eax
c0108303:	0f b7 40 24          	movzwl 0x24(%eax),%eax
c0108307:	66 3d 02 04          	cmp    $0x402,%ax
c010830b:	75 ee                	jne    c01082fb <vfs_readFile+0xbb>
c010830d:	8b 45 f8             	mov    -0x8(%ebp),%eax
c0108310:	8b 58 1c             	mov    0x1c(%eax),%ebx
c0108313:	8b 45 f0             	mov    -0x10(%ebp),%eax
c0108316:	8b 50 08             	mov    0x8(%eax),%edx
c0108319:	0f b7 4d e8          	movzwl -0x18(%ebp),%ecx
c010831d:	8b 45 14             	mov    0x14(%ebp),%eax
c0108320:	89 44 24 10          	mov    %eax,0x10(%esp)
c0108324:	89 54 24 0c          	mov    %edx,0xc(%esp)
c0108328:	8b 45 10             	mov    0x10(%ebp),%eax
c010832b:	89 44 24 08          	mov    %eax,0x8(%esp)
c010832f:	8b 45 f8             	mov    -0x8(%ebp),%eax
c0108332:	89 44 24 04          	mov    %eax,0x4(%esp)
c0108336:	89 0c 24             	mov    %ecx,(%esp)
c0108339:	ff d3                	call   *%ebx
c010833b:	89 45 ec             	mov    %eax,-0x14(%ebp)
c010833e:	8b 45 f8             	mov    -0x8(%ebp),%eax
c0108341:	0f b6 40 04          	movzbl 0x4(%eax),%eax
c0108345:	3c 04                	cmp    $0x4,%al
c0108347:	75 3c                	jne    c0108385 <vfs_readFile+0x145>
c0108349:	83 7d ec 00          	cmpl   $0x0,-0x14(%ebp)
c010834d:	7f 18                	jg     c0108367 <vfs_readFile+0x127>
c010834f:	f7 5d ec             	negl   -0x14(%ebp)
c0108352:	8b 45 f0             	mov    -0x10(%ebp),%eax
c0108355:	c7 40 08 00 00 00 00 	movl   $0x0,0x8(%eax)
c010835c:	8b 45 f8             	mov    -0x8(%ebp),%eax
c010835f:	66 c7 40 24 02 04    	movw   $0x402,0x24(%eax)
c0108365:	eb 73                	jmp    c01083da <vfs_readFile+0x19a>
c0108367:	8b 45 f0             	mov    -0x10(%ebp),%eax
c010836a:	8b 50 08             	mov    0x8(%eax),%edx
c010836d:	8b 45 ec             	mov    -0x14(%ebp),%eax
c0108370:	01 c2                	add    %eax,%edx
c0108372:	8b 45 f0             	mov    -0x10(%ebp),%eax
c0108375:	89 50 08             	mov    %edx,0x8(%eax)
c0108378:	8b 55 f8             	mov    -0x8(%ebp),%edx
c010837b:	0f b7 45 e8          	movzwl -0x18(%ebp),%eax
c010837f:	66 89 42 24          	mov    %ax,0x24(%edx)
c0108383:	eb 55                	jmp    c01083da <vfs_readFile+0x19a>
c0108385:	8b 45 f0             	mov    -0x10(%ebp),%eax
c0108388:	8b 50 08             	mov    0x8(%eax),%edx
c010838b:	8b 45 ec             	mov    -0x14(%ebp),%eax
c010838e:	01 c2                	add    %eax,%edx
c0108390:	8b 45 f0             	mov    -0x10(%ebp),%eax
c0108393:	89 50 08             	mov    %edx,0x8(%eax)
c0108396:	eb 42                	jmp    c01083da <vfs_readFile+0x19a>
c0108398:	8b 45 f0             	mov    -0x10(%ebp),%eax
c010839b:	8b 50 08             	mov    0x8(%eax),%edx
c010839e:	8b 45 f0             	mov    -0x10(%ebp),%eax
c01083a1:	8b 48 0c             	mov    0xc(%eax),%ecx
c01083a4:	0f b7 5d e8          	movzwl -0x18(%ebp),%ebx
c01083a8:	8b 45 14             	mov    0x14(%ebp),%eax
c01083ab:	89 44 24 10          	mov    %eax,0x10(%esp)
c01083af:	89 54 24 0c          	mov    %edx,0xc(%esp)
c01083b3:	8b 45 10             	mov    0x10(%ebp),%eax
c01083b6:	89 44 24 08          	mov    %eax,0x8(%esp)
c01083ba:	89 4c 24 04          	mov    %ecx,0x4(%esp)
c01083be:	89 1c 24             	mov    %ebx,(%esp)
c01083c1:	e8 72 27 00 00       	call   c010ab38 <vfsr_readFile>
c01083c6:	89 45 ec             	mov    %eax,-0x14(%ebp)
c01083c9:	8b 45 f0             	mov    -0x10(%ebp),%eax
c01083cc:	8b 50 08             	mov    0x8(%eax),%edx
c01083cf:	8b 45 ec             	mov    -0x14(%ebp),%eax
c01083d2:	01 c2                	add    %eax,%edx
c01083d4:	8b 45 f0             	mov    -0x10(%ebp),%eax
c01083d7:	89 50 08             	mov    %edx,0x8(%eax)
c01083da:	8b 45 ec             	mov    -0x14(%ebp),%eax
c01083dd:	89 45 e4             	mov    %eax,-0x1c(%ebp)
c01083e0:	8b 45 e4             	mov    -0x1c(%ebp),%eax
c01083e3:	83 c4 34             	add    $0x34,%esp
c01083e6:	5b                   	pop    %ebx
c01083e7:	5d                   	pop    %ebp
c01083e8:	c3                   	ret    

c01083e9 <vfs_writeFile>:
c01083e9:	55                   	push   %ebp
c01083ea:	89 e5                	mov    %esp,%ebp
c01083ec:	53                   	push   %ebx
c01083ed:	83 ec 34             	sub    $0x34,%esp
c01083f0:	8b 45 08             	mov    0x8(%ebp),%eax
c01083f3:	66 89 45 e8          	mov    %ax,-0x18(%ebp)
c01083f7:	8b 45 0c             	mov    0xc(%ebp),%eax
c01083fa:	c1 e0 04             	shl    $0x4,%eax
c01083fd:	05 40 d9 1f c0       	add    $0xc01fd940,%eax
c0108402:	89 45 f4             	mov    %eax,-0xc(%ebp)
c0108405:	8b 45 f4             	mov    -0xc(%ebp),%eax
c0108408:	0f b6 00             	movzbl (%eax),%eax
c010840b:	0f b6 c0             	movzbl %al,%eax
c010840e:	83 e0 02             	and    $0x2,%eax
c0108411:	85 c0                	test   %eax,%eax
c0108413:	75 0c                	jne    c0108421 <vfs_writeFile+0x38>
c0108415:	c7 45 e4 f7 ff ff ff 	movl   $0xfffffff7,-0x1c(%ebp)
c010841c:	e9 ec 00 00 00       	jmp    c010850d <vfs_writeFile+0x124>
c0108421:	8b 45 f4             	mov    -0xc(%ebp),%eax
c0108424:	8b 40 0c             	mov    0xc(%eax),%eax
c0108427:	25 00 00 00 40       	and    $0x40000000,%eax
c010842c:	85 c0                	test   %eax,%eax
c010842e:	0f 84 91 00 00 00    	je     c01084c5 <vfs_writeFile+0xdc>
c0108434:	8b 45 f4             	mov    -0xc(%ebp),%eax
c0108437:	8b 40 0c             	mov    0xc(%eax),%eax
c010843a:	25 ff ff ff bf       	and    $0xbfffffff,%eax
c010843f:	89 45 f8             	mov    %eax,-0x8(%ebp)
c0108442:	8b 55 f8             	mov    -0x8(%ebp),%edx
c0108445:	89 d0                	mov    %edx,%eax
c0108447:	01 c0                	add    %eax,%eax
c0108449:	01 d0                	add    %edx,%eax
c010844b:	c1 e0 04             	shl    $0x4,%eax
c010844e:	05 00 20 17 c0       	add    $0xc0172000,%eax
c0108453:	89 45 f0             	mov    %eax,-0x10(%ebp)
c0108456:	8b 45 f0             	mov    -0x10(%ebp),%eax
c0108459:	8b 00                	mov    (%eax),%eax
c010845b:	85 c0                	test   %eax,%eax
c010845d:	75 0c                	jne    c010846b <vfs_writeFile+0x82>
c010845f:	c7 45 e4 f9 ff ff ff 	movl   $0xfffffff9,-0x1c(%ebp)
c0108466:	e9 a2 00 00 00       	jmp    c010850d <vfs_writeFile+0x124>
c010846b:	8b 45 f4             	mov    -0xc(%ebp),%eax
c010846e:	8b 50 08             	mov    0x8(%eax),%edx
c0108471:	0f b7 4d e8          	movzwl -0x18(%ebp),%ecx
c0108475:	8b 45 14             	mov    0x14(%ebp),%eax
c0108478:	89 44 24 10          	mov    %eax,0x10(%esp)
c010847c:	89 54 24 0c          	mov    %edx,0xc(%esp)
c0108480:	8b 45 10             	mov    0x10(%ebp),%eax
c0108483:	89 44 24 08          	mov    %eax,0x8(%esp)
c0108487:	8b 45 f0             	mov    -0x10(%ebp),%eax
c010848a:	89 44 24 04          	mov    %eax,0x4(%esp)
c010848e:	89 0c 24             	mov    %ecx,(%esp)
c0108491:	e8 e7 0b 00 00       	call   c010907d <vfs_writeHandler>
c0108496:	89 45 ec             	mov    %eax,-0x14(%ebp)
c0108499:	83 7d ec 00          	cmpl   $0x0,-0x14(%ebp)
c010849d:	79 08                	jns    c01084a7 <vfs_writeFile+0xbe>
c010849f:	8b 45 ec             	mov    -0x14(%ebp),%eax
c01084a2:	89 45 e4             	mov    %eax,-0x1c(%ebp)
c01084a5:	eb 66                	jmp    c010850d <vfs_writeFile+0x124>
c01084a7:	8b 45 f0             	mov    -0x10(%ebp),%eax
c01084aa:	0f b6 40 04          	movzbl 0x4(%eax),%eax
c01084ae:	3c 04                	cmp    $0x4,%al
c01084b0:	74 55                	je     c0108507 <vfs_writeFile+0x11e>
c01084b2:	8b 45 f4             	mov    -0xc(%ebp),%eax
c01084b5:	8b 50 08             	mov    0x8(%eax),%edx
c01084b8:	8b 45 ec             	mov    -0x14(%ebp),%eax
c01084bb:	01 c2                	add    %eax,%edx
c01084bd:	8b 45 f4             	mov    -0xc(%ebp),%eax
c01084c0:	89 50 08             	mov    %edx,0x8(%eax)
c01084c3:	eb 42                	jmp    c0108507 <vfs_writeFile+0x11e>
c01084c5:	8b 45 f4             	mov    -0xc(%ebp),%eax
c01084c8:	8b 50 08             	mov    0x8(%eax),%edx
c01084cb:	8b 45 f4             	mov    -0xc(%ebp),%eax
c01084ce:	8b 48 0c             	mov    0xc(%eax),%ecx
c01084d1:	0f b7 5d e8          	movzwl -0x18(%ebp),%ebx
c01084d5:	8b 45 14             	mov    0x14(%ebp),%eax
c01084d8:	89 44 24 10          	mov    %eax,0x10(%esp)
c01084dc:	89 54 24 0c          	mov    %edx,0xc(%esp)
c01084e0:	8b 45 10             	mov    0x10(%ebp),%eax
c01084e3:	89 44 24 08          	mov    %eax,0x8(%esp)
c01084e7:	89 4c 24 04          	mov    %ecx,0x4(%esp)
c01084eb:	89 1c 24             	mov    %ebx,(%esp)
c01084ee:	e8 55 27 00 00       	call   c010ac48 <vfsr_writeFile>
c01084f3:	89 45 ec             	mov    %eax,-0x14(%ebp)
c01084f6:	8b 45 f4             	mov    -0xc(%ebp),%eax
c01084f9:	8b 50 08             	mov    0x8(%eax),%edx
c01084fc:	8b 45 ec             	mov    -0x14(%ebp),%eax
c01084ff:	01 c2                	add    %eax,%edx
c0108501:	8b 45 f4             	mov    -0xc(%ebp),%eax
c0108504:	89 50 08             	mov    %edx,0x8(%eax)
c0108507:	8b 45 ec             	mov    -0x14(%ebp),%eax
c010850a:	89 45 e4             	mov    %eax,-0x1c(%ebp)
c010850d:	8b 45 e4             	mov    -0x1c(%ebp),%eax
c0108510:	83 c4 34             	add    $0x34,%esp
c0108513:	5b                   	pop    %ebx
c0108514:	5d                   	pop    %ebp
c0108515:	c3                   	ret    

c0108516 <vfs_closeFile>:
c0108516:	55                   	push   %ebp
c0108517:	89 e5                	mov    %esp,%ebp
c0108519:	83 ec 18             	sub    $0x18,%esp
c010851c:	8b 45 08             	mov    0x8(%ebp),%eax
c010851f:	c1 e0 04             	shl    $0x4,%eax
c0108522:	05 40 d9 1f c0       	add    $0xc01fd940,%eax
c0108527:	89 45 f4             	mov    %eax,-0xc(%ebp)
c010852a:	8b 45 f4             	mov    -0xc(%ebp),%eax
c010852d:	0f b7 40 04          	movzwl 0x4(%eax),%eax
c0108531:	8d 50 ff             	lea    -0x1(%eax),%edx
c0108534:	8b 45 f4             	mov    -0xc(%ebp),%eax
c0108537:	66 89 50 04          	mov    %dx,0x4(%eax)
c010853b:	8b 45 f4             	mov    -0xc(%ebp),%eax
c010853e:	0f b7 40 04          	movzwl 0x4(%eax),%eax
c0108542:	66 85 c0             	test   %ax,%ax
c0108545:	0f 85 5f 01 00 00    	jne    c01086aa <vfs_closeFile+0x194>
c010854b:	8b 45 f4             	mov    -0xc(%ebp),%eax
c010854e:	8b 40 0c             	mov    0xc(%eax),%eax
c0108551:	25 ff ff ff bf       	and    $0xbfffffff,%eax
c0108556:	89 45 f8             	mov    %eax,-0x8(%ebp)
c0108559:	8b 55 f8             	mov    -0x8(%ebp),%edx
c010855c:	89 d0                	mov    %edx,%eax
c010855e:	01 c0                	add    %eax,%eax
c0108560:	01 d0                	add    %edx,%eax
c0108562:	c1 e0 04             	shl    $0x4,%eax
c0108565:	05 00 20 17 c0       	add    $0xc0172000,%eax
c010856a:	89 45 fc             	mov    %eax,-0x4(%ebp)
c010856d:	8b 45 f4             	mov    -0xc(%ebp),%eax
c0108570:	8b 40 0c             	mov    0xc(%eax),%eax
c0108573:	25 00 00 00 40       	and    $0x40000000,%eax
c0108578:	85 c0                	test   %eax,%eax
c010857a:	0f 84 16 01 00 00    	je     c0108696 <vfs_closeFile+0x180>
c0108580:	8b 45 fc             	mov    -0x4(%ebp),%eax
c0108583:	8b 00                	mov    (%eax),%eax
c0108585:	85 c0                	test   %eax,%eax
c0108587:	0f 84 17 01 00 00    	je     c01086a4 <vfs_closeFile+0x18e>
c010858d:	8b 45 fc             	mov    -0x4(%ebp),%eax
c0108590:	0f b6 40 06          	movzbl 0x6(%eax),%eax
c0108594:	8d 50 ff             	lea    -0x1(%eax),%edx
c0108597:	8b 45 fc             	mov    -0x4(%ebp),%eax
c010859a:	88 50 06             	mov    %dl,0x6(%eax)
c010859d:	8b 45 fc             	mov    -0x4(%ebp),%eax
c01085a0:	0f b6 40 06          	movzbl 0x6(%eax),%eax
c01085a4:	84 c0                	test   %al,%al
c01085a6:	0f 85 f8 00 00 00    	jne    c01086a4 <vfs_closeFile+0x18e>
c01085ac:	8b 45 fc             	mov    -0x4(%ebp),%eax
c01085af:	0f b6 40 04          	movzbl 0x4(%eax),%eax
c01085b3:	3c 04                	cmp    $0x4,%al
c01085b5:	0f 85 ac 00 00 00    	jne    c0108667 <vfs_closeFile+0x151>
c01085bb:	8b 45 fc             	mov    -0x4(%ebp),%eax
c01085be:	8b 40 28             	mov    0x28(%eax),%eax
c01085c1:	85 c0                	test   %eax,%eax
c01085c3:	74 16                	je     c01085db <vfs_closeFile+0xc5>
c01085c5:	8b 45 fc             	mov    -0x4(%ebp),%eax
c01085c8:	8b 40 28             	mov    0x28(%eax),%eax
c01085cb:	89 04 24             	mov    %eax,(%esp)
c01085ce:	e8 8a 33 00 00       	call   c010b95d <sll_length>
c01085d3:	85 c0                	test   %eax,%eax
c01085d5:	0f 85 c9 00 00 00    	jne    c01086a4 <vfs_closeFile+0x18e>
c01085db:	8b 45 fc             	mov    -0x4(%ebp),%eax
c01085de:	8b 40 2c             	mov    0x2c(%eax),%eax
c01085e1:	85 c0                	test   %eax,%eax
c01085e3:	74 20                	je     c0108605 <vfs_closeFile+0xef>
c01085e5:	8b 45 fc             	mov    -0x4(%ebp),%eax
c01085e8:	8b 40 2c             	mov    0x2c(%eax),%eax
c01085eb:	c7 44 24 04 01 00 00 	movl   $0x1,0x4(%esp)
c01085f2:	00 
c01085f3:	89 04 24             	mov    %eax,(%esp)
c01085f6:	e8 ad 32 00 00       	call   c010b8a8 <sll_destroy>
c01085fb:	8b 45 fc             	mov    -0x4(%ebp),%eax
c01085fe:	c7 40 2c 00 00 00 00 	movl   $0x0,0x2c(%eax)
c0108605:	8b 45 fc             	mov    -0x4(%ebp),%eax
c0108608:	8b 40 28             	mov    0x28(%eax),%eax
c010860b:	85 c0                	test   %eax,%eax
c010860d:	74 20                	je     c010862f <vfs_closeFile+0x119>
c010860f:	8b 45 fc             	mov    -0x4(%ebp),%eax
c0108612:	8b 40 28             	mov    0x28(%eax),%eax
c0108615:	c7 44 24 04 01 00 00 	movl   $0x1,0x4(%esp)
c010861c:	00 
c010861d:	89 04 24             	mov    %eax,(%esp)
c0108620:	e8 83 32 00 00       	call   c010b8a8 <sll_destroy>
c0108625:	8b 45 fc             	mov    -0x4(%ebp),%eax
c0108628:	c7 40 28 00 00 00 00 	movl   $0x0,0x28(%eax)
c010862f:	8b 45 fc             	mov    -0x4(%ebp),%eax
c0108632:	8b 40 08             	mov    0x8(%eax),%eax
c0108635:	0f b6 40 05          	movzbl 0x5(%eax),%eax
c0108639:	0f b6 c0             	movzbl %al,%eax
c010863c:	83 e0 04             	and    $0x4,%eax
c010863f:	85 c0                	test   %eax,%eax
c0108641:	75 0d                	jne    c0108650 <vfs_closeFile+0x13a>
c0108643:	8b 45 fc             	mov    -0x4(%ebp),%eax
c0108646:	8b 00                	mov    (%eax),%eax
c0108648:	89 04 24             	mov    %eax,(%esp)
c010864b:	e8 7b 97 ff ff       	call   c0101dcb <kheap_free>
c0108650:	8b 45 fc             	mov    -0x4(%ebp),%eax
c0108653:	8b 50 08             	mov    0x8(%eax),%edx
c0108656:	8b 45 fc             	mov    -0x4(%ebp),%eax
c0108659:	89 44 24 04          	mov    %eax,0x4(%esp)
c010865d:	89 14 24             	mov    %edx,(%esp)
c0108660:	e8 60 1b 00 00       	call   c010a1c5 <vfsn_removeChild>
c0108665:	eb 3d                	jmp    c01086a4 <vfs_closeFile+0x18e>
c0108667:	8b 45 fc             	mov    -0x4(%ebp),%eax
c010866a:	0f b6 40 04          	movzbl 0x4(%eax),%eax
c010866e:	3c 03                	cmp    $0x3,%al
c0108670:	74 32                	je     c01086a4 <vfs_closeFile+0x18e>
c0108672:	8b 45 fc             	mov    -0x4(%ebp),%eax
c0108675:	8b 40 28             	mov    0x28(%eax),%eax
c0108678:	85 c0                	test   %eax,%eax
c010867a:	74 28                	je     c01086a4 <vfs_closeFile+0x18e>
c010867c:	8b 45 fc             	mov    -0x4(%ebp),%eax
c010867f:	8b 40 28             	mov    0x28(%eax),%eax
c0108682:	89 04 24             	mov    %eax,(%esp)
c0108685:	e8 41 97 ff ff       	call   c0101dcb <kheap_free>
c010868a:	8b 45 fc             	mov    -0x4(%ebp),%eax
c010868d:	c7 40 28 00 00 00 00 	movl   $0x0,0x28(%eax)
c0108694:	eb 0e                	jmp    c01086a4 <vfs_closeFile+0x18e>
c0108696:	8b 45 f4             	mov    -0xc(%ebp),%eax
c0108699:	8b 40 0c             	mov    0xc(%eax),%eax
c010869c:	89 04 24             	mov    %eax,(%esp)
c010869f:	e8 d0 26 00 00       	call   c010ad74 <vfsr_closeFile>
c01086a4:	8b 45 f4             	mov    -0xc(%ebp),%eax
c01086a7:	c6 00 00             	movb   $0x0,(%eax)
c01086aa:	c9                   	leave  
c01086ab:	c3                   	ret    

c01086ac <vfs_createService>:
c01086ac:	55                   	push   %ebp
c01086ad:	89 e5                	mov    %esp,%ebp
c01086af:	83 ec 38             	sub    $0x38,%esp
c01086b2:	8b 45 08             	mov    0x8(%ebp),%eax
c01086b5:	8b 55 10             	mov    0x10(%ebp),%edx
c01086b8:	66 89 45 ec          	mov    %ax,-0x14(%ebp)
c01086bc:	88 55 e8             	mov    %dl,-0x18(%ebp)
c01086bf:	c7 45 f0 e0 21 17 c0 	movl   $0xc01721e0,-0x10(%ebp)
c01086c6:	8b 45 f0             	mov    -0x10(%ebp),%eax
c01086c9:	8b 40 14             	mov    0x14(%eax),%eax
c01086cc:	89 45 f4             	mov    %eax,-0xc(%ebp)
c01086cf:	83 7d 0c 00          	cmpl   $0x0,0xc(%ebp)
c01086d3:	75 24                	jne    c01086f9 <vfs_createService+0x4d>
c01086d5:	c7 44 24 0c 9a 01 00 	movl   $0x19a,0xc(%esp)
c01086dc:	00 
c01086dd:	c7 44 24 08 94 d8 16 	movl   $0xc016d894,0x8(%esp)
c01086e4:	c0 
c01086e5:	c7 44 24 04 b0 d7 16 	movl   $0xc016d7b0,0x4(%esp)
c01086ec:	c0 
c01086ed:	c7 04 24 a8 d8 16 c0 	movl   $0xc016d8a8,(%esp)
c01086f4:	e8 e7 f2 ff ff       	call   c01079e0 <panic>
c01086f9:	8b 45 0c             	mov    0xc(%ebp),%eax
c01086fc:	89 04 24             	mov    %eax,(%esp)
c01086ff:	e8 05 44 00 00       	call   c010cb09 <strlen>
c0108704:	89 45 f8             	mov    %eax,-0x8(%ebp)
c0108707:	83 7d f8 00          	cmpl   $0x0,-0x8(%ebp)
c010870b:	74 0f                	je     c010871c <vfs_createService+0x70>
c010870d:	8b 45 0c             	mov    0xc(%ebp),%eax
c0108710:	89 04 24             	mov    %eax,(%esp)
c0108713:	e8 96 44 00 00       	call   c010cbae <isalnumstr>
c0108718:	85 c0                	test   %eax,%eax
c010871a:	75 5d                	jne    c0108779 <vfs_createService+0xcd>
c010871c:	c7 45 e4 f6 ff ff ff 	movl   $0xfffffff6,-0x1c(%ebp)
c0108723:	e9 34 01 00 00       	jmp    c010885c <vfs_createService+0x1b0>
c0108728:	8b 45 f4             	mov    -0xc(%ebp),%eax
c010872b:	8b 10                	mov    (%eax),%edx
c010872d:	8b 45 0c             	mov    0xc(%ebp),%eax
c0108730:	89 44 24 04          	mov    %eax,0x4(%esp)
c0108734:	89 14 24             	mov    %edx,(%esp)
c0108737:	e8 cf 3e 00 00       	call   c010c60b <strcmp>
c010873c:	85 c0                	test   %eax,%eax
c010873e:	75 0c                	jne    c010874c <vfs_createService+0xa0>
c0108740:	c7 45 e4 f4 ff ff ff 	movl   $0xfffffff4,-0x1c(%ebp)
c0108747:	e9 10 01 00 00       	jmp    c010885c <vfs_createService+0x1b0>
c010874c:	8b 45 f4             	mov    -0xc(%ebp),%eax
c010874f:	0f b6 40 04          	movzbl 0x4(%eax),%eax
c0108753:	3c 03                	cmp    $0x3,%al
c0108755:	75 19                	jne    c0108770 <vfs_createService+0xc4>
c0108757:	8b 45 f4             	mov    -0xc(%ebp),%eax
c010875a:	0f b7 40 20          	movzwl 0x20(%eax),%eax
c010875e:	66 3b 45 ec          	cmp    -0x14(%ebp),%ax
c0108762:	75 0c                	jne    c0108770 <vfs_createService+0xc4>
c0108764:	c7 45 e4 f3 ff ff ff 	movl   $0xfffffff3,-0x1c(%ebp)
c010876b:	e9 ec 00 00 00       	jmp    c010885c <vfs_createService+0x1b0>
c0108770:	8b 45 f4             	mov    -0xc(%ebp),%eax
c0108773:	8b 40 10             	mov    0x10(%eax),%eax
c0108776:	89 45 f4             	mov    %eax,-0xc(%ebp)
c0108779:	83 7d f4 00          	cmpl   $0x0,-0xc(%ebp)
c010877d:	75 a9                	jne    c0108728 <vfs_createService+0x7c>
c010877f:	8b 45 f8             	mov    -0x8(%ebp),%eax
c0108782:	83 c0 01             	add    $0x1,%eax
c0108785:	89 04 24             	mov    %eax,(%esp)
c0108788:	e8 e7 94 ff ff       	call   c0101c74 <kheap_alloc>
c010878d:	89 45 fc             	mov    %eax,-0x4(%ebp)
c0108790:	83 7d fc 00          	cmpl   $0x0,-0x4(%ebp)
c0108794:	75 0c                	jne    c01087a2 <vfs_createService+0xf6>
c0108796:	c7 45 e4 f5 ff ff ff 	movl   $0xfffffff5,-0x1c(%ebp)
c010879d:	e9 ba 00 00 00       	jmp    c010885c <vfs_createService+0x1b0>
c01087a2:	8b 45 f8             	mov    -0x8(%ebp),%eax
c01087a5:	89 44 24 08          	mov    %eax,0x8(%esp)
c01087a9:	8b 45 0c             	mov    0xc(%ebp),%eax
c01087ac:	89 44 24 04          	mov    %eax,0x4(%esp)
c01087b0:	8b 45 fc             	mov    -0x4(%ebp),%eax
c01087b3:	89 04 24             	mov    %eax,(%esp)
c01087b6:	e8 6c 3c 00 00       	call   c010c427 <strncpy>
c01087bb:	0f b6 45 e8          	movzbl -0x18(%ebp),%eax
c01087bf:	0f b7 55 ec          	movzwl -0x14(%ebp),%edx
c01087c3:	89 44 24 0c          	mov    %eax,0xc(%esp)
c01087c7:	8b 45 fc             	mov    -0x4(%ebp),%eax
c01087ca:	89 44 24 08          	mov    %eax,0x8(%esp)
c01087ce:	8b 45 f0             	mov    -0x10(%ebp),%eax
c01087d1:	89 44 24 04          	mov    %eax,0x4(%esp)
c01087d5:	89 14 24             	mov    %edx,(%esp)
c01087d8:	e8 9c 18 00 00       	call   c010a079 <vfsn_createServiceNode>
c01087dd:	89 45 f4             	mov    %eax,-0xc(%ebp)
c01087e0:	83 7d f4 00          	cmpl   $0x0,-0xc(%ebp)
c01087e4:	74 64                	je     c010884a <vfs_createService+0x19e>
c01087e6:	c7 44 24 04 d8 d8 16 	movl   $0xc016d8d8,0x4(%esp)
c01087ed:	c0 
c01087ee:	8b 45 0c             	mov    0xc(%ebp),%eax
c01087f1:	89 04 24             	mov    %eax,(%esp)
c01087f4:	e8 12 3e 00 00       	call   c010c60b <strcmp>
c01087f9:	85 c0                	test   %eax,%eax
c01087fb:	75 28                	jne    c0108825 <vfs_createService+0x179>
c01087fd:	8b 55 f4             	mov    -0xc(%ebp),%edx
c0108800:	b8 00 20 17 c0       	mov    $0xc0172000,%eax
c0108805:	29 c2                	sub    %eax,%edx
c0108807:	c7 45 e0 ab aa aa aa 	movl   $0xaaaaaaab,-0x20(%ebp)
c010880e:	8b 45 e0             	mov    -0x20(%ebp),%eax
c0108811:	f7 e2                	mul    %edx
c0108813:	89 d0                	mov    %edx,%eax
c0108815:	c1 e8 05             	shr    $0x5,%eax
c0108818:	0d 00 00 00 40       	or     $0x40000000,%eax
c010881d:	89 04 24             	mov    %eax,(%esp)
c0108820:	e8 03 1f 00 00       	call   c010a728 <vfsr_setFSService>
c0108825:	8b 55 f4             	mov    -0xc(%ebp),%edx
c0108828:	b8 00 20 17 c0       	mov    $0xc0172000,%eax
c010882d:	29 c2                	sub    %eax,%edx
c010882f:	c7 45 e0 ab aa aa aa 	movl   $0xaaaaaaab,-0x20(%ebp)
c0108836:	8b 45 e0             	mov    -0x20(%ebp),%eax
c0108839:	f7 e2                	mul    %edx
c010883b:	89 d0                	mov    %edx,%eax
c010883d:	c1 e8 05             	shr    $0x5,%eax
c0108840:	0d 00 00 00 40       	or     $0x40000000,%eax
c0108845:	89 45 e4             	mov    %eax,-0x1c(%ebp)
c0108848:	eb 12                	jmp    c010885c <vfs_createService+0x1b0>
c010884a:	8b 45 fc             	mov    -0x4(%ebp),%eax
c010884d:	89 04 24             	mov    %eax,(%esp)
c0108850:	e8 76 95 ff ff       	call   c0101dcb <kheap_free>
c0108855:	c7 45 e4 f5 ff ff ff 	movl   $0xfffffff5,-0x1c(%ebp)
c010885c:	8b 45 e4             	mov    -0x1c(%ebp),%eax
c010885f:	c9                   	leave  
c0108860:	c3                   	ret    

c0108861 <vfs_msgAvailableFor>:
c0108861:	55                   	push   %ebp
c0108862:	89 e5                	mov    %esp,%ebp
c0108864:	83 ec 38             	sub    $0x38,%esp
c0108867:	8b 45 08             	mov    0x8(%ebp),%eax
c010886a:	66 89 45 dc          	mov    %ax,-0x24(%ebp)
c010886e:	c7 45 e4 e0 21 17 c0 	movl   $0xc01721e0,-0x1c(%ebp)
c0108875:	0f b7 45 dc          	movzwl -0x24(%ebp),%eax
c0108879:	89 04 24             	mov    %eax,(%esp)
c010887c:	e8 02 c6 ff ff       	call   c0104e83 <proc_getByPid>
c0108881:	89 45 e8             	mov    %eax,-0x18(%ebp)
c0108884:	c7 45 ec 00 00 00 00 	movl   $0x0,-0x14(%ebp)
c010888b:	c7 45 f0 00 00 00 00 	movl   $0x0,-0x10(%ebp)
c0108892:	8b 45 e4             	mov    -0x1c(%ebp),%eax
c0108895:	0f b6 40 04          	movzbl 0x4(%eax),%eax
c0108899:	3c 01                	cmp    $0x1,%al
c010889b:	74 0b                	je     c01088a8 <vfs_msgAvailableFor+0x47>
c010889d:	8b 45 e4             	mov    -0x1c(%ebp),%eax
c01088a0:	8b 40 14             	mov    0x14(%eax),%eax
c01088a3:	89 45 d4             	mov    %eax,-0x2c(%ebp)
c01088a6:	eb 0c                	jmp    c01088b4 <vfs_msgAvailableFor+0x53>
c01088a8:	8b 45 e4             	mov    -0x1c(%ebp),%eax
c01088ab:	8b 40 28             	mov    0x28(%eax),%eax
c01088ae:	8b 40 14             	mov    0x14(%eax),%eax
c01088b1:	89 45 d4             	mov    %eax,-0x2c(%ebp)
c01088b4:	8b 45 d4             	mov    -0x2c(%ebp),%eax
c01088b7:	89 45 e4             	mov    %eax,-0x1c(%ebp)
c01088ba:	eb 1f                	jmp    c01088db <vfs_msgAvailableFor+0x7a>
c01088bc:	8b 45 e4             	mov    -0x1c(%ebp),%eax
c01088bf:	0f b7 40 20          	movzwl 0x20(%eax),%eax
c01088c3:	66 3b 45 dc          	cmp    -0x24(%ebp),%ax
c01088c7:	75 09                	jne    c01088d2 <vfs_msgAvailableFor+0x71>
c01088c9:	c7 45 ec 01 00 00 00 	movl   $0x1,-0x14(%ebp)
c01088d0:	eb 0f                	jmp    c01088e1 <vfs_msgAvailableFor+0x80>
c01088d2:	8b 45 e4             	mov    -0x1c(%ebp),%eax
c01088d5:	8b 40 10             	mov    0x10(%eax),%eax
c01088d8:	89 45 e4             	mov    %eax,-0x1c(%ebp)
c01088db:	83 7d e4 00          	cmpl   $0x0,-0x1c(%ebp)
c01088df:	75 db                	jne    c01088bc <vfs_msgAvailableFor+0x5b>
c01088e1:	83 7d e4 00          	cmpl   $0x0,-0x1c(%ebp)
c01088e5:	74 4e                	je     c0108935 <vfs_msgAvailableFor+0xd4>
c01088e7:	8b 55 e4             	mov    -0x1c(%ebp),%edx
c01088ea:	b8 00 20 17 c0       	mov    $0xc0172000,%eax
c01088ef:	29 c2                	sub    %eax,%edx
c01088f1:	c7 45 d0 ab aa aa aa 	movl   $0xaaaaaaab,-0x30(%ebp)
c01088f8:	8b 45 d0             	mov    -0x30(%ebp),%eax
c01088fb:	f7 e2                	mul    %edx
c01088fd:	89 d0                	mov    %edx,%eax
c01088ff:	c1 e8 05             	shr    $0x5,%eax
c0108902:	0d 00 00 00 40       	or     $0x40000000,%eax
c0108907:	0f b7 55 dc          	movzwl -0x24(%ebp),%edx
c010890b:	89 44 24 04          	mov    %eax,0x4(%esp)
c010890f:	89 14 24             	mov    %edx,(%esp)
c0108912:	e8 dc 00 00 00       	call   c01089f3 <vfs_getClient>
c0108917:	89 45 f8             	mov    %eax,-0x8(%ebp)
c010891a:	8b 45 f8             	mov    -0x8(%ebp),%eax
c010891d:	89 04 24             	mov    %eax,(%esp)
c0108920:	e8 22 10 00 00       	call   c0109947 <vfsn_isValidNodeNo>
c0108925:	85 c0                	test   %eax,%eax
c0108927:	74 0c                	je     c0108935 <vfs_msgAvailableFor+0xd4>
c0108929:	c7 45 d8 01 00 00 00 	movl   $0x1,-0x28(%ebp)
c0108930:	e9 b9 00 00 00       	jmp    c01089ee <vfs_msgAvailableFor+0x18d>
c0108935:	66 c7 45 f6 00 00    	movw   $0x0,-0xa(%ebp)
c010893b:	e9 9c 00 00 00       	jmp    c01089dc <vfs_msgAvailableFor+0x17b>
c0108940:	0f b7 45 f6          	movzwl -0xa(%ebp),%eax
c0108944:	8b 55 e8             	mov    -0x18(%ebp),%edx
c0108947:	83 c0 08             	add    $0x8,%eax
c010894a:	8b 44 82 0c          	mov    0xc(%edx,%eax,4),%eax
c010894e:	83 f8 ff             	cmp    $0xffffffff,%eax
c0108951:	0f 84 80 00 00 00    	je     c01089d7 <vfs_msgAvailableFor+0x176>
c0108957:	0f b7 45 f6          	movzwl -0xa(%ebp),%eax
c010895b:	8b 55 e8             	mov    -0x18(%ebp),%edx
c010895e:	83 c0 08             	add    $0x8,%eax
c0108961:	8b 44 82 0c          	mov    0xc(%edx,%eax,4),%eax
c0108965:	c1 e0 04             	shl    $0x4,%eax
c0108968:	05 40 d9 1f c0       	add    $0xc01fd940,%eax
c010896d:	89 45 fc             	mov    %eax,-0x4(%ebp)
c0108970:	8b 45 fc             	mov    -0x4(%ebp),%eax
c0108973:	8b 40 0c             	mov    0xc(%eax),%eax
c0108976:	25 00 00 00 40       	and    $0x40000000,%eax
c010897b:	85 c0                	test   %eax,%eax
c010897d:	74 58                	je     c01089d7 <vfs_msgAvailableFor+0x176>
c010897f:	8b 45 fc             	mov    -0x4(%ebp),%eax
c0108982:	8b 40 0c             	mov    0xc(%eax),%eax
c0108985:	89 04 24             	mov    %eax,(%esp)
c0108988:	e8 4e 10 00 00       	call   c01099db <vfsn_getNode>
c010898d:	89 45 e4             	mov    %eax,-0x1c(%ebp)
c0108990:	8b 45 e4             	mov    -0x1c(%ebp),%eax
c0108993:	0f b6 40 04          	movzbl 0x4(%eax),%eax
c0108997:	3c 04                	cmp    $0x4,%al
c0108999:	75 3c                	jne    c01089d7 <vfs_msgAvailableFor+0x176>
c010899b:	8b 45 e4             	mov    -0x1c(%ebp),%eax
c010899e:	8b 40 08             	mov    0x8(%eax),%eax
c01089a1:	0f b7 40 20          	movzwl 0x20(%eax),%eax
c01089a5:	66 3b 45 dc          	cmp    -0x24(%ebp),%ax
c01089a9:	74 2c                	je     c01089d7 <vfs_msgAvailableFor+0x176>
c01089ab:	c7 45 f0 01 00 00 00 	movl   $0x1,-0x10(%ebp)
c01089b2:	8b 45 e4             	mov    -0x1c(%ebp),%eax
c01089b5:	8b 40 2c             	mov    0x2c(%eax),%eax
c01089b8:	85 c0                	test   %eax,%eax
c01089ba:	74 1b                	je     c01089d7 <vfs_msgAvailableFor+0x176>
c01089bc:	8b 45 e4             	mov    -0x1c(%ebp),%eax
c01089bf:	8b 40 2c             	mov    0x2c(%eax),%eax
c01089c2:	89 04 24             	mov    %eax,(%esp)
c01089c5:	e8 93 2f 00 00       	call   c010b95d <sll_length>
c01089ca:	85 c0                	test   %eax,%eax
c01089cc:	74 09                	je     c01089d7 <vfs_msgAvailableFor+0x176>
c01089ce:	c7 45 d8 01 00 00 00 	movl   $0x1,-0x28(%ebp)
c01089d5:	eb 17                	jmp    c01089ee <vfs_msgAvailableFor+0x18d>
c01089d7:	66 83 45 f6 01       	addw   $0x1,-0xa(%ebp)
c01089dc:	66 83 7d f6 0f       	cmpw   $0xf,-0xa(%ebp)
c01089e1:	0f 86 59 ff ff ff    	jbe    c0108940 <vfs_msgAvailableFor+0xdf>
c01089e7:	c7 45 d8 00 00 00 00 	movl   $0x0,-0x28(%ebp)
c01089ee:	8b 45 d8             	mov    -0x28(%ebp),%eax
c01089f1:	c9                   	leave  
c01089f2:	c3                   	ret    

c01089f3 <vfs_getClient>:
c01089f3:	55                   	push   %ebp
c01089f4:	89 e5                	mov    %esp,%ebp
c01089f6:	83 ec 28             	sub    $0x28,%esp
c01089f9:	8b 45 08             	mov    0x8(%ebp),%eax
c01089fc:	66 89 45 ec          	mov    %ax,-0x14(%ebp)
c0108a00:	8b 55 0c             	mov    0xc(%ebp),%edx
c0108a03:	89 d0                	mov    %edx,%eax
c0108a05:	01 c0                	add    %eax,%eax
c0108a07:	01 d0                	add    %edx,%eax
c0108a09:	c1 e0 04             	shl    $0x4,%eax
c0108a0c:	05 00 20 17 c0       	add    $0xc0172000,%eax
c0108a11:	89 45 fc             	mov    %eax,-0x4(%ebp)
c0108a14:	8b 45 fc             	mov    -0x4(%ebp),%eax
c0108a17:	0f b7 40 20          	movzwl 0x20(%eax),%eax
c0108a1b:	66 3b 45 ec          	cmp    -0x14(%ebp),%ax
c0108a1f:	75 0b                	jne    c0108a2c <vfs_getClient+0x39>
c0108a21:	8b 45 fc             	mov    -0x4(%ebp),%eax
c0108a24:	0f b6 40 04          	movzbl 0x4(%eax),%eax
c0108a28:	3c 03                	cmp    $0x3,%al
c0108a2a:	74 0c                	je     c0108a38 <vfs_getClient+0x45>
c0108a2c:	c7 45 e4 f0 ff ff ff 	movl   $0xfffffff0,-0x1c(%ebp)
c0108a33:	e9 87 00 00 00       	jmp    c0108abf <vfs_getClient+0xcc>
c0108a38:	8b 45 fc             	mov    -0x4(%ebp),%eax
c0108a3b:	0f b6 40 04          	movzbl 0x4(%eax),%eax
c0108a3f:	3c 01                	cmp    $0x1,%al
c0108a41:	74 0b                	je     c0108a4e <vfs_getClient+0x5b>
c0108a43:	8b 45 fc             	mov    -0x4(%ebp),%eax
c0108a46:	8b 40 14             	mov    0x14(%eax),%eax
c0108a49:	89 45 e8             	mov    %eax,-0x18(%ebp)
c0108a4c:	eb 0c                	jmp    c0108a5a <vfs_getClient+0x67>
c0108a4e:	8b 45 fc             	mov    -0x4(%ebp),%eax
c0108a51:	8b 40 28             	mov    0x28(%eax),%eax
c0108a54:	8b 40 14             	mov    0x14(%eax),%eax
c0108a57:	89 45 e8             	mov    %eax,-0x18(%ebp)
c0108a5a:	8b 45 e8             	mov    -0x18(%ebp),%eax
c0108a5d:	89 45 f8             	mov    %eax,-0x8(%ebp)
c0108a60:	eb 25                	jmp    c0108a87 <vfs_getClient+0x94>
c0108a62:	8b 45 f8             	mov    -0x8(%ebp),%eax
c0108a65:	8b 40 28             	mov    0x28(%eax),%eax
c0108a68:	85 c0                	test   %eax,%eax
c0108a6a:	74 12                	je     c0108a7e <vfs_getClient+0x8b>
c0108a6c:	8b 45 f8             	mov    -0x8(%ebp),%eax
c0108a6f:	8b 40 28             	mov    0x28(%eax),%eax
c0108a72:	89 04 24             	mov    %eax,(%esp)
c0108a75:	e8 e3 2e 00 00       	call   c010b95d <sll_length>
c0108a7a:	85 c0                	test   %eax,%eax
c0108a7c:	75 0f                	jne    c0108a8d <vfs_getClient+0x9a>
c0108a7e:	8b 45 f8             	mov    -0x8(%ebp),%eax
c0108a81:	8b 40 10             	mov    0x10(%eax),%eax
c0108a84:	89 45 f8             	mov    %eax,-0x8(%ebp)
c0108a87:	83 7d f8 00          	cmpl   $0x0,-0x8(%ebp)
c0108a8b:	75 d5                	jne    c0108a62 <vfs_getClient+0x6f>
c0108a8d:	83 7d f8 00          	cmpl   $0x0,-0x8(%ebp)
c0108a91:	75 09                	jne    c0108a9c <vfs_getClient+0xa9>
c0108a93:	c7 45 e4 ea ff ff ff 	movl   $0xffffffea,-0x1c(%ebp)
c0108a9a:	eb 23                	jmp    c0108abf <vfs_getClient+0xcc>
c0108a9c:	8b 55 f8             	mov    -0x8(%ebp),%edx
c0108a9f:	b8 00 20 17 c0       	mov    $0xc0172000,%eax
c0108aa4:	29 c2                	sub    %eax,%edx
c0108aa6:	c7 45 e0 ab aa aa aa 	movl   $0xaaaaaaab,-0x20(%ebp)
c0108aad:	8b 45 e0             	mov    -0x20(%ebp),%eax
c0108ab0:	f7 e2                	mul    %edx
c0108ab2:	89 d0                	mov    %edx,%eax
c0108ab4:	c1 e8 05             	shr    $0x5,%eax
c0108ab7:	0d 00 00 00 40       	or     $0x40000000,%eax
c0108abc:	89 45 e4             	mov    %eax,-0x1c(%ebp)
c0108abf:	8b 45 e4             	mov    -0x1c(%ebp),%eax
c0108ac2:	c9                   	leave  
c0108ac3:	c3                   	ret    

c0108ac4 <vfs_openClient>:
c0108ac4:	55                   	push   %ebp
c0108ac5:	89 e5                	mov    %esp,%ebp
c0108ac7:	83 ec 28             	sub    $0x28,%esp
c0108aca:	8b 45 08             	mov    0x8(%ebp),%eax
c0108acd:	66 89 45 ec          	mov    %ax,-0x14(%ebp)
c0108ad1:	0f b7 55 ec          	movzwl -0x14(%ebp),%edx
c0108ad5:	8b 45 0c             	mov    0xc(%ebp),%eax
c0108ad8:	89 44 24 04          	mov    %eax,0x4(%esp)
c0108adc:	89 14 24             	mov    %edx,(%esp)
c0108adf:	e8 0f ff ff ff       	call   c01089f3 <vfs_getClient>
c0108ae4:	89 45 fc             	mov    %eax,-0x4(%ebp)
c0108ae7:	8b 45 fc             	mov    -0x4(%ebp),%eax
c0108aea:	89 04 24             	mov    %eax,(%esp)
c0108aed:	e8 55 0e 00 00       	call   c0109947 <vfsn_isValidNodeNo>
c0108af2:	85 c0                	test   %eax,%eax
c0108af4:	75 08                	jne    c0108afe <vfs_openClient+0x3a>
c0108af6:	8b 45 fc             	mov    -0x4(%ebp),%eax
c0108af9:	89 45 e8             	mov    %eax,-0x18(%ebp)
c0108afc:	eb 1e                	jmp    c0108b1c <vfs_openClient+0x58>
c0108afe:	0f b7 45 ec          	movzwl -0x14(%ebp),%eax
c0108b02:	8b 55 fc             	mov    -0x4(%ebp),%edx
c0108b05:	89 54 24 08          	mov    %edx,0x8(%esp)
c0108b09:	c7 44 24 04 03 00 00 	movl   $0x3,0x4(%esp)
c0108b10:	00 
c0108b11:	89 04 24             	mov    %eax,(%esp)
c0108b14:	e8 65 f3 ff ff       	call   c0107e7e <vfs_openFile>
c0108b19:	89 45 e8             	mov    %eax,-0x18(%ebp)
c0108b1c:	8b 45 e8             	mov    -0x18(%ebp),%eax
c0108b1f:	c9                   	leave  
c0108b20:	c3                   	ret    

c0108b21 <vfs_removeService>:
c0108b21:	55                   	push   %ebp
c0108b22:	89 e5                	mov    %esp,%ebp
c0108b24:	83 ec 38             	sub    $0x38,%esp
c0108b27:	8b 45 08             	mov    0x8(%ebp),%eax
c0108b2a:	66 89 45 ec          	mov    %ax,-0x14(%ebp)
c0108b2e:	c7 45 f0 e0 21 17 c0 	movl   $0xc01721e0,-0x10(%ebp)
c0108b35:	8b 55 0c             	mov    0xc(%ebp),%edx
c0108b38:	89 d0                	mov    %edx,%eax
c0108b3a:	01 c0                	add    %eax,%eax
c0108b3c:	01 d0                	add    %edx,%eax
c0108b3e:	c1 e0 04             	shl    $0x4,%eax
c0108b41:	05 00 20 17 c0       	add    $0xc0172000,%eax
c0108b46:	89 45 fc             	mov    %eax,-0x4(%ebp)
c0108b49:	8b 45 0c             	mov    0xc(%ebp),%eax
c0108b4c:	89 04 24             	mov    %eax,(%esp)
c0108b4f:	e8 f3 0d 00 00       	call   c0109947 <vfsn_isValidNodeNo>
c0108b54:	85 c0                	test   %eax,%eax
c0108b56:	75 2b                	jne    c0108b83 <vfs_removeService+0x62>
c0108b58:	8b 45 0c             	mov    0xc(%ebp),%eax
c0108b5b:	89 44 24 10          	mov    %eax,0x10(%esp)
c0108b5f:	c7 44 24 0c 0f 02 00 	movl   $0x20f,0xc(%esp)
c0108b66:	00 
c0108b67:	c7 44 24 08 db d8 16 	movl   $0xc016d8db,0x8(%esp)
c0108b6e:	c0 
c0108b6f:	c7 44 24 04 b0 d7 16 	movl   $0xc016d7b0,0x4(%esp)
c0108b76:	c0 
c0108b77:	c7 04 24 f0 d8 16 c0 	movl   $0xc016d8f0,(%esp)
c0108b7e:	e8 5d ee ff ff       	call   c01079e0 <panic>
c0108b83:	8b 45 fc             	mov    -0x4(%ebp),%eax
c0108b86:	0f b7 40 20          	movzwl 0x20(%eax),%eax
c0108b8a:	66 3b 45 ec          	cmp    -0x14(%ebp),%ax
c0108b8e:	75 0b                	jne    c0108b9b <vfs_removeService+0x7a>
c0108b90:	8b 45 fc             	mov    -0x4(%ebp),%eax
c0108b93:	0f b6 40 04          	movzbl 0x4(%eax),%eax
c0108b97:	3c 03                	cmp    $0x3,%al
c0108b99:	74 0c                	je     c0108ba7 <vfs_removeService+0x86>
c0108b9b:	c7 45 e4 f0 ff ff ff 	movl   $0xfffffff0,-0x1c(%ebp)
c0108ba2:	e9 f0 00 00 00       	jmp    c0108c97 <vfs_removeService+0x176>
c0108ba7:	8b 45 fc             	mov    -0x4(%ebp),%eax
c0108baa:	0f b6 40 04          	movzbl 0x4(%eax),%eax
c0108bae:	3c 01                	cmp    $0x1,%al
c0108bb0:	74 0b                	je     c0108bbd <vfs_removeService+0x9c>
c0108bb2:	8b 45 fc             	mov    -0x4(%ebp),%eax
c0108bb5:	8b 40 14             	mov    0x14(%eax),%eax
c0108bb8:	89 45 e8             	mov    %eax,-0x18(%ebp)
c0108bbb:	eb 0c                	jmp    c0108bc9 <vfs_removeService+0xa8>
c0108bbd:	8b 45 fc             	mov    -0x4(%ebp),%eax
c0108bc0:	8b 40 28             	mov    0x28(%eax),%eax
c0108bc3:	8b 40 14             	mov    0x14(%eax),%eax
c0108bc6:	89 45 e8             	mov    %eax,-0x18(%ebp)
c0108bc9:	8b 45 e8             	mov    -0x18(%ebp),%eax
c0108bcc:	89 45 f4             	mov    %eax,-0xc(%ebp)
c0108bcf:	e9 93 00 00 00       	jmp    c0108c67 <vfs_removeService+0x146>
c0108bd4:	8b 45 f4             	mov    -0xc(%ebp),%eax
c0108bd7:	8b 40 10             	mov    0x10(%eax),%eax
c0108bda:	89 45 f8             	mov    %eax,-0x8(%ebp)
c0108bdd:	8b 45 fc             	mov    -0x4(%ebp),%eax
c0108be0:	0f b6 40 05          	movzbl 0x5(%eax),%eax
c0108be4:	0f b6 c0             	movzbl %al,%eax
c0108be7:	83 e0 04             	and    $0x4,%eax
c0108bea:	85 c0                	test   %eax,%eax
c0108bec:	75 0d                	jne    c0108bfb <vfs_removeService+0xda>
c0108bee:	8b 45 f4             	mov    -0xc(%ebp),%eax
c0108bf1:	8b 00                	mov    (%eax),%eax
c0108bf3:	89 04 24             	mov    %eax,(%esp)
c0108bf6:	e8 d0 91 ff ff       	call   c0101dcb <kheap_free>
c0108bfb:	8b 45 f4             	mov    -0xc(%ebp),%eax
c0108bfe:	8b 40 2c             	mov    0x2c(%eax),%eax
c0108c01:	85 c0                	test   %eax,%eax
c0108c03:	74 20                	je     c0108c25 <vfs_removeService+0x104>
c0108c05:	8b 45 f4             	mov    -0xc(%ebp),%eax
c0108c08:	8b 40 2c             	mov    0x2c(%eax),%eax
c0108c0b:	c7 44 24 04 01 00 00 	movl   $0x1,0x4(%esp)
c0108c12:	00 
c0108c13:	89 04 24             	mov    %eax,(%esp)
c0108c16:	e8 8d 2c 00 00       	call   c010b8a8 <sll_destroy>
c0108c1b:	8b 45 f4             	mov    -0xc(%ebp),%eax
c0108c1e:	c7 40 2c 00 00 00 00 	movl   $0x0,0x2c(%eax)
c0108c25:	8b 45 f4             	mov    -0xc(%ebp),%eax
c0108c28:	8b 40 28             	mov    0x28(%eax),%eax
c0108c2b:	85 c0                	test   %eax,%eax
c0108c2d:	74 20                	je     c0108c4f <vfs_removeService+0x12e>
c0108c2f:	8b 45 f4             	mov    -0xc(%ebp),%eax
c0108c32:	8b 40 28             	mov    0x28(%eax),%eax
c0108c35:	c7 44 24 04 01 00 00 	movl   $0x1,0x4(%esp)
c0108c3c:	00 
c0108c3d:	89 04 24             	mov    %eax,(%esp)
c0108c40:	e8 63 2c 00 00       	call   c010b8a8 <sll_destroy>
c0108c45:	8b 45 f4             	mov    -0xc(%ebp),%eax
c0108c48:	c7 40 28 00 00 00 00 	movl   $0x0,0x28(%eax)
c0108c4f:	8b 45 f4             	mov    -0xc(%ebp),%eax
c0108c52:	89 44 24 04          	mov    %eax,0x4(%esp)
c0108c56:	8b 45 fc             	mov    -0x4(%ebp),%eax
c0108c59:	89 04 24             	mov    %eax,(%esp)
c0108c5c:	e8 64 15 00 00       	call   c010a1c5 <vfsn_removeChild>
c0108c61:	8b 45 f8             	mov    -0x8(%ebp),%eax
c0108c64:	89 45 f4             	mov    %eax,-0xc(%ebp)
c0108c67:	83 7d f4 00          	cmpl   $0x0,-0xc(%ebp)
c0108c6b:	0f 85 63 ff ff ff    	jne    c0108bd4 <vfs_removeService+0xb3>
c0108c71:	8b 45 fc             	mov    -0x4(%ebp),%eax
c0108c74:	8b 00                	mov    (%eax),%eax
c0108c76:	89 04 24             	mov    %eax,(%esp)
c0108c79:	e8 4d 91 ff ff       	call   c0101dcb <kheap_free>
c0108c7e:	8b 45 fc             	mov    -0x4(%ebp),%eax
c0108c81:	89 44 24 04          	mov    %eax,0x4(%esp)
c0108c85:	8b 45 f0             	mov    -0x10(%ebp),%eax
c0108c88:	89 04 24             	mov    %eax,(%esp)
c0108c8b:	e8 35 15 00 00       	call   c010a1c5 <vfsn_removeChild>
c0108c90:	c7 45 e4 00 00 00 00 	movl   $0x0,-0x1c(%ebp)
c0108c97:	8b 45 e4             	mov    -0x1c(%ebp),%eax
c0108c9a:	c9                   	leave  
c0108c9b:	c3                   	ret    

c0108c9c <vfs_createProcess>:
c0108c9c:	55                   	push   %ebp
c0108c9d:	89 e5                	mov    %esp,%ebp
c0108c9f:	83 ec 28             	sub    $0x28,%esp
c0108ca2:	8b 45 08             	mov    0x8(%ebp),%eax
c0108ca5:	66 89 45 ec          	mov    %ax,-0x14(%ebp)
c0108ca9:	c7 45 f8 50 21 17 c0 	movl   $0xc0172150,-0x8(%ebp)
c0108cb0:	8b 45 f8             	mov    -0x8(%ebp),%eax
c0108cb3:	8b 40 14             	mov    0x14(%eax),%eax
c0108cb6:	89 45 fc             	mov    %eax,-0x4(%ebp)
c0108cb9:	c7 04 24 0c 00 00 00 	movl   $0xc,(%esp)
c0108cc0:	e8 af 8f ff ff       	call   c0101c74 <kheap_alloc>
c0108cc5:	89 45 f4             	mov    %eax,-0xc(%ebp)
c0108cc8:	83 7d f4 00          	cmpl   $0x0,-0xc(%ebp)
c0108ccc:	75 0c                	jne    c0108cda <vfs_createProcess+0x3e>
c0108cce:	c7 45 e8 00 00 00 00 	movl   $0x0,-0x18(%ebp)
c0108cd5:	e9 af 00 00 00       	jmp    c0108d89 <vfs_createProcess+0xed>
c0108cda:	0f b7 45 ec          	movzwl -0x14(%ebp),%eax
c0108cde:	89 44 24 04          	mov    %eax,0x4(%esp)
c0108ce2:	8b 45 f4             	mov    -0xc(%ebp),%eax
c0108ce5:	89 04 24             	mov    %eax,(%esp)
c0108ce8:	e8 41 33 00 00       	call   c010c02e <itoa>
c0108ced:	eb 35                	jmp    c0108d24 <vfs_createProcess+0x88>
c0108cef:	8b 45 fc             	mov    -0x4(%ebp),%eax
c0108cf2:	8b 10                	mov    (%eax),%edx
c0108cf4:	8b 45 f4             	mov    -0xc(%ebp),%eax
c0108cf7:	89 44 24 04          	mov    %eax,0x4(%esp)
c0108cfb:	89 14 24             	mov    %edx,(%esp)
c0108cfe:	e8 08 39 00 00       	call   c010c60b <strcmp>
c0108d03:	85 c0                	test   %eax,%eax
c0108d05:	75 14                	jne    c0108d1b <vfs_createProcess+0x7f>
c0108d07:	8b 45 f4             	mov    -0xc(%ebp),%eax
c0108d0a:	89 04 24             	mov    %eax,(%esp)
c0108d0d:	e8 b9 90 ff ff       	call   c0101dcb <kheap_free>
c0108d12:	c7 45 e8 00 00 00 00 	movl   $0x0,-0x18(%ebp)
c0108d19:	eb 6e                	jmp    c0108d89 <vfs_createProcess+0xed>
c0108d1b:	8b 45 fc             	mov    -0x4(%ebp),%eax
c0108d1e:	8b 40 10             	mov    0x10(%eax),%eax
c0108d21:	89 45 fc             	mov    %eax,-0x4(%ebp)
c0108d24:	83 7d fc 00          	cmpl   $0x0,-0x4(%ebp)
c0108d28:	75 c5                	jne    c0108cef <vfs_createProcess+0x53>
c0108d2a:	8b 45 0c             	mov    0xc(%ebp),%eax
c0108d2d:	89 44 24 08          	mov    %eax,0x8(%esp)
c0108d31:	8b 45 f4             	mov    -0xc(%ebp),%eax
c0108d34:	89 44 24 04          	mov    %eax,0x4(%esp)
c0108d38:	8b 45 f8             	mov    -0x8(%ebp),%eax
c0108d3b:	89 04 24             	mov    %eax,(%esp)
c0108d3e:	e8 ea 12 00 00       	call   c010a02d <vfsn_createInfo>
c0108d43:	89 45 fc             	mov    %eax,-0x4(%ebp)
c0108d46:	83 7d fc 00          	cmpl   $0x0,-0x4(%ebp)
c0108d4a:	74 2b                	je     c0108d77 <vfs_createProcess+0xdb>
c0108d4c:	8b 45 f8             	mov    -0x8(%ebp),%eax
c0108d4f:	8b 40 28             	mov    0x28(%eax),%eax
c0108d52:	85 c0                	test   %eax,%eax
c0108d54:	74 18                	je     c0108d6e <vfs_createProcess+0xd2>
c0108d56:	8b 45 f8             	mov    -0x8(%ebp),%eax
c0108d59:	8b 40 28             	mov    0x28(%eax),%eax
c0108d5c:	89 04 24             	mov    %eax,(%esp)
c0108d5f:	e8 67 90 ff ff       	call   c0101dcb <kheap_free>
c0108d64:	8b 45 f8             	mov    -0x8(%ebp),%eax
c0108d67:	c7 40 28 00 00 00 00 	movl   $0x0,0x28(%eax)
c0108d6e:	c7 45 e8 01 00 00 00 	movl   $0x1,-0x18(%ebp)
c0108d75:	eb 12                	jmp    c0108d89 <vfs_createProcess+0xed>
c0108d77:	8b 45 f4             	mov    -0xc(%ebp),%eax
c0108d7a:	89 04 24             	mov    %eax,(%esp)
c0108d7d:	e8 49 90 ff ff       	call   c0101dcb <kheap_free>
c0108d82:	c7 45 e8 00 00 00 00 	movl   $0x0,-0x18(%ebp)
c0108d89:	8b 45 e8             	mov    -0x18(%ebp),%eax
c0108d8c:	c9                   	leave  
c0108d8d:	c3                   	ret    

c0108d8e <vfs_removeProcess>:
c0108d8e:	55                   	push   %ebp
c0108d8f:	89 e5                	mov    %esp,%ebp
c0108d91:	83 ec 38             	sub    $0x38,%esp
c0108d94:	8b 45 08             	mov    0x8(%ebp),%eax
c0108d97:	66 89 45 dc          	mov    %ax,-0x24(%ebp)
c0108d9b:	c7 45 f8 50 21 17 c0 	movl   $0xc0172150,-0x8(%ebp)
c0108da2:	0f b7 45 dc          	movzwl -0x24(%ebp),%eax
c0108da6:	89 44 24 04          	mov    %eax,0x4(%esp)
c0108daa:	8d 45 ec             	lea    -0x14(%ebp),%eax
c0108dad:	89 04 24             	mov    %eax,(%esp)
c0108db0:	e8 79 32 00 00       	call   c010c02e <itoa>
c0108db5:	8b 45 f8             	mov    -0x8(%ebp),%eax
c0108db8:	8b 40 14             	mov    0x14(%eax),%eax
c0108dbb:	89 45 fc             	mov    %eax,-0x4(%ebp)
c0108dbe:	eb 42                	jmp    c0108e02 <vfs_removeProcess+0x74>
c0108dc0:	8b 45 fc             	mov    -0x4(%ebp),%eax
c0108dc3:	8b 10                	mov    (%eax),%edx
c0108dc5:	8d 45 ec             	lea    -0x14(%ebp),%eax
c0108dc8:	89 44 24 04          	mov    %eax,0x4(%esp)
c0108dcc:	89 14 24             	mov    %edx,(%esp)
c0108dcf:	e8 37 38 00 00       	call   c010c60b <strcmp>
c0108dd4:	85 c0                	test   %eax,%eax
c0108dd6:	75 21                	jne    c0108df9 <vfs_removeProcess+0x6b>
c0108dd8:	8b 45 fc             	mov    -0x4(%ebp),%eax
c0108ddb:	8b 00                	mov    (%eax),%eax
c0108ddd:	89 04 24             	mov    %eax,(%esp)
c0108de0:	e8 e6 8f ff ff       	call   c0101dcb <kheap_free>
c0108de5:	8b 45 fc             	mov    -0x4(%ebp),%eax
c0108de8:	89 44 24 04          	mov    %eax,0x4(%esp)
c0108dec:	8b 45 f8             	mov    -0x8(%ebp),%eax
c0108def:	89 04 24             	mov    %eax,(%esp)
c0108df2:	e8 ce 13 00 00       	call   c010a1c5 <vfsn_removeChild>
c0108df7:	eb 0f                	jmp    c0108e08 <vfs_removeProcess+0x7a>
c0108df9:	8b 45 fc             	mov    -0x4(%ebp),%eax
c0108dfc:	8b 40 10             	mov    0x10(%eax),%eax
c0108dff:	89 45 fc             	mov    %eax,-0x4(%ebp)
c0108e02:	83 7d fc 00          	cmpl   $0x0,-0x4(%ebp)
c0108e06:	75 b8                	jne    c0108dc0 <vfs_removeProcess+0x32>
c0108e08:	8b 45 f8             	mov    -0x8(%ebp),%eax
c0108e0b:	8b 40 28             	mov    0x28(%eax),%eax
c0108e0e:	85 c0                	test   %eax,%eax
c0108e10:	74 18                	je     c0108e2a <vfs_removeProcess+0x9c>
c0108e12:	8b 45 f8             	mov    -0x8(%ebp),%eax
c0108e15:	8b 40 28             	mov    0x28(%eax),%eax
c0108e18:	89 04 24             	mov    %eax,(%esp)
c0108e1b:	e8 ab 8f ff ff       	call   c0101dcb <kheap_free>
c0108e20:	8b 45 f8             	mov    -0x8(%ebp),%eax
c0108e23:	c7 40 28 00 00 00 00 	movl   $0x0,0x28(%eax)
c0108e2a:	c9                   	leave  
c0108e2b:	c3                   	ret    

c0108e2c <vfs_defReadHandler>:
c0108e2c:	55                   	push   %ebp
c0108e2d:	89 e5                	mov    %esp,%ebp
c0108e2f:	83 ec 38             	sub    $0x38,%esp
c0108e32:	8b 45 08             	mov    0x8(%ebp),%eax
c0108e35:	66 89 45 ec          	mov    %ax,-0x14(%ebp)
c0108e39:	83 7d 0c 00          	cmpl   $0x0,0xc(%ebp)
c0108e3d:	75 24                	jne    c0108e63 <vfs_defReadHandler+0x37>
c0108e3f:	c7 44 24 0c 76 02 00 	movl   $0x276,0xc(%esp)
c0108e46:	00 
c0108e47:	c7 44 24 08 2a d9 16 	movl   $0xc016d92a,0x8(%esp)
c0108e4e:	c0 
c0108e4f:	c7 44 24 04 b0 d7 16 	movl   $0xc016d7b0,0x4(%esp)
c0108e56:	c0 
c0108e57:	c7 04 24 40 d9 16 c0 	movl   $0xc016d940,(%esp)
c0108e5e:	e8 7d eb ff ff       	call   c01079e0 <panic>
c0108e63:	83 7d 10 00          	cmpl   $0x0,0x10(%ebp)
c0108e67:	75 24                	jne    c0108e8d <vfs_defReadHandler+0x61>
c0108e69:	c7 44 24 0c 77 02 00 	movl   $0x277,0xc(%esp)
c0108e70:	00 
c0108e71:	c7 44 24 08 2a d9 16 	movl   $0xc016d92a,0x8(%esp)
c0108e78:	c0 
c0108e79:	c7 44 24 04 b0 d7 16 	movl   $0xc016d7b0,0x4(%esp)
c0108e80:	c0 
c0108e81:	c7 04 24 70 d9 16 c0 	movl   $0xc016d970,(%esp)
c0108e88:	e8 53 eb ff ff       	call   c01079e0 <panic>
c0108e8d:	83 7d 14 00          	cmpl   $0x0,0x14(%ebp)
c0108e91:	75 10                	jne    c0108ea3 <vfs_defReadHandler+0x77>
c0108e93:	8b 45 18             	mov    0x18(%ebp),%eax
c0108e96:	3b 45 1c             	cmp    0x1c(%ebp),%eax
c0108e99:	75 08                	jne    c0108ea3 <vfs_defReadHandler+0x77>
c0108e9b:	8b 45 10             	mov    0x10(%ebp),%eax
c0108e9e:	89 45 fc             	mov    %eax,-0x4(%ebp)
c0108ea1:	eb 34                	jmp    c0108ed7 <vfs_defReadHandler+0xab>
c0108ea3:	8b 45 14             	mov    0x14(%ebp),%eax
c0108ea6:	3b 45 1c             	cmp    0x1c(%ebp),%eax
c0108ea9:	72 0c                	jb     c0108eb7 <vfs_defReadHandler+0x8b>
c0108eab:	c7 45 e8 00 00 00 00 	movl   $0x0,-0x18(%ebp)
c0108eb2:	e9 a9 00 00 00       	jmp    c0108f60 <vfs_defReadHandler+0x134>
c0108eb7:	8b 45 1c             	mov    0x1c(%ebp),%eax
c0108eba:	89 04 24             	mov    %eax,(%esp)
c0108ebd:	e8 b2 8d ff ff       	call   c0101c74 <kheap_alloc>
c0108ec2:	89 45 fc             	mov    %eax,-0x4(%ebp)
c0108ec5:	83 7d fc 00          	cmpl   $0x0,-0x4(%ebp)
c0108ec9:	75 0c                	jne    c0108ed7 <vfs_defReadHandler+0xab>
c0108ecb:	c7 45 e8 00 00 00 00 	movl   $0x0,-0x18(%ebp)
c0108ed2:	e9 89 00 00 00       	jmp    c0108f60 <vfs_defReadHandler+0x134>
c0108ed7:	8b 45 fc             	mov    -0x4(%ebp),%eax
c0108eda:	89 44 24 04          	mov    %eax,0x4(%esp)
c0108ede:	8b 45 0c             	mov    0xc(%ebp),%eax
c0108ee1:	89 04 24             	mov    %eax,(%esp)
c0108ee4:	8b 45 20             	mov    0x20(%ebp),%eax
c0108ee7:	ff d0                	call   *%eax
c0108ee9:	8b 55 fc             	mov    -0x4(%ebp),%edx
c0108eec:	8b 45 10             	mov    0x10(%ebp),%eax
c0108eef:	39 c2                	cmp    %eax,%edx
c0108ef1:	74 67                	je     c0108f5a <vfs_defReadHandler+0x12e>
c0108ef3:	8b 45 14             	mov    0x14(%ebp),%eax
c0108ef6:	3b 45 1c             	cmp    0x1c(%ebp),%eax
c0108ef9:	76 06                	jbe    c0108f01 <vfs_defReadHandler+0xd5>
c0108efb:	8b 45 1c             	mov    0x1c(%ebp),%eax
c0108efe:	89 45 14             	mov    %eax,0x14(%ebp)
c0108f01:	8b 45 14             	mov    0x14(%ebp),%eax
c0108f04:	8b 55 1c             	mov    0x1c(%ebp),%edx
c0108f07:	89 d1                	mov    %edx,%ecx
c0108f09:	29 c1                	sub    %eax,%ecx
c0108f0b:	89 c8                	mov    %ecx,%eax
c0108f0d:	8b 55 18             	mov    0x18(%ebp),%edx
c0108f10:	89 55 e0             	mov    %edx,-0x20(%ebp)
c0108f13:	89 45 e4             	mov    %eax,-0x1c(%ebp)
c0108f16:	8b 4d e0             	mov    -0x20(%ebp),%ecx
c0108f19:	39 4d e4             	cmp    %ecx,-0x1c(%ebp)
c0108f1c:	76 06                	jbe    c0108f24 <vfs_defReadHandler+0xf8>
c0108f1e:	8b 45 e0             	mov    -0x20(%ebp),%eax
c0108f21:	89 45 e4             	mov    %eax,-0x1c(%ebp)
c0108f24:	8b 55 e4             	mov    -0x1c(%ebp),%edx
c0108f27:	89 55 18             	mov    %edx,0x18(%ebp)
c0108f2a:	83 7d 18 00          	cmpl   $0x0,0x18(%ebp)
c0108f2e:	74 1f                	je     c0108f4f <vfs_defReadHandler+0x123>
c0108f30:	8b 55 14             	mov    0x14(%ebp),%edx
c0108f33:	8b 45 fc             	mov    -0x4(%ebp),%eax
c0108f36:	8d 14 10             	lea    (%eax,%edx,1),%edx
c0108f39:	8b 45 18             	mov    0x18(%ebp),%eax
c0108f3c:	89 44 24 08          	mov    %eax,0x8(%esp)
c0108f40:	89 54 24 04          	mov    %edx,0x4(%esp)
c0108f44:	8b 45 10             	mov    0x10(%ebp),%eax
c0108f47:	89 04 24             	mov    %eax,(%esp)
c0108f4a:	e8 48 32 00 00       	call   c010c197 <memcpy>
c0108f4f:	8b 45 fc             	mov    -0x4(%ebp),%eax
c0108f52:	89 04 24             	mov    %eax,(%esp)
c0108f55:	e8 71 8e ff ff       	call   c0101dcb <kheap_free>
c0108f5a:	8b 4d 18             	mov    0x18(%ebp),%ecx
c0108f5d:	89 4d e8             	mov    %ecx,-0x18(%ebp)
c0108f60:	8b 45 e8             	mov    -0x18(%ebp),%eax
c0108f63:	c9                   	leave  
c0108f64:	c3                   	ret    

c0108f65 <vfs_serviceUseReadHandler>:
c0108f65:	55                   	push   %ebp
c0108f66:	89 e5                	mov    %esp,%ebp
c0108f68:	83 ec 38             	sub    $0x38,%esp
c0108f6b:	8b 45 08             	mov    0x8(%ebp),%eax
c0108f6e:	66 89 45 ec          	mov    %ax,-0x14(%ebp)
c0108f72:	8b 45 0c             	mov    0xc(%ebp),%eax
c0108f75:	8b 40 08             	mov    0x8(%eax),%eax
c0108f78:	0f b7 40 20          	movzwl 0x20(%eax),%eax
c0108f7c:	66 3b 45 ec          	cmp    -0x14(%ebp),%ax
c0108f80:	75 0b                	jne    c0108f8d <vfs_serviceUseReadHandler+0x28>
c0108f82:	8b 45 0c             	mov    0xc(%ebp),%eax
c0108f85:	8b 40 28             	mov    0x28(%eax),%eax
c0108f88:	89 45 f8             	mov    %eax,-0x8(%ebp)
c0108f8b:	eb 09                	jmp    c0108f96 <vfs_serviceUseReadHandler+0x31>
c0108f8d:	8b 45 0c             	mov    0xc(%ebp),%eax
c0108f90:	8b 40 2c             	mov    0x2c(%eax),%eax
c0108f93:	89 45 f8             	mov    %eax,-0x8(%ebp)
c0108f96:	83 7d f8 00          	cmpl   $0x0,-0x8(%ebp)
c0108f9a:	74 0f                	je     c0108fab <vfs_serviceUseReadHandler+0x46>
c0108f9c:	8b 45 f8             	mov    -0x8(%ebp),%eax
c0108f9f:	89 04 24             	mov    %eax,(%esp)
c0108fa2:	e8 b6 29 00 00       	call   c010b95d <sll_length>
c0108fa7:	85 c0                	test   %eax,%eax
c0108fa9:	75 0c                	jne    c0108fb7 <vfs_serviceUseReadHandler+0x52>
c0108fab:	c7 45 e8 00 00 00 00 	movl   $0x0,-0x18(%ebp)
c0108fb2:	e9 c1 00 00 00       	jmp    c0109078 <vfs_serviceUseReadHandler+0x113>
c0108fb7:	c7 44 24 04 00 00 00 	movl   $0x0,0x4(%esp)
c0108fbe:	00 
c0108fbf:	8b 45 f8             	mov    -0x8(%ebp),%eax
c0108fc2:	89 04 24             	mov    %eax,(%esp)
c0108fc5:	e8 62 2a 00 00       	call   c010ba2c <sll_get>
c0108fca:	89 45 fc             	mov    %eax,-0x4(%ebp)
c0108fcd:	8b 45 fc             	mov    -0x4(%ebp),%eax
c0108fd0:	8b 00                	mov    (%eax),%eax
c0108fd2:	83 e8 01             	sub    $0x1,%eax
c0108fd5:	8b 55 14             	mov    0x14(%ebp),%edx
c0108fd8:	89 55 e0             	mov    %edx,-0x20(%ebp)
c0108fdb:	89 45 e4             	mov    %eax,-0x1c(%ebp)
c0108fde:	8b 45 e0             	mov    -0x20(%ebp),%eax
c0108fe1:	39 45 e4             	cmp    %eax,-0x1c(%ebp)
c0108fe4:	76 06                	jbe    c0108fec <vfs_serviceUseReadHandler+0x87>
c0108fe6:	8b 55 e0             	mov    -0x20(%ebp),%edx
c0108fe9:	89 55 e4             	mov    %edx,-0x1c(%ebp)
c0108fec:	8b 45 e4             	mov    -0x1c(%ebp),%eax
c0108fef:	89 45 14             	mov    %eax,0x14(%ebp)
c0108ff2:	8b 45 fc             	mov    -0x4(%ebp),%eax
c0108ff5:	8b 00                	mov    (%eax),%eax
c0108ff7:	2b 45 14             	sub    0x14(%ebp),%eax
c0108ffa:	8b 55 18             	mov    0x18(%ebp),%edx
c0108ffd:	89 55 d8             	mov    %edx,-0x28(%ebp)
c0109000:	89 45 dc             	mov    %eax,-0x24(%ebp)
c0109003:	8b 45 d8             	mov    -0x28(%ebp),%eax
c0109006:	39 45 dc             	cmp    %eax,-0x24(%ebp)
c0109009:	76 06                	jbe    c0109011 <vfs_serviceUseReadHandler+0xac>
c010900b:	8b 55 d8             	mov    -0x28(%ebp),%edx
c010900e:	89 55 dc             	mov    %edx,-0x24(%ebp)
c0109011:	8b 45 dc             	mov    -0x24(%ebp),%eax
c0109014:	89 45 18             	mov    %eax,0x18(%ebp)
c0109017:	8b 45 14             	mov    0x14(%ebp),%eax
c010901a:	83 c0 04             	add    $0x4,%eax
c010901d:	89 c2                	mov    %eax,%edx
c010901f:	03 55 fc             	add    -0x4(%ebp),%edx
c0109022:	8b 45 18             	mov    0x18(%ebp),%eax
c0109025:	89 44 24 08          	mov    %eax,0x8(%esp)
c0109029:	89 54 24 04          	mov    %edx,0x4(%esp)
c010902d:	8b 45 10             	mov    0x10(%ebp),%eax
c0109030:	89 04 24             	mov    %eax,(%esp)
c0109033:	e8 5f 31 00 00       	call   c010c197 <memcpy>
c0109038:	8b 55 18             	mov    0x18(%ebp),%edx
c010903b:	8b 45 14             	mov    0x14(%ebp),%eax
c010903e:	8d 14 10             	lea    (%eax,%edx,1),%edx
c0109041:	8b 45 fc             	mov    -0x4(%ebp),%eax
c0109044:	8b 00                	mov    (%eax),%eax
c0109046:	39 c2                	cmp    %eax,%edx
c0109048:	72 28                	jb     c0109072 <vfs_serviceUseReadHandler+0x10d>
c010904a:	8b 45 fc             	mov    -0x4(%ebp),%eax
c010904d:	89 04 24             	mov    %eax,(%esp)
c0109050:	e8 76 8d ff ff       	call   c0101dcb <kheap_free>
c0109055:	c7 44 24 04 00 00 00 	movl   $0x0,0x4(%esp)
c010905c:	00 
c010905d:	8b 45 f8             	mov    -0x8(%ebp),%eax
c0109060:	89 04 24             	mov    %eax,(%esp)
c0109063:	e8 22 2d 00 00       	call   c010bd8a <sll_removeIndex>
c0109068:	8b 45 18             	mov    0x18(%ebp),%eax
c010906b:	f7 d8                	neg    %eax
c010906d:	89 45 e8             	mov    %eax,-0x18(%ebp)
c0109070:	eb 06                	jmp    c0109078 <vfs_serviceUseReadHandler+0x113>
c0109072:	8b 55 18             	mov    0x18(%ebp),%edx
c0109075:	89 55 e8             	mov    %edx,-0x18(%ebp)
c0109078:	8b 45 e8             	mov    -0x18(%ebp),%eax
c010907b:	c9                   	leave  
c010907c:	c3                   	ret    

c010907d <vfs_writeHandler>:
c010907d:	55                   	push   %ebp
c010907e:	89 e5                	mov    %esp,%ebp
c0109080:	83 ec 48             	sub    $0x48,%esp
c0109083:	8b 45 08             	mov    0x8(%ebp),%eax
c0109086:	66 89 45 dc          	mov    %ax,-0x24(%ebp)
c010908a:	8b 45 0c             	mov    0xc(%ebp),%eax
c010908d:	0f b6 40 04          	movzbl 0x4(%eax),%eax
c0109091:	3c 04                	cmp    $0x4,%al
c0109093:	0f 85 23 01 00 00    	jne    c01091bc <vfs_writeHandler+0x13f>
c0109099:	66 81 7d dc 01 04    	cmpw   $0x401,-0x24(%ebp)
c010909f:	74 1b                	je     c01090bc <vfs_writeHandler+0x3f>
c01090a1:	8b 45 0c             	mov    0xc(%ebp),%eax
c01090a4:	8b 40 08             	mov    0x8(%eax),%eax
c01090a7:	0f b7 40 20          	movzwl 0x20(%eax),%eax
c01090ab:	66 3b 45 dc          	cmp    -0x24(%ebp),%ax
c01090af:	75 0b                	jne    c01090bc <vfs_writeHandler+0x3f>
c01090b1:	8b 45 0c             	mov    0xc(%ebp),%eax
c01090b4:	83 c0 2c             	add    $0x2c,%eax
c01090b7:	89 45 f8             	mov    %eax,-0x8(%ebp)
c01090ba:	eb 09                	jmp    c01090c5 <vfs_writeHandler+0x48>
c01090bc:	8b 45 0c             	mov    0xc(%ebp),%eax
c01090bf:	83 c0 28             	add    $0x28,%eax
c01090c2:	89 45 f8             	mov    %eax,-0x8(%ebp)
c01090c5:	8b 45 f8             	mov    -0x8(%ebp),%eax
c01090c8:	8b 00                	mov    (%eax),%eax
c01090ca:	85 c0                	test   %eax,%eax
c01090cc:	75 0c                	jne    c01090da <vfs_writeHandler+0x5d>
c01090ce:	e8 89 27 00 00       	call   c010b85c <sll_create>
c01090d3:	89 c2                	mov    %eax,%edx
c01090d5:	8b 45 f8             	mov    -0x8(%ebp),%eax
c01090d8:	89 10                	mov    %edx,(%eax)
c01090da:	8b 45 18             	mov    0x18(%ebp),%eax
c01090dd:	83 c0 04             	add    $0x4,%eax
c01090e0:	89 04 24             	mov    %eax,(%esp)
c01090e3:	e8 8c 8b ff ff       	call   c0101c74 <kheap_alloc>
c01090e8:	89 45 fc             	mov    %eax,-0x4(%ebp)
c01090eb:	83 7d fc 00          	cmpl   $0x0,-0x4(%ebp)
c01090ef:	75 0c                	jne    c01090fd <vfs_writeHandler+0x80>
c01090f1:	c7 45 cc f5 ff ff ff 	movl   $0xfffffff5,-0x34(%ebp)
c01090f8:	e9 4b 02 00 00       	jmp    c0109348 <vfs_writeHandler+0x2cb>
c01090fd:	8b 55 fc             	mov    -0x4(%ebp),%edx
c0109100:	8b 45 18             	mov    0x18(%ebp),%eax
c0109103:	89 02                	mov    %eax,(%edx)
c0109105:	8b 45 fc             	mov    -0x4(%ebp),%eax
c0109108:	8d 50 04             	lea    0x4(%eax),%edx
c010910b:	8b 45 18             	mov    0x18(%ebp),%eax
c010910e:	89 44 24 08          	mov    %eax,0x8(%esp)
c0109112:	8b 45 10             	mov    0x10(%ebp),%eax
c0109115:	89 44 24 04          	mov    %eax,0x4(%esp)
c0109119:	89 14 24             	mov    %edx,(%esp)
c010911c:	e8 76 30 00 00       	call   c010c197 <memcpy>
c0109121:	8b 45 f8             	mov    -0x8(%ebp),%eax
c0109124:	8b 10                	mov    (%eax),%edx
c0109126:	8b 45 fc             	mov    -0x4(%ebp),%eax
c0109129:	89 44 24 04          	mov    %eax,0x4(%esp)
c010912d:	89 14 24             	mov    %edx,(%esp)
c0109130:	e8 64 29 00 00       	call   c010ba99 <sll_append>
c0109135:	8b 45 0c             	mov    0xc(%ebp),%eax
c0109138:	83 c0 28             	add    $0x28,%eax
c010913b:	3b 45 f8             	cmp    -0x8(%ebp),%eax
c010913e:	75 2f                	jne    c010916f <vfs_writeHandler+0xf2>
c0109140:	8b 45 0c             	mov    0xc(%ebp),%eax
c0109143:	8b 40 08             	mov    0x8(%eax),%eax
c0109146:	0f b7 40 20          	movzwl 0x20(%eax),%eax
c010914a:	66 3d 01 04          	cmp    $0x401,%ax
c010914e:	74 61                	je     c01091b1 <vfs_writeHandler+0x134>
c0109150:	8b 45 0c             	mov    0xc(%ebp),%eax
c0109153:	8b 40 08             	mov    0x8(%eax),%eax
c0109156:	0f b7 40 20          	movzwl 0x20(%eax),%eax
c010915a:	0f b7 c0             	movzwl %ax,%eax
c010915d:	89 04 24             	mov    %eax,(%esp)
c0109160:	e8 1e bd ff ff       	call   c0104e83 <proc_getByPid>
c0109165:	89 04 24             	mov    %eax,(%esp)
c0109168:	e8 49 d0 ff ff       	call   c01061b6 <sched_setReady>
c010916d:	eb 42                	jmp    c01091b1 <vfs_writeHandler+0x134>
c010916f:	8b 45 0c             	mov    0xc(%ebp),%eax
c0109172:	8b 40 08             	mov    0x8(%eax),%eax
c0109175:	0f b6 40 05          	movzbl 0x5(%eax),%eax
c0109179:	0f b6 c0             	movzbl %al,%eax
c010917c:	83 e0 04             	and    $0x4,%eax
c010917f:	85 c0                	test   %eax,%eax
c0109181:	74 07                	je     c010918a <vfs_writeHandler+0x10d>
c0109183:	e8 06 d1 ff ff       	call   c010628e <sched_unblockAll>
c0109188:	eb 27                	jmp    c01091b1 <vfs_writeHandler+0x134>
c010918a:	8b 45 0c             	mov    0xc(%ebp),%eax
c010918d:	0f b7 40 20          	movzwl 0x20(%eax),%eax
c0109191:	66 3d 01 04          	cmp    $0x401,%ax
c0109195:	74 1a                	je     c01091b1 <vfs_writeHandler+0x134>
c0109197:	8b 45 0c             	mov    0xc(%ebp),%eax
c010919a:	0f b7 40 20          	movzwl 0x20(%eax),%eax
c010919e:	0f b7 c0             	movzwl %ax,%eax
c01091a1:	89 04 24             	mov    %eax,(%esp)
c01091a4:	e8 da bc ff ff       	call   c0104e83 <proc_getByPid>
c01091a9:	89 04 24             	mov    %eax,(%esp)
c01091ac:	e8 05 d0 ff ff       	call   c01061b6 <sched_setReady>
c01091b1:	8b 45 18             	mov    0x18(%ebp),%eax
c01091b4:	89 45 cc             	mov    %eax,-0x34(%ebp)
c01091b7:	e9 8c 01 00 00       	jmp    c0109348 <vfs_writeHandler+0x2cb>
c01091bc:	8b 45 0c             	mov    0xc(%ebp),%eax
c01091bf:	8b 40 28             	mov    0x28(%eax),%eax
c01091c2:	89 45 ec             	mov    %eax,-0x14(%ebp)
c01091c5:	8b 45 ec             	mov    -0x14(%ebp),%eax
c01091c8:	89 45 f0             	mov    %eax,-0x10(%ebp)
c01091cb:	83 7d ec 00          	cmpl   $0x0,-0x14(%ebp)
c01091cf:	75 6a                	jne    c010923b <vfs_writeHandler+0x1be>
c01091d1:	8b 45 18             	mov    0x18(%ebp),%eax
c01091d4:	89 45 c8             	mov    %eax,-0x38(%ebp)
c01091d7:	81 7d c8 80 00 00 00 	cmpl   $0x80,-0x38(%ebp)
c01091de:	73 07                	jae    c01091e7 <vfs_writeHandler+0x16a>
c01091e0:	c7 45 c8 80 00 00 00 	movl   $0x80,-0x38(%ebp)
c01091e7:	8b 45 c8             	mov    -0x38(%ebp),%eax
c01091ea:	89 45 f4             	mov    %eax,-0xc(%ebp)
c01091ed:	81 7d f4 ff ff 00 00 	cmpl   $0xffff,-0xc(%ebp)
c01091f4:	76 07                	jbe    c01091fd <vfs_writeHandler+0x180>
c01091f6:	c7 45 f4 ff ff 00 00 	movl   $0xffff,-0xc(%ebp)
c01091fd:	8b 45 f4             	mov    -0xc(%ebp),%eax
c0109200:	3b 45 18             	cmp    0x18(%ebp),%eax
c0109203:	73 0c                	jae    c0109211 <vfs_writeHandler+0x194>
c0109205:	c7 45 cc f5 ff ff ff 	movl   $0xfffffff5,-0x34(%ebp)
c010920c:	e9 37 01 00 00       	jmp    c0109348 <vfs_writeHandler+0x2cb>
c0109211:	8b 45 f4             	mov    -0xc(%ebp),%eax
c0109214:	89 04 24             	mov    %eax,(%esp)
c0109217:	e8 58 8a ff ff       	call   c0101c74 <kheap_alloc>
c010921c:	89 c2                	mov    %eax,%edx
c010921e:	8b 45 0c             	mov    0xc(%ebp),%eax
c0109221:	89 50 28             	mov    %edx,0x28(%eax)
c0109224:	8b 45 0c             	mov    0xc(%ebp),%eax
c0109227:	8b 40 28             	mov    0x28(%eax),%eax
c010922a:	89 45 ec             	mov    %eax,-0x14(%ebp)
c010922d:	8b 45 0c             	mov    0xc(%ebp),%eax
c0109230:	66 c7 40 26 00 00    	movw   $0x0,0x26(%eax)
c0109236:	e9 92 00 00 00       	jmp    c01092cd <vfs_writeHandler+0x250>
c010923b:	8b 45 0c             	mov    0xc(%ebp),%eax
c010923e:	0f b7 40 24          	movzwl 0x24(%eax),%eax
c0109242:	0f b7 c8             	movzwl %ax,%ecx
c0109245:	8b 55 18             	mov    0x18(%ebp),%edx
c0109248:	8b 45 14             	mov    0x14(%ebp),%eax
c010924b:	01 d0                	add    %edx,%eax
c010924d:	39 c1                	cmp    %eax,%ecx
c010924f:	73 7c                	jae    c01092cd <vfs_writeHandler+0x250>
c0109251:	8b 45 0c             	mov    0xc(%ebp),%eax
c0109254:	0f b7 40 24          	movzwl 0x24(%eax),%eax
c0109258:	0f b7 c0             	movzwl %ax,%eax
c010925b:	8d 0c 00             	lea    (%eax,%eax,1),%ecx
c010925e:	8b 55 18             	mov    0x18(%ebp),%edx
c0109261:	8b 45 14             	mov    0x14(%ebp),%eax
c0109264:	01 d0                	add    %edx,%eax
c0109266:	89 45 d0             	mov    %eax,-0x30(%ebp)
c0109269:	89 4d c4             	mov    %ecx,-0x3c(%ebp)
c010926c:	8b 45 d0             	mov    -0x30(%ebp),%eax
c010926f:	39 45 c4             	cmp    %eax,-0x3c(%ebp)
c0109272:	73 06                	jae    c010927a <vfs_writeHandler+0x1fd>
c0109274:	8b 45 d0             	mov    -0x30(%ebp),%eax
c0109277:	89 45 c4             	mov    %eax,-0x3c(%ebp)
c010927a:	8b 45 c4             	mov    -0x3c(%ebp),%eax
c010927d:	89 45 f4             	mov    %eax,-0xc(%ebp)
c0109280:	81 7d f4 ff ff 00 00 	cmpl   $0xffff,-0xc(%ebp)
c0109287:	76 07                	jbe    c0109290 <vfs_writeHandler+0x213>
c0109289:	c7 45 f4 ff ff 00 00 	movl   $0xffff,-0xc(%ebp)
c0109290:	8b 45 18             	mov    0x18(%ebp),%eax
c0109293:	8b 55 14             	mov    0x14(%ebp),%edx
c0109296:	8d 04 02             	lea    (%edx,%eax,1),%eax
c0109299:	3b 45 f4             	cmp    -0xc(%ebp),%eax
c010929c:	76 0c                	jbe    c01092aa <vfs_writeHandler+0x22d>
c010929e:	c7 45 cc f5 ff ff ff 	movl   $0xfffffff5,-0x34(%ebp)
c01092a5:	e9 9e 00 00 00       	jmp    c0109348 <vfs_writeHandler+0x2cb>
c01092aa:	8b 45 f4             	mov    -0xc(%ebp),%eax
c01092ad:	89 44 24 04          	mov    %eax,0x4(%esp)
c01092b1:	8b 45 ec             	mov    -0x14(%ebp),%eax
c01092b4:	89 04 24             	mov    %eax,(%esp)
c01092b7:	e8 45 8e ff ff       	call   c0102101 <kheap_realloc>
c01092bc:	89 c2                	mov    %eax,%edx
c01092be:	8b 45 0c             	mov    0xc(%ebp),%eax
c01092c1:	89 50 28             	mov    %edx,0x28(%eax)
c01092c4:	8b 45 0c             	mov    0xc(%ebp),%eax
c01092c7:	8b 40 28             	mov    0x28(%eax),%eax
c01092ca:	89 45 ec             	mov    %eax,-0x14(%ebp)
c01092cd:	83 7d ec 00          	cmpl   $0x0,-0x14(%ebp)
c01092d1:	74 65                	je     c0109338 <vfs_writeHandler+0x2bb>
c01092d3:	8b 55 14             	mov    0x14(%ebp),%edx
c01092d6:	8b 45 ec             	mov    -0x14(%ebp),%eax
c01092d9:	8d 14 10             	lea    (%eax,%edx,1),%edx
c01092dc:	8b 45 18             	mov    0x18(%ebp),%eax
c01092df:	89 44 24 08          	mov    %eax,0x8(%esp)
c01092e3:	8b 45 10             	mov    0x10(%ebp),%eax
c01092e6:	89 44 24 04          	mov    %eax,0x4(%esp)
c01092ea:	89 14 24             	mov    %edx,(%esp)
c01092ed:	e8 a5 2e 00 00       	call   c010c197 <memcpy>
c01092f2:	8b 45 f4             	mov    -0xc(%ebp),%eax
c01092f5:	89 c2                	mov    %eax,%edx
c01092f7:	8b 45 0c             	mov    0xc(%ebp),%eax
c01092fa:	66 89 50 24          	mov    %dx,0x24(%eax)
c01092fe:	8b 55 18             	mov    0x18(%ebp),%edx
c0109301:	8b 45 14             	mov    0x14(%ebp),%eax
c0109304:	8d 14 10             	lea    (%eax,%edx,1),%edx
c0109307:	8b 45 0c             	mov    0xc(%ebp),%eax
c010930a:	0f b7 40 26          	movzwl 0x26(%eax),%eax
c010930e:	0f b7 c0             	movzwl %ax,%eax
c0109311:	89 45 d4             	mov    %eax,-0x2c(%ebp)
c0109314:	89 55 d8             	mov    %edx,-0x28(%ebp)
c0109317:	8b 45 d4             	mov    -0x2c(%ebp),%eax
c010931a:	39 45 d8             	cmp    %eax,-0x28(%ebp)
c010931d:	73 06                	jae    c0109325 <vfs_writeHandler+0x2a8>
c010931f:	8b 45 d4             	mov    -0x2c(%ebp),%eax
c0109322:	89 45 d8             	mov    %eax,-0x28(%ebp)
c0109325:	0f b7 55 d8          	movzwl -0x28(%ebp),%edx
c0109329:	8b 45 0c             	mov    0xc(%ebp),%eax
c010932c:	66 89 50 26          	mov    %dx,0x26(%eax)
c0109330:	8b 45 18             	mov    0x18(%ebp),%eax
c0109333:	89 45 cc             	mov    %eax,-0x34(%ebp)
c0109336:	eb 10                	jmp    c0109348 <vfs_writeHandler+0x2cb>
c0109338:	8b 55 0c             	mov    0xc(%ebp),%edx
c010933b:	8b 45 f0             	mov    -0x10(%ebp),%eax
c010933e:	89 42 28             	mov    %eax,0x28(%edx)
c0109341:	c7 45 cc f5 ff ff ff 	movl   $0xfffffff5,-0x34(%ebp)
c0109348:	8b 45 cc             	mov    -0x34(%ebp),%eax
c010934b:	c9                   	leave  
c010934c:	c3                   	ret    

c010934d <vfs_dirReadHandler>:
c010934d:	55                   	push   %ebp
c010934e:	89 e5                	mov    %esp,%ebp
c0109350:	83 ec 48             	sub    $0x48,%esp
c0109353:	8b 45 08             	mov    0x8(%ebp),%eax
c0109356:	66 89 45 dc          	mov    %ax,-0x24(%ebp)
c010935a:	83 7d 0c 00          	cmpl   $0x0,0xc(%ebp)
c010935e:	75 24                	jne    c0109384 <vfs_dirReadHandler+0x37>
c0109360:	c7 44 24 0c 2d 03 00 	movl   $0x32d,0xc(%esp)
c0109367:	00 
c0109368:	c7 44 24 08 a2 d9 16 	movl   $0xc016d9a2,0x8(%esp)
c010936f:	c0 
c0109370:	c7 44 24 04 b0 d7 16 	movl   $0xc016d7b0,0x4(%esp)
c0109377:	c0 
c0109378:	c7 04 24 40 d9 16 c0 	movl   $0xc016d940,(%esp)
c010937f:	e8 5c e6 ff ff       	call   c01079e0 <panic>
c0109384:	83 7d 10 00          	cmpl   $0x0,0x10(%ebp)
c0109388:	75 24                	jne    c01093ae <vfs_dirReadHandler+0x61>
c010938a:	c7 44 24 0c 2e 03 00 	movl   $0x32e,0xc(%esp)
c0109391:	00 
c0109392:	c7 44 24 08 a2 d9 16 	movl   $0xc016d9a2,0x8(%esp)
c0109399:	c0 
c010939a:	c7 44 24 04 b0 d7 16 	movl   $0xc016d7b0,0x4(%esp)
c01093a1:	c0 
c01093a2:	c7 04 24 70 d9 16 c0 	movl   $0xc016d970,(%esp)
c01093a9:	e8 32 e6 ff ff       	call   c01079e0 <panic>
c01093ae:	8b 45 0c             	mov    0xc(%ebp),%eax
c01093b1:	8b 40 28             	mov    0x28(%eax),%eax
c01093b4:	85 c0                	test   %eax,%eax
c01093b6:	0f 85 6b 01 00 00    	jne    c0109527 <vfs_dirReadHandler+0x1da>
c01093bc:	c7 45 ec 00 00 00 00 	movl   $0x0,-0x14(%ebp)
c01093c3:	8b 45 0c             	mov    0xc(%ebp),%eax
c01093c6:	0f b6 40 04          	movzbl 0x4(%eax),%eax
c01093ca:	3c 01                	cmp    $0x1,%al
c01093cc:	74 0b                	je     c01093d9 <vfs_dirReadHandler+0x8c>
c01093ce:	8b 45 0c             	mov    0xc(%ebp),%eax
c01093d1:	8b 40 14             	mov    0x14(%eax),%eax
c01093d4:	89 45 d0             	mov    %eax,-0x30(%ebp)
c01093d7:	eb 0c                	jmp    c01093e5 <vfs_dirReadHandler+0x98>
c01093d9:	8b 45 0c             	mov    0xc(%ebp),%eax
c01093dc:	8b 40 28             	mov    0x28(%eax),%eax
c01093df:	8b 40 14             	mov    0x14(%eax),%eax
c01093e2:	89 45 d0             	mov    %eax,-0x30(%ebp)
c01093e5:	8b 45 d0             	mov    -0x30(%ebp),%eax
c01093e8:	89 45 f0             	mov    %eax,-0x10(%ebp)
c01093eb:	eb 12                	jmp    c01093ff <vfs_dirReadHandler+0xb2>
c01093ed:	8b 45 ec             	mov    -0x14(%ebp),%eax
c01093f0:	83 c0 40             	add    $0x40,%eax
c01093f3:	89 45 ec             	mov    %eax,-0x14(%ebp)
c01093f6:	8b 45 f0             	mov    -0x10(%ebp),%eax
c01093f9:	8b 40 10             	mov    0x10(%eax),%eax
c01093fc:	89 45 f0             	mov    %eax,-0x10(%ebp)
c01093ff:	83 7d f0 00          	cmpl   $0x0,-0x10(%ebp)
c0109403:	75 e8                	jne    c01093ed <vfs_dirReadHandler+0xa0>
c0109405:	8b 45 ec             	mov    -0x14(%ebp),%eax
c0109408:	3d fe ff 00 00       	cmp    $0xfffe,%eax
c010940d:	76 24                	jbe    c0109433 <vfs_dirReadHandler+0xe6>
c010940f:	c7 44 24 0c 3a 03 00 	movl   $0x33a,0xc(%esp)
c0109416:	00 
c0109417:	c7 44 24 08 a2 d9 16 	movl   $0xc016d9a2,0x8(%esp)
c010941e:	c0 
c010941f:	c7 44 24 04 b0 d7 16 	movl   $0xc016d7b0,0x4(%esp)
c0109426:	c0 
c0109427:	c7 04 24 b8 d9 16 c0 	movl   $0xc016d9b8,(%esp)
c010942e:	e8 ad e5 ff ff       	call   c01079e0 <panic>
c0109433:	8b 45 ec             	mov    -0x14(%ebp),%eax
c0109436:	89 c2                	mov    %eax,%edx
c0109438:	8b 45 0c             	mov    0xc(%ebp),%eax
c010943b:	66 89 50 24          	mov    %dx,0x24(%eax)
c010943f:	8b 45 ec             	mov    -0x14(%ebp),%eax
c0109442:	89 c2                	mov    %eax,%edx
c0109444:	8b 45 0c             	mov    0xc(%ebp),%eax
c0109447:	66 89 50 26          	mov    %dx,0x26(%eax)
c010944b:	83 7d ec 00          	cmpl   $0x0,-0x14(%ebp)
c010944f:	0f 8e d2 00 00 00    	jle    c0109527 <vfs_dirReadHandler+0x1da>
c0109455:	8b 45 ec             	mov    -0x14(%ebp),%eax
c0109458:	89 04 24             	mov    %eax,(%esp)
c010945b:	e8 14 88 ff ff       	call   c0101c74 <kheap_alloc>
c0109460:	89 45 f4             	mov    %eax,-0xc(%ebp)
c0109463:	83 7d f4 00          	cmpl   $0x0,-0xc(%ebp)
c0109467:	75 17                	jne    c0109480 <vfs_dirReadHandler+0x133>
c0109469:	8b 45 0c             	mov    0xc(%ebp),%eax
c010946c:	66 c7 40 24 00 00    	movw   $0x0,0x24(%eax)
c0109472:	8b 45 0c             	mov    0xc(%ebp),%eax
c0109475:	66 c7 40 26 00 00    	movw   $0x0,0x26(%eax)
c010947b:	e9 a7 00 00 00       	jmp    c0109527 <vfs_dirReadHandler+0x1da>
c0109480:	8b 55 0c             	mov    0xc(%ebp),%edx
c0109483:	8b 45 f4             	mov    -0xc(%ebp),%eax
c0109486:	89 42 28             	mov    %eax,0x28(%edx)
c0109489:	8b 45 0c             	mov    0xc(%ebp),%eax
c010948c:	0f b6 40 04          	movzbl 0x4(%eax),%eax
c0109490:	3c 01                	cmp    $0x1,%al
c0109492:	74 0b                	je     c010949f <vfs_dirReadHandler+0x152>
c0109494:	8b 45 0c             	mov    0xc(%ebp),%eax
c0109497:	8b 40 14             	mov    0x14(%eax),%eax
c010949a:	89 45 d4             	mov    %eax,-0x2c(%ebp)
c010949d:	eb 0c                	jmp    c01094ab <vfs_dirReadHandler+0x15e>
c010949f:	8b 45 0c             	mov    0xc(%ebp),%eax
c01094a2:	8b 40 28             	mov    0x28(%eax),%eax
c01094a5:	8b 40 14             	mov    0x14(%eax),%eax
c01094a8:	89 45 d4             	mov    %eax,-0x2c(%ebp)
c01094ab:	8b 55 d4             	mov    -0x2c(%ebp),%edx
c01094ae:	89 55 f0             	mov    %edx,-0x10(%ebp)
c01094b1:	eb 6e                	jmp    c0109521 <vfs_dirReadHandler+0x1d4>
c01094b3:	8b 45 f0             	mov    -0x10(%ebp),%eax
c01094b6:	8b 00                	mov    (%eax),%eax
c01094b8:	89 04 24             	mov    %eax,(%esp)
c01094bb:	e8 49 36 00 00       	call   c010cb09 <strlen>
c01094c0:	83 c0 01             	add    $0x1,%eax
c01094c3:	66 89 45 fa          	mov    %ax,-0x6(%ebp)
c01094c7:	8b 45 f4             	mov    -0xc(%ebp),%eax
c01094ca:	89 45 fc             	mov    %eax,-0x4(%ebp)
c01094cd:	8b 55 f0             	mov    -0x10(%ebp),%edx
c01094d0:	b8 00 20 17 c0       	mov    $0xc0172000,%eax
c01094d5:	29 c2                	sub    %eax,%edx
c01094d7:	c7 45 c8 ab aa aa aa 	movl   $0xaaaaaaab,-0x38(%ebp)
c01094de:	8b 45 c8             	mov    -0x38(%ebp),%eax
c01094e1:	f7 e2                	mul    %edx
c01094e3:	89 d0                	mov    %edx,%eax
c01094e5:	c1 e8 05             	shr    $0x5,%eax
c01094e8:	89 c2                	mov    %eax,%edx
c01094ea:	81 ca 00 00 00 40    	or     $0x40000000,%edx
c01094f0:	8b 45 fc             	mov    -0x4(%ebp),%eax
c01094f3:	89 10                	mov    %edx,(%eax)
c01094f5:	0f b7 55 fa          	movzwl -0x6(%ebp),%edx
c01094f9:	8b 45 f0             	mov    -0x10(%ebp),%eax
c01094fc:	8b 08                	mov    (%eax),%ecx
c01094fe:	8b 45 fc             	mov    -0x4(%ebp),%eax
c0109501:	83 c0 04             	add    $0x4,%eax
c0109504:	89 54 24 08          	mov    %edx,0x8(%esp)
c0109508:	89 4c 24 04          	mov    %ecx,0x4(%esp)
c010950c:	89 04 24             	mov    %eax,(%esp)
c010950f:	e8 83 2c 00 00       	call   c010c197 <memcpy>
c0109514:	83 45 f4 40          	addl   $0x40,-0xc(%ebp)
c0109518:	8b 45 f0             	mov    -0x10(%ebp),%eax
c010951b:	8b 40 10             	mov    0x10(%eax),%eax
c010951e:	89 45 f0             	mov    %eax,-0x10(%ebp)
c0109521:	83 7d f0 00          	cmpl   $0x0,-0x10(%ebp)
c0109525:	75 8c                	jne    c01094b3 <vfs_dirReadHandler+0x166>
c0109527:	8b 45 0c             	mov    0xc(%ebp),%eax
c010952a:	0f b7 40 24          	movzwl 0x24(%eax),%eax
c010952e:	0f b7 c0             	movzwl %ax,%eax
c0109531:	3b 45 14             	cmp    0x14(%ebp),%eax
c0109534:	73 0d                	jae    c0109543 <vfs_dirReadHandler+0x1f6>
c0109536:	8b 45 0c             	mov    0xc(%ebp),%eax
c0109539:	0f b7 40 24          	movzwl 0x24(%eax),%eax
c010953d:	0f b7 c0             	movzwl %ax,%eax
c0109540:	89 45 14             	mov    %eax,0x14(%ebp)
c0109543:	8b 45 0c             	mov    0xc(%ebp),%eax
c0109546:	0f b7 40 24          	movzwl 0x24(%eax),%eax
c010954a:	0f b7 c0             	movzwl %ax,%eax
c010954d:	2b 45 14             	sub    0x14(%ebp),%eax
c0109550:	8b 55 18             	mov    0x18(%ebp),%edx
c0109553:	89 55 cc             	mov    %edx,-0x34(%ebp)
c0109556:	89 45 d8             	mov    %eax,-0x28(%ebp)
c0109559:	8b 45 cc             	mov    -0x34(%ebp),%eax
c010955c:	39 45 d8             	cmp    %eax,-0x28(%ebp)
c010955f:	76 06                	jbe    c0109567 <vfs_dirReadHandler+0x21a>
c0109561:	8b 55 cc             	mov    -0x34(%ebp),%edx
c0109564:	89 55 d8             	mov    %edx,-0x28(%ebp)
c0109567:	8b 45 d8             	mov    -0x28(%ebp),%eax
c010956a:	89 45 ec             	mov    %eax,-0x14(%ebp)
c010956d:	83 7d ec 00          	cmpl   $0x0,-0x14(%ebp)
c0109571:	7e 1f                	jle    c0109592 <vfs_dirReadHandler+0x245>
c0109573:	8b 55 ec             	mov    -0x14(%ebp),%edx
c0109576:	8b 45 0c             	mov    0xc(%ebp),%eax
c0109579:	8b 40 28             	mov    0x28(%eax),%eax
c010957c:	03 45 14             	add    0x14(%ebp),%eax
c010957f:	89 54 24 08          	mov    %edx,0x8(%esp)
c0109583:	89 44 24 04          	mov    %eax,0x4(%esp)
c0109587:	8b 45 10             	mov    0x10(%ebp),%eax
c010958a:	89 04 24             	mov    %eax,(%esp)
c010958d:	e8 05 2c 00 00       	call   c010c197 <memcpy>
c0109592:	8b 45 ec             	mov    -0x14(%ebp),%eax
c0109595:	c9                   	leave  
c0109596:	c3                   	ret    

c0109597 <vfs_dbg_getGFTEntryCount>:
c0109597:	55                   	push   %ebp
c0109598:	89 e5                	mov    %esp,%ebp
c010959a:	83 ec 10             	sub    $0x10,%esp
c010959d:	c7 45 fc 00 00 00 00 	movl   $0x0,-0x4(%ebp)
c01095a4:	c7 45 f8 00 00 00 00 	movl   $0x0,-0x8(%ebp)
c01095ab:	eb 19                	jmp    c01095c6 <vfs_dbg_getGFTEntryCount+0x2f>
c01095ad:	8b 45 f8             	mov    -0x8(%ebp),%eax
c01095b0:	c1 e0 04             	shl    $0x4,%eax
c01095b3:	0f b6 80 40 d9 1f c0 	movzbl -0x3fe026c0(%eax),%eax
c01095ba:	84 c0                	test   %al,%al
c01095bc:	74 04                	je     c01095c2 <vfs_dbg_getGFTEntryCount+0x2b>
c01095be:	83 45 fc 01          	addl   $0x1,-0x4(%ebp)
c01095c2:	83 45 f8 01          	addl   $0x1,-0x8(%ebp)
c01095c6:	81 7d f8 ff 3f 00 00 	cmpl   $0x3fff,-0x8(%ebp)
c01095cd:	76 de                	jbe    c01095ad <vfs_dbg_getGFTEntryCount+0x16>
c01095cf:	8b 45 fc             	mov    -0x4(%ebp),%eax
c01095d2:	c9                   	leave  
c01095d3:	c3                   	ret    

c01095d4 <vfs_dbg_printGFT>:
c01095d4:	55                   	push   %ebp
c01095d5:	89 e5                	mov    %esp,%ebp
c01095d7:	83 ec 28             	sub    $0x28,%esp
c01095da:	c7 45 f8 40 d9 1f c0 	movl   $0xc01fd940,-0x8(%ebp)
c01095e1:	c7 04 24 fd d9 16 c0 	movl   $0xc016d9fd,(%esp)
c01095e8:	e8 58 1e 00 00       	call   c010b445 <vid_printf>
c01095ed:	c7 45 f4 00 00 00 00 	movl   $0x0,-0xc(%ebp)
c01095f4:	e9 3d 01 00 00       	jmp    c0109736 <vfs_dbg_printGFT+0x162>
c01095f9:	8b 45 f8             	mov    -0x8(%ebp),%eax
c01095fc:	0f b6 00             	movzbl (%eax),%eax
c01095ff:	84 c0                	test   %al,%al
c0109601:	0f 84 27 01 00 00    	je     c010972e <vfs_dbg_printGFT+0x15a>
c0109607:	8b 45 f8             	mov    -0x8(%ebp),%eax
c010960a:	8b 40 0c             	mov    0xc(%eax),%eax
c010960d:	89 04 24             	mov    %eax,(%esp)
c0109610:	e8 c6 03 00 00       	call   c01099db <vfsn_getNode>
c0109615:	89 45 fc             	mov    %eax,-0x4(%ebp)
c0109618:	8b 45 f4             	mov    -0xc(%ebp),%eax
c010961b:	89 44 24 04          	mov    %eax,0x4(%esp)
c010961f:	c7 04 24 11 da 16 c0 	movl   $0xc016da11,(%esp)
c0109626:	e8 1a 1e 00 00       	call   c010b445 <vid_printf>
c010962b:	8b 45 f8             	mov    -0x8(%ebp),%eax
c010962e:	0f b6 00             	movzbl (%eax),%eax
c0109631:	0f b6 c0             	movzbl %al,%eax
c0109634:	83 e0 01             	and    $0x1,%eax
c0109637:	89 44 24 04          	mov    %eax,0x4(%esp)
c010963b:	c7 04 24 23 da 16 c0 	movl   $0xc016da23,(%esp)
c0109642:	e8 fe 1d 00 00       	call   c010b445 <vid_printf>
c0109647:	8b 45 f8             	mov    -0x8(%ebp),%eax
c010964a:	0f b6 00             	movzbl (%eax),%eax
c010964d:	0f b6 c0             	movzbl %al,%eax
c0109650:	83 e0 02             	and    $0x2,%eax
c0109653:	85 c0                	test   %eax,%eax
c0109655:	0f 95 c0             	setne  %al
c0109658:	0f b6 c0             	movzbl %al,%eax
c010965b:	89 44 24 04          	mov    %eax,0x4(%esp)
c010965f:	c7 04 24 2f da 16 c0 	movl   $0xc016da2f,(%esp)
c0109666:	e8 da 1d 00 00       	call   c010b445 <vid_printf>
c010966b:	8b 45 f8             	mov    -0x8(%ebp),%eax
c010966e:	8b 40 0c             	mov    0xc(%eax),%eax
c0109671:	25 00 00 00 40       	and    $0x40000000,%eax
c0109676:	85 c0                	test   %eax,%eax
c0109678:	74 09                	je     c0109683 <vfs_dbg_printGFT+0xaf>
c010967a:	c7 45 ec 3c da 16 c0 	movl   $0xc016da3c,-0x14(%ebp)
c0109681:	eb 07                	jmp    c010968a <vfs_dbg_printGFT+0xb6>
c0109683:	c7 45 ec 44 da 16 c0 	movl   $0xc016da44,-0x14(%ebp)
c010968a:	8b 45 ec             	mov    -0x14(%ebp),%eax
c010968d:	89 44 24 04          	mov    %eax,0x4(%esp)
c0109691:	c7 04 24 49 da 16 c0 	movl   $0xc016da49,(%esp)
c0109698:	e8 a8 1d 00 00       	call   c010b445 <vid_printf>
c010969d:	8b 45 f8             	mov    -0x8(%ebp),%eax
c01096a0:	8b 40 0c             	mov    0xc(%eax),%eax
c01096a3:	25 ff ff ff bf       	and    $0xbfffffff,%eax
c01096a8:	89 44 24 04          	mov    %eax,0x4(%esp)
c01096ac:	c7 04 24 54 da 16 c0 	movl   $0xc016da54,(%esp)
c01096b3:	e8 8d 1d 00 00       	call   c010b445 <vid_printf>
c01096b8:	8b 45 f8             	mov    -0x8(%ebp),%eax
c01096bb:	8b 40 08             	mov    0x8(%eax),%eax
c01096be:	89 44 24 04          	mov    %eax,0x4(%esp)
c01096c2:	c7 04 24 62 da 16 c0 	movl   $0xc016da62,(%esp)
c01096c9:	e8 77 1d 00 00       	call   c010b445 <vid_printf>
c01096ce:	8b 45 f8             	mov    -0x8(%ebp),%eax
c01096d1:	0f b7 40 04          	movzwl 0x4(%eax),%eax
c01096d5:	0f b7 c0             	movzwl %ax,%eax
c01096d8:	89 44 24 04          	mov    %eax,0x4(%esp)
c01096dc:	c7 04 24 6d da 16 c0 	movl   $0xc016da6d,(%esp)
c01096e3:	e8 5d 1d 00 00       	call   c010b445 <vid_printf>
c01096e8:	8b 45 f8             	mov    -0x8(%ebp),%eax
c01096eb:	0f b7 40 02          	movzwl 0x2(%eax),%eax
c01096ef:	0f b7 c0             	movzwl %ax,%eax
c01096f2:	89 44 24 04          	mov    %eax,0x4(%esp)
c01096f6:	c7 04 24 7d da 16 c0 	movl   $0xc016da7d,(%esp)
c01096fd:	e8 43 1d 00 00       	call   c010b445 <vid_printf>
c0109702:	8b 45 fc             	mov    -0x4(%ebp),%eax
c0109705:	0f b6 40 04          	movzbl 0x4(%eax),%eax
c0109709:	3c 04                	cmp    $0x4,%al
c010970b:	75 21                	jne    c010972e <vfs_dbg_printGFT+0x15a>
c010970d:	8b 45 fc             	mov    -0x4(%ebp),%eax
c0109710:	8b 40 08             	mov    0x8(%eax),%eax
c0109713:	8b 10                	mov    (%eax),%edx
c0109715:	8b 45 fc             	mov    -0x4(%ebp),%eax
c0109718:	8b 00                	mov    (%eax),%eax
c010971a:	89 54 24 08          	mov    %edx,0x8(%esp)
c010971e:	89 44 24 04          	mov    %eax,0x4(%esp)
c0109722:	c7 04 24 8a da 16 c0 	movl   $0xc016da8a,(%esp)
c0109729:	e8 17 1d 00 00       	call   c010b445 <vid_printf>
c010972e:	83 45 f8 10          	addl   $0x10,-0x8(%ebp)
c0109732:	83 45 f4 01          	addl   $0x1,-0xc(%ebp)
c0109736:	81 7d f4 ff 3f 00 00 	cmpl   $0x3fff,-0xc(%ebp)
c010973d:	0f 8e b6 fe ff ff    	jle    c01095f9 <vfs_dbg_printGFT+0x25>
c0109743:	c9                   	leave  
c0109744:	c3                   	ret    
c0109745:	00 00                	add    %al,(%eax)
	...

c0109748 <vfsinfo_init>:
c0109748:	55                   	push   %ebp
c0109749:	89 e5                	mov    %esp,%ebp
c010974b:	53                   	push   %ebx
c010974c:	83 ec 24             	sub    $0x24,%esp
c010974f:	8d 45 f8             	lea    -0x8(%ebp),%eax
c0109752:	89 44 24 04          	mov    %eax,0x4(%esp)
c0109756:	c7 04 24 a6 da 16 c0 	movl   $0xc016daa6,(%esp)
c010975d:	e8 28 04 00 00       	call   c0109b8a <vfsn_resolvePath>
c0109762:	bb af da 16 c0       	mov    $0xc016daaf,%ebx
c0109767:	8b 45 f8             	mov    -0x8(%ebp),%eax
c010976a:	89 04 24             	mov    %eax,(%esp)
c010976d:	e8 69 02 00 00       	call   c01099db <vfsn_getNode>
c0109772:	c7 44 24 08 86 98 10 	movl   $0xc0109886,0x8(%esp)
c0109779:	c0 
c010977a:	89 5c 24 04          	mov    %ebx,0x4(%esp)
c010977e:	89 04 24             	mov    %eax,(%esp)
c0109781:	e8 a7 08 00 00       	call   c010a02d <vfsn_createInfo>
c0109786:	83 c4 24             	add    $0x24,%esp
c0109789:	5b                   	pop    %ebx
c010978a:	5d                   	pop    %ebp
c010978b:	c3                   	ret    

c010978c <vfsinfo_procReadHandler>:
c010978c:	55                   	push   %ebp
c010978d:	89 e5                	mov    %esp,%ebp
c010978f:	83 ec 28             	sub    $0x28,%esp
c0109792:	8b 45 08             	mov    0x8(%ebp),%eax
c0109795:	66 89 45 fc          	mov    %ax,-0x4(%ebp)
c0109799:	0f b7 55 fc          	movzwl -0x4(%ebp),%edx
c010979d:	c7 44 24 18 d3 97 10 	movl   $0xc01097d3,0x18(%esp)
c01097a4:	c0 
c01097a5:	c7 44 24 14 2c 00 00 	movl   $0x2c,0x14(%esp)
c01097ac:	00 
c01097ad:	8b 45 18             	mov    0x18(%ebp),%eax
c01097b0:	89 44 24 10          	mov    %eax,0x10(%esp)
c01097b4:	8b 45 14             	mov    0x14(%ebp),%eax
c01097b7:	89 44 24 0c          	mov    %eax,0xc(%esp)
c01097bb:	8b 45 10             	mov    0x10(%ebp),%eax
c01097be:	89 44 24 08          	mov    %eax,0x8(%esp)
c01097c2:	8b 45 0c             	mov    0xc(%ebp),%eax
c01097c5:	89 44 24 04          	mov    %eax,0x4(%esp)
c01097c9:	89 14 24             	mov    %edx,(%esp)
c01097cc:	e8 5b f6 ff ff       	call   c0108e2c <vfs_defReadHandler>
c01097d1:	c9                   	leave  
c01097d2:	c3                   	ret    

c01097d3 <vfsinfo_procReadCallback>:
c01097d3:	55                   	push   %ebp
c01097d4:	89 e5                	mov    %esp,%ebp
c01097d6:	83 ec 28             	sub    $0x28,%esp
c01097d9:	8b 45 08             	mov    0x8(%ebp),%eax
c01097dc:	8b 00                	mov    (%eax),%eax
c01097de:	89 04 24             	mov    %eax,(%esp)
c01097e1:	e8 96 27 00 00       	call   c010bf7c <atoi>
c01097e6:	0f b7 c0             	movzwl %ax,%eax
c01097e9:	89 04 24             	mov    %eax,(%esp)
c01097ec:	e8 92 b6 ff ff       	call   c0104e83 <proc_getByPid>
c01097f1:	89 45 f8             	mov    %eax,-0x8(%ebp)
c01097f4:	8b 45 0c             	mov    0xc(%ebp),%eax
c01097f7:	89 45 fc             	mov    %eax,-0x4(%ebp)
c01097fa:	8b 45 f8             	mov    -0x8(%ebp),%eax
c01097fd:	0f b6 10             	movzbl (%eax),%edx
c0109800:	8b 45 fc             	mov    -0x4(%ebp),%eax
c0109803:	88 10                	mov    %dl,(%eax)
c0109805:	8b 45 f8             	mov    -0x8(%ebp),%eax
c0109808:	0f b7 50 02          	movzwl 0x2(%eax),%edx
c010980c:	8b 45 fc             	mov    -0x4(%ebp),%eax
c010980f:	66 89 50 02          	mov    %dx,0x2(%eax)
c0109813:	8b 45 f8             	mov    -0x8(%ebp),%eax
c0109816:	0f b7 50 04          	movzwl 0x4(%eax),%edx
c010981a:	8b 45 fc             	mov    -0x4(%ebp),%eax
c010981d:	66 89 50 04          	mov    %dx,0x4(%eax)
c0109821:	8b 45 f8             	mov    -0x8(%ebp),%eax
c0109824:	8b 50 0c             	mov    0xc(%eax),%edx
c0109827:	8b 45 fc             	mov    -0x4(%ebp),%eax
c010982a:	89 50 08             	mov    %edx,0x8(%eax)
c010982d:	8b 45 f8             	mov    -0x8(%ebp),%eax
c0109830:	8b 50 10             	mov    0x10(%eax),%edx
c0109833:	8b 45 fc             	mov    -0x4(%ebp),%eax
c0109836:	89 50 0c             	mov    %edx,0xc(%eax)
c0109839:	8b 45 f8             	mov    -0x8(%ebp),%eax
c010983c:	8b 50 14             	mov    0x14(%eax),%edx
c010983f:	8b 45 fc             	mov    -0x4(%ebp),%eax
c0109842:	89 50 10             	mov    %edx,0x10(%eax)
c0109845:	8b 45 f8             	mov    -0x8(%ebp),%eax
c0109848:	8b 50 74             	mov    0x74(%eax),%edx
c010984b:	8b 40 70             	mov    0x70(%eax),%eax
c010984e:	8b 4d fc             	mov    -0x4(%ebp),%ecx
c0109851:	89 41 14             	mov    %eax,0x14(%ecx)
c0109854:	89 51 18             	mov    %edx,0x18(%ecx)
c0109857:	8b 45 f8             	mov    -0x8(%ebp),%eax
c010985a:	83 c0 78             	add    $0x78,%eax
c010985d:	89 04 24             	mov    %eax,(%esp)
c0109860:	e8 a4 32 00 00       	call   c010cb09 <strlen>
c0109865:	8d 50 01             	lea    0x1(%eax),%edx
c0109868:	8b 45 f8             	mov    -0x8(%ebp),%eax
c010986b:	8d 48 78             	lea    0x78(%eax),%ecx
c010986e:	8b 45 fc             	mov    -0x4(%ebp),%eax
c0109871:	83 c0 1c             	add    $0x1c,%eax
c0109874:	89 54 24 08          	mov    %edx,0x8(%esp)
c0109878:	89 4c 24 04          	mov    %ecx,0x4(%esp)
c010987c:	89 04 24             	mov    %eax,(%esp)
c010987f:	e8 13 29 00 00       	call   c010c197 <memcpy>
c0109884:	c9                   	leave  
c0109885:	c3                   	ret    

c0109886 <vfsinfo_memUsageReadHandler>:
c0109886:	55                   	push   %ebp
c0109887:	89 e5                	mov    %esp,%ebp
c0109889:	83 ec 28             	sub    $0x28,%esp
c010988c:	8b 45 08             	mov    0x8(%ebp),%eax
c010988f:	66 89 45 fc          	mov    %ax,-0x4(%ebp)
c0109893:	0f b7 55 fc          	movzwl -0x4(%ebp),%edx
c0109897:	c7 44 24 18 cd 98 10 	movl   $0xc01098cd,0x18(%esp)
c010989e:	c0 
c010989f:	c7 44 24 14 08 00 00 	movl   $0x8,0x14(%esp)
c01098a6:	00 
c01098a7:	8b 45 18             	mov    0x18(%ebp),%eax
c01098aa:	89 44 24 10          	mov    %eax,0x10(%esp)
c01098ae:	8b 45 14             	mov    0x14(%ebp),%eax
c01098b1:	89 44 24 0c          	mov    %eax,0xc(%esp)
c01098b5:	8b 45 10             	mov    0x10(%ebp),%eax
c01098b8:	89 44 24 08          	mov    %eax,0x8(%esp)
c01098bc:	8b 45 0c             	mov    0xc(%ebp),%eax
c01098bf:	89 44 24 04          	mov    %eax,0x4(%esp)
c01098c3:	89 14 24             	mov    %edx,(%esp)
c01098c6:	e8 61 f5 ff ff       	call   c0108e2c <vfs_defReadHandler>
c01098cb:	c9                   	leave  
c01098cc:	c3                   	ret    

c01098cd <vfsinfo_memUsageReadCallback>:
c01098cd:	55                   	push   %ebp
c01098ce:	89 e5                	mov    %esp,%ebp
c01098d0:	83 ec 18             	sub    $0x18,%esp
c01098d3:	8b 45 0c             	mov    0xc(%ebp),%eax
c01098d6:	89 45 fc             	mov    %eax,-0x4(%ebp)
c01098d9:	c7 04 24 03 00 00 00 	movl   $0x3,(%esp)
c01098e0:	e8 c3 90 ff ff       	call   c01029a8 <mm_getFreeFrmCount>
c01098e5:	89 c2                	mov    %eax,%edx
c01098e7:	c1 e2 0c             	shl    $0xc,%edx
c01098ea:	8b 45 fc             	mov    -0x4(%ebp),%eax
c01098ed:	89 50 04             	mov    %edx,0x4(%eax)
c01098f0:	e8 53 97 ff ff       	call   c0103048 <mboot_getUsableMemCount>
c01098f5:	89 c2                	mov    %eax,%edx
c01098f7:	8b 45 fc             	mov    -0x4(%ebp),%eax
c01098fa:	89 10                	mov    %edx,(%eax)
c01098fc:	c9                   	leave  
c01098fd:	c3                   	ret    
	...

c0109900 <vfsn_init>:
c0109900:	55                   	push   %ebp
c0109901:	89 e5                	mov    %esp,%ebp
c0109903:	83 ec 10             	sub    $0x10,%esp
c0109906:	c7 45 fc 00 20 17 c0 	movl   $0xc0172000,-0x4(%ebp)
c010990d:	8b 45 fc             	mov    -0x4(%ebp),%eax
c0109910:	a3 a4 da 23 c0       	mov    %eax,0xc023daa4
c0109915:	c7 45 f8 00 00 00 00 	movl   $0x0,-0x8(%ebp)
c010991c:	eb 14                	jmp    c0109932 <vfsn_init+0x32>
c010991e:	8b 45 fc             	mov    -0x4(%ebp),%eax
c0109921:	8d 50 30             	lea    0x30(%eax),%edx
c0109924:	8b 45 fc             	mov    -0x4(%ebp),%eax
c0109927:	89 50 10             	mov    %edx,0x10(%eax)
c010992a:	83 45 fc 30          	addl   $0x30,-0x4(%ebp)
c010992e:	83 45 f8 01          	addl   $0x1,-0x8(%ebp)
c0109932:	81 7d f8 42 20 00 00 	cmpl   $0x2042,-0x8(%ebp)
c0109939:	76 e3                	jbe    c010991e <vfsn_init+0x1e>
c010993b:	8b 45 fc             	mov    -0x4(%ebp),%eax
c010993e:	c7 40 10 00 00 00 00 	movl   $0x0,0x10(%eax)
c0109945:	c9                   	leave  
c0109946:	c3                   	ret    

c0109947 <vfsn_isValidNodeNo>:
c0109947:	55                   	push   %ebp
c0109948:	89 e5                	mov    %esp,%ebp
c010994a:	83 ec 04             	sub    $0x4,%esp
c010994d:	8b 45 08             	mov    0x8(%ebp),%eax
c0109950:	25 00 00 00 40       	and    $0x40000000,%eax
c0109955:	85 c0                	test   %eax,%eax
c0109957:	74 18                	je     c0109971 <vfsn_isValidNodeNo+0x2a>
c0109959:	8b 45 08             	mov    0x8(%ebp),%eax
c010995c:	25 ff ff ff bf       	and    $0xbfffffff,%eax
c0109961:	3d 43 20 00 00       	cmp    $0x2043,%eax
c0109966:	0f 96 c0             	setbe  %al
c0109969:	0f b6 c0             	movzbl %al,%eax
c010996c:	89 45 fc             	mov    %eax,-0x4(%ebp)
c010996f:	eb 10                	jmp    c0109981 <vfsn_isValidNodeNo+0x3a>
c0109971:	81 7d 08 43 20 00 00 	cmpl   $0x2043,0x8(%ebp)
c0109978:	0f 96 c0             	setbe  %al
c010997b:	0f b6 c0             	movzbl %al,%eax
c010997e:	89 45 fc             	mov    %eax,-0x4(%ebp)
c0109981:	8b 45 fc             	mov    -0x4(%ebp),%eax
c0109984:	c9                   	leave  
c0109985:	c3                   	ret    

c0109986 <vfsn_isOwnServiceNode>:
c0109986:	55                   	push   %ebp
c0109987:	89 e5                	mov    %esp,%ebp
c0109989:	83 ec 18             	sub    $0x18,%esp
c010998c:	e8 cf b4 ff ff       	call   c0104e60 <proc_getRunning>
c0109991:	89 45 f8             	mov    %eax,-0x8(%ebp)
c0109994:	8b 55 08             	mov    0x8(%ebp),%edx
c0109997:	89 d0                	mov    %edx,%eax
c0109999:	01 c0                	add    %eax,%eax
c010999b:	01 d0                	add    %edx,%eax
c010999d:	c1 e0 04             	shl    $0x4,%eax
c01099a0:	05 00 20 17 c0       	add    $0xc0172000,%eax
c01099a5:	89 45 fc             	mov    %eax,-0x4(%ebp)
c01099a8:	8b 45 fc             	mov    -0x4(%ebp),%eax
c01099ab:	0f b7 50 20          	movzwl 0x20(%eax),%edx
c01099af:	8b 45 f8             	mov    -0x8(%ebp),%eax
c01099b2:	0f b7 40 02          	movzwl 0x2(%eax),%eax
c01099b6:	66 39 c2             	cmp    %ax,%dx
c01099b9:	75 14                	jne    c01099cf <vfsn_isOwnServiceNode+0x49>
c01099bb:	8b 45 fc             	mov    -0x4(%ebp),%eax
c01099be:	0f b6 40 04          	movzbl 0x4(%eax),%eax
c01099c2:	3c 03                	cmp    $0x3,%al
c01099c4:	75 09                	jne    c01099cf <vfsn_isOwnServiceNode+0x49>
c01099c6:	c7 45 ec 01 00 00 00 	movl   $0x1,-0x14(%ebp)
c01099cd:	eb 07                	jmp    c01099d6 <vfsn_isOwnServiceNode+0x50>
c01099cf:	c7 45 ec 00 00 00 00 	movl   $0x0,-0x14(%ebp)
c01099d6:	8b 45 ec             	mov    -0x14(%ebp),%eax
c01099d9:	c9                   	leave  
c01099da:	c3                   	ret    

c01099db <vfsn_getNode>:
c01099db:	55                   	push   %ebp
c01099dc:	89 e5                	mov    %esp,%ebp
c01099de:	8b 55 08             	mov    0x8(%ebp),%edx
c01099e1:	89 d0                	mov    %edx,%eax
c01099e3:	01 c0                	add    %eax,%eax
c01099e5:	01 d0                	add    %edx,%eax
c01099e7:	c1 e0 04             	shl    $0x4,%eax
c01099ea:	05 00 20 17 c0       	add    $0xc0172000,%eax
c01099ef:	5d                   	pop    %ebp
c01099f0:	c3                   	ret    

c01099f1 <vfsn_getPath>:
c01099f1:	55                   	push   %ebp
c01099f2:	89 e5                	mov    %esp,%ebp
c01099f4:	53                   	push   %ebx
c01099f5:	83 ec 34             	sub    $0x34,%esp
c01099f8:	c7 45 ec 00 00 00 00 	movl   $0x0,-0x14(%ebp)
c01099ff:	8b 55 08             	mov    0x8(%ebp),%edx
c0109a02:	89 d0                	mov    %edx,%eax
c0109a04:	01 c0                	add    %eax,%eax
c0109a06:	01 d0                	add    %edx,%eax
c0109a08:	c1 e0 04             	shl    $0x4,%eax
c0109a0b:	05 00 20 17 c0       	add    $0xc0172000,%eax
c0109a10:	89 45 f0             	mov    %eax,-0x10(%ebp)
c0109a13:	8b 45 f0             	mov    -0x10(%ebp),%eax
c0109a16:	89 45 f4             	mov    %eax,-0xc(%ebp)
c0109a19:	83 7d f0 00          	cmpl   $0x0,-0x10(%ebp)
c0109a1d:	75 24                	jne    c0109a43 <vfsn_getPath+0x52>
c0109a1f:	c7 44 24 0c 4e 00 00 	movl   $0x4e,0xc(%esp)
c0109a26:	00 
c0109a27:	c7 44 24 08 b8 da 16 	movl   $0xc016dab8,0x8(%esp)
c0109a2e:	c0 
c0109a2f:	c7 44 24 04 c5 da 16 	movl   $0xc016dac5,0x4(%esp)
c0109a36:	c0 
c0109a37:	c7 04 24 d4 da 16 c0 	movl   $0xc016dad4,(%esp)
c0109a3e:	e8 9d df ff ff       	call   c01079e0 <panic>
c0109a43:	8b 45 f4             	mov    -0xc(%ebp),%eax
c0109a46:	8b 40 08             	mov    0x8(%eax),%eax
c0109a49:	85 c0                	test   %eax,%eax
c0109a4b:	75 24                	jne    c0109a71 <vfsn_getPath+0x80>
c0109a4d:	c7 44 24 0c 50 00 00 	movl   $0x50,0xc(%esp)
c0109a54:	00 
c0109a55:	c7 44 24 08 b8 da 16 	movl   $0xc016dab8,0x8(%esp)
c0109a5c:	c0 
c0109a5d:	c7 44 24 04 c5 da 16 	movl   $0xc016dac5,0x4(%esp)
c0109a64:	c0 
c0109a65:	c7 04 24 04 db 16 c0 	movl   $0xc016db04,(%esp)
c0109a6c:	e8 6f df ff ff       	call   c01079e0 <panic>
c0109a71:	c7 45 f8 00 00 00 00 	movl   $0x0,-0x8(%ebp)
c0109a78:	eb 1f                	jmp    c0109a99 <vfsn_getPath+0xa8>
c0109a7a:	8b 45 f4             	mov    -0xc(%ebp),%eax
c0109a7d:	8b 00                	mov    (%eax),%eax
c0109a7f:	89 04 24             	mov    %eax,(%esp)
c0109a82:	e8 82 30 00 00       	call   c010cb09 <strlen>
c0109a87:	03 45 f8             	add    -0x8(%ebp),%eax
c0109a8a:	83 c0 01             	add    $0x1,%eax
c0109a8d:	89 45 f8             	mov    %eax,-0x8(%ebp)
c0109a90:	8b 45 f4             	mov    -0xc(%ebp),%eax
c0109a93:	8b 40 08             	mov    0x8(%eax),%eax
c0109a96:	89 45 f4             	mov    %eax,-0xc(%ebp)
c0109a99:	8b 45 f4             	mov    -0xc(%ebp),%eax
c0109a9c:	8b 40 08             	mov    0x8(%eax),%eax
c0109a9f:	85 c0                	test   %eax,%eax
c0109aa1:	75 d7                	jne    c0109a7a <vfsn_getPath+0x89>
c0109aa3:	81 7d f8 62 01 00 00 	cmpl   $0x162,-0x8(%ebp)
c0109aaa:	76 07                	jbe    c0109ab3 <vfsn_getPath+0xc2>
c0109aac:	c7 45 f8 62 01 00 00 	movl   $0x162,-0x8(%ebp)
c0109ab3:	8b 45 f0             	mov    -0x10(%ebp),%eax
c0109ab6:	89 45 f4             	mov    %eax,-0xc(%ebp)
c0109ab9:	8b 45 f8             	mov    -0x8(%ebp),%eax
c0109abc:	89 45 ec             	mov    %eax,-0x14(%ebp)
c0109abf:	eb 5d                	jmp    c0109b1e <vfsn_getPath+0x12d>
c0109ac1:	8b 45 f4             	mov    -0xc(%ebp),%eax
c0109ac4:	8b 00                	mov    (%eax),%eax
c0109ac6:	89 04 24             	mov    %eax,(%esp)
c0109ac9:	e8 3b 30 00 00       	call   c010cb09 <strlen>
c0109ace:	83 c0 01             	add    $0x1,%eax
c0109ad1:	89 45 e8             	mov    %eax,-0x18(%ebp)
c0109ad4:	8b 55 e8             	mov    -0x18(%ebp),%edx
c0109ad7:	8b 45 f8             	mov    -0x8(%ebp),%eax
c0109ada:	29 d0                	sub    %edx,%eax
c0109adc:	05 40 d9 23 c0       	add    $0xc023d940,%eax
c0109ae1:	c6 00 2f             	movb   $0x2f,(%eax)
c0109ae4:	8b 45 e8             	mov    -0x18(%ebp),%eax
c0109ae7:	8d 48 ff             	lea    -0x1(%eax),%ecx
c0109aea:	8b 45 f4             	mov    -0xc(%ebp),%eax
c0109aed:	8b 18                	mov    (%eax),%ebx
c0109aef:	8b 55 e8             	mov    -0x18(%ebp),%edx
c0109af2:	8b 45 f8             	mov    -0x8(%ebp),%eax
c0109af5:	29 d0                	sub    %edx,%eax
c0109af7:	83 c0 01             	add    $0x1,%eax
c0109afa:	05 40 d9 23 c0       	add    $0xc023d940,%eax
c0109aff:	89 4c 24 08          	mov    %ecx,0x8(%esp)
c0109b03:	89 5c 24 04          	mov    %ebx,0x4(%esp)
c0109b07:	89 04 24             	mov    %eax,(%esp)
c0109b0a:	e8 88 26 00 00       	call   c010c197 <memcpy>
c0109b0f:	8b 45 e8             	mov    -0x18(%ebp),%eax
c0109b12:	29 45 f8             	sub    %eax,-0x8(%ebp)
c0109b15:	8b 45 f4             	mov    -0xc(%ebp),%eax
c0109b18:	8b 40 08             	mov    0x8(%eax),%eax
c0109b1b:	89 45 f4             	mov    %eax,-0xc(%ebp)
c0109b1e:	8b 45 f4             	mov    -0xc(%ebp),%eax
c0109b21:	8b 40 08             	mov    0x8(%eax),%eax
c0109b24:	8b 40 08             	mov    0x8(%eax),%eax
c0109b27:	85 c0                	test   %eax,%eax
c0109b29:	75 96                	jne    c0109ac1 <vfsn_getPath+0xd0>
c0109b2b:	8b 45 f4             	mov    -0xc(%ebp),%eax
c0109b2e:	8b 00                	mov    (%eax),%eax
c0109b30:	89 04 24             	mov    %eax,(%esp)
c0109b33:	e8 d1 2f 00 00       	call   c010cb09 <strlen>
c0109b38:	83 c0 01             	add    $0x1,%eax
c0109b3b:	89 45 e8             	mov    %eax,-0x18(%ebp)
c0109b3e:	8b 45 e8             	mov    -0x18(%ebp),%eax
c0109b41:	8d 48 ff             	lea    -0x1(%eax),%ecx
c0109b44:	8b 45 f4             	mov    -0xc(%ebp),%eax
c0109b47:	8b 18                	mov    (%eax),%ebx
c0109b49:	8b 55 e8             	mov    -0x18(%ebp),%edx
c0109b4c:	8b 45 f8             	mov    -0x8(%ebp),%eax
c0109b4f:	29 d0                	sub    %edx,%eax
c0109b51:	05 40 d9 23 c0       	add    $0xc023d940,%eax
c0109b56:	89 4c 24 08          	mov    %ecx,0x8(%esp)
c0109b5a:	89 5c 24 04          	mov    %ebx,0x4(%esp)
c0109b5e:	89 04 24             	mov    %eax,(%esp)
c0109b61:	e8 31 26 00 00       	call   c010c197 <memcpy>
c0109b66:	8b 45 f8             	mov    -0x8(%ebp),%eax
c0109b69:	83 e8 01             	sub    $0x1,%eax
c0109b6c:	05 40 d9 23 c0       	add    $0xc023d940,%eax
c0109b71:	c6 00 3a             	movb   $0x3a,(%eax)
c0109b74:	8b 45 ec             	mov    -0x14(%ebp),%eax
c0109b77:	05 40 d9 23 c0       	add    $0xc023d940,%eax
c0109b7c:	c6 00 00             	movb   $0x0,(%eax)
c0109b7f:	b8 40 d9 23 c0       	mov    $0xc023d940,%eax
c0109b84:	83 c4 34             	add    $0x34,%esp
c0109b87:	5b                   	pop    %ebx
c0109b88:	5d                   	pop    %ebp
c0109b89:	c3                   	ret    

c0109b8a <vfsn_resolvePath>:
c0109b8a:	55                   	push   %ebp
c0109b8b:	89 e5                	mov    %esp,%ebp
c0109b8d:	83 ec 38             	sub    $0x38,%esp
c0109b90:	c7 44 24 04 3a 00 00 	movl   $0x3a,0x4(%esp)
c0109b97:	00 
c0109b98:	8b 45 08             	mov    0x8(%ebp),%eax
c0109b9b:	89 04 24             	mov    %eax,(%esp)
c0109b9e:	e8 82 2c 00 00       	call   c010c825 <strchri>
c0109ba3:	89 45 f8             	mov    %eax,-0x8(%ebp)
c0109ba6:	8b 45 f8             	mov    -0x8(%ebp),%eax
c0109ba9:	03 45 08             	add    0x8(%ebp),%eax
c0109bac:	0f b6 00             	movzbl (%eax),%eax
c0109baf:	84 c0                	test   %al,%al
c0109bb1:	75 0c                	jne    c0109bbf <vfsn_resolvePath+0x35>
c0109bb3:	c7 45 e0 38 ff ff ff 	movl   $0xffffff38,-0x20(%ebp)
c0109bba:	e9 94 02 00 00       	jmp    c0109e53 <vfsn_resolvePath+0x2c9>
c0109bbf:	0f b6 05 04 20 17 c0 	movzbl 0xc0172004,%eax
c0109bc6:	3c 01                	cmp    $0x1,%al
c0109bc8:	74 0a                	je     c0109bd4 <vfsn_resolvePath+0x4a>
c0109bca:	a1 14 20 17 c0       	mov    0xc0172014,%eax
c0109bcf:	89 45 e4             	mov    %eax,-0x1c(%ebp)
c0109bd2:	eb 0b                	jmp    c0109bdf <vfsn_resolvePath+0x55>
c0109bd4:	a1 28 20 17 c0       	mov    0xc0172028,%eax
c0109bd9:	8b 40 14             	mov    0x14(%eax),%eax
c0109bdc:	89 45 e4             	mov    %eax,-0x1c(%ebp)
c0109bdf:	8b 45 e4             	mov    -0x1c(%ebp),%eax
c0109be2:	89 45 f4             	mov    %eax,-0xc(%ebp)
c0109be5:	eb 53                	jmp    c0109c3a <vfsn_resolvePath+0xb0>
c0109be7:	8b 55 f8             	mov    -0x8(%ebp),%edx
c0109bea:	8b 45 f4             	mov    -0xc(%ebp),%eax
c0109bed:	8b 08                	mov    (%eax),%ecx
c0109bef:	89 54 24 08          	mov    %edx,0x8(%esp)
c0109bf3:	8b 45 08             	mov    0x8(%ebp),%eax
c0109bf6:	89 44 24 04          	mov    %eax,0x4(%esp)
c0109bfa:	89 0c 24             	mov    %ecx,(%esp)
c0109bfd:	e8 f7 2a 00 00       	call   c010c6f9 <strncmp>
c0109c02:	85 c0                	test   %eax,%eax
c0109c04:	75 2b                	jne    c0109c31 <vfsn_resolvePath+0xa7>
c0109c06:	8b 45 f8             	mov    -0x8(%ebp),%eax
c0109c09:	83 c0 01             	add    $0x1,%eax
c0109c0c:	01 45 08             	add    %eax,0x8(%ebp)
c0109c0f:	8b 45 08             	mov    0x8(%ebp),%eax
c0109c12:	0f b6 00             	movzbl (%eax),%eax
c0109c15:	3c 2f                	cmp    $0x2f,%al
c0109c17:	74 27                	je     c0109c40 <vfsn_resolvePath+0xb6>
c0109c19:	8b 45 08             	mov    0x8(%ebp),%eax
c0109c1c:	0f b6 00             	movzbl (%eax),%eax
c0109c1f:	84 c0                	test   %al,%al
c0109c21:	74 1d                	je     c0109c40 <vfsn_resolvePath+0xb6>
c0109c23:	c7 04 24 3c db 16 c0 	movl   $0xc016db3c,(%esp)
c0109c2a:	e8 b1 dd ff ff       	call   c01079e0 <panic>
c0109c2f:	eb 0f                	jmp    c0109c40 <vfsn_resolvePath+0xb6>
c0109c31:	8b 45 f4             	mov    -0xc(%ebp),%eax
c0109c34:	8b 40 10             	mov    0x10(%eax),%eax
c0109c37:	89 45 f4             	mov    %eax,-0xc(%ebp)
c0109c3a:	83 7d f4 00          	cmpl   $0x0,-0xc(%ebp)
c0109c3e:	75 a7                	jne    c0109be7 <vfsn_resolvePath+0x5d>
c0109c40:	83 7d f4 00          	cmpl   $0x0,-0xc(%ebp)
c0109c44:	75 0c                	jne    c0109c52 <vfsn_resolvePath+0xc8>
c0109c46:	c7 45 e0 fc ff ff ff 	movl   $0xfffffffc,-0x20(%ebp)
c0109c4d:	e9 01 02 00 00       	jmp    c0109e53 <vfsn_resolvePath+0x2c9>
c0109c52:	81 7d f4 90 20 17 c0 	cmpl   $0xc0172090,-0xc(%ebp)
c0109c59:	75 10                	jne    c0109c6b <vfsn_resolvePath+0xe1>
c0109c5b:	c7 45 e0 38 ff ff ff 	movl   $0xffffff38,-0x20(%ebp)
c0109c62:	e9 ec 01 00 00       	jmp    c0109e53 <vfsn_resolvePath+0x2c9>
c0109c67:	83 45 08 01          	addl   $0x1,0x8(%ebp)
c0109c6b:	8b 45 08             	mov    0x8(%ebp),%eax
c0109c6e:	0f b6 00             	movzbl (%eax),%eax
c0109c71:	3c 2f                	cmp    $0x2f,%al
c0109c73:	74 f2                	je     c0109c67 <vfsn_resolvePath+0xdd>
c0109c75:	8b 45 08             	mov    0x8(%ebp),%eax
c0109c78:	0f b6 00             	movzbl (%eax),%eax
c0109c7b:	84 c0                	test   %al,%al
c0109c7d:	75 34                	jne    c0109cb3 <vfsn_resolvePath+0x129>
c0109c7f:	8b 55 f4             	mov    -0xc(%ebp),%edx
c0109c82:	b8 00 20 17 c0       	mov    $0xc0172000,%eax
c0109c87:	29 c2                	sub    %eax,%edx
c0109c89:	c7 45 dc ab aa aa aa 	movl   $0xaaaaaaab,-0x24(%ebp)
c0109c90:	8b 45 dc             	mov    -0x24(%ebp),%eax
c0109c93:	f7 e2                	mul    %edx
c0109c95:	89 d0                	mov    %edx,%eax
c0109c97:	c1 e8 05             	shr    $0x5,%eax
c0109c9a:	89 c2                	mov    %eax,%edx
c0109c9c:	81 ca 00 00 00 40    	or     $0x40000000,%edx
c0109ca2:	8b 45 0c             	mov    0xc(%ebp),%eax
c0109ca5:	89 10                	mov    %edx,(%eax)
c0109ca7:	c7 45 e0 00 00 00 00 	movl   $0x0,-0x20(%ebp)
c0109cae:	e9 a0 01 00 00       	jmp    c0109e53 <vfsn_resolvePath+0x2c9>
c0109cb3:	c7 44 24 04 2f 00 00 	movl   $0x2f,0x4(%esp)
c0109cba:	00 
c0109cbb:	8b 45 08             	mov    0x8(%ebp),%eax
c0109cbe:	89 04 24             	mov    %eax,(%esp)
c0109cc1:	e8 5f 2b 00 00       	call   c010c825 <strchri>
c0109cc6:	89 45 f8             	mov    %eax,-0x8(%ebp)
c0109cc9:	8b 45 f4             	mov    -0xc(%ebp),%eax
c0109ccc:	0f b6 40 04          	movzbl 0x4(%eax),%eax
c0109cd0:	3c 01                	cmp    $0x1,%al
c0109cd2:	74 0b                	je     c0109cdf <vfsn_resolvePath+0x155>
c0109cd4:	8b 45 f4             	mov    -0xc(%ebp),%eax
c0109cd7:	8b 40 14             	mov    0x14(%eax),%eax
c0109cda:	89 45 e8             	mov    %eax,-0x18(%ebp)
c0109cdd:	eb 0c                	jmp    c0109ceb <vfsn_resolvePath+0x161>
c0109cdf:	8b 45 f4             	mov    -0xc(%ebp),%eax
c0109ce2:	8b 40 28             	mov    0x28(%eax),%eax
c0109ce5:	8b 40 14             	mov    0x14(%eax),%eax
c0109ce8:	89 45 e8             	mov    %eax,-0x18(%ebp)
c0109ceb:	8b 45 e8             	mov    -0x18(%ebp),%eax
c0109cee:	89 45 f4             	mov    %eax,-0xc(%ebp)
c0109cf1:	e9 9d 00 00 00       	jmp    c0109d93 <vfsn_resolvePath+0x209>
c0109cf6:	8b 55 f8             	mov    -0x8(%ebp),%edx
c0109cf9:	8b 45 f4             	mov    -0xc(%ebp),%eax
c0109cfc:	8b 08                	mov    (%eax),%ecx
c0109cfe:	89 54 24 08          	mov    %edx,0x8(%esp)
c0109d02:	8b 45 08             	mov    0x8(%ebp),%eax
c0109d05:	89 44 24 04          	mov    %eax,0x4(%esp)
c0109d09:	89 0c 24             	mov    %ecx,(%esp)
c0109d0c:	e8 e8 29 00 00       	call   c010c6f9 <strncmp>
c0109d11:	85 c0                	test   %eax,%eax
c0109d13:	75 75                	jne    c0109d8a <vfsn_resolvePath+0x200>
c0109d15:	8b 45 f8             	mov    -0x8(%ebp),%eax
c0109d18:	01 45 08             	add    %eax,0x8(%ebp)
c0109d1b:	8b 45 08             	mov    0x8(%ebp),%eax
c0109d1e:	0f b6 00             	movzbl (%eax),%eax
c0109d21:	84 c0                	test   %al,%al
c0109d23:	74 78                	je     c0109d9d <vfsn_resolvePath+0x213>
c0109d25:	eb 04                	jmp    c0109d2b <vfsn_resolvePath+0x1a1>
c0109d27:	83 45 08 01          	addl   $0x1,0x8(%ebp)
c0109d2b:	8b 45 08             	mov    0x8(%ebp),%eax
c0109d2e:	0f b6 00             	movzbl (%eax),%eax
c0109d31:	3c 2f                	cmp    $0x2f,%al
c0109d33:	74 f2                	je     c0109d27 <vfsn_resolvePath+0x19d>
c0109d35:	8b 45 08             	mov    0x8(%ebp),%eax
c0109d38:	0f b6 00             	movzbl (%eax),%eax
c0109d3b:	84 c0                	test   %al,%al
c0109d3d:	74 5e                	je     c0109d9d <vfsn_resolvePath+0x213>
c0109d3f:	8b 45 f4             	mov    -0xc(%ebp),%eax
c0109d42:	0f b6 40 04          	movzbl 0x4(%eax),%eax
c0109d46:	3c 03                	cmp    $0x3,%al
c0109d48:	74 53                	je     c0109d9d <vfsn_resolvePath+0x213>
c0109d4a:	c7 44 24 04 2f 00 00 	movl   $0x2f,0x4(%esp)
c0109d51:	00 
c0109d52:	8b 45 08             	mov    0x8(%ebp),%eax
c0109d55:	89 04 24             	mov    %eax,(%esp)
c0109d58:	e8 c8 2a 00 00       	call   c010c825 <strchri>
c0109d5d:	89 45 f8             	mov    %eax,-0x8(%ebp)
c0109d60:	8b 45 f4             	mov    -0xc(%ebp),%eax
c0109d63:	0f b6 40 04          	movzbl 0x4(%eax),%eax
c0109d67:	3c 01                	cmp    $0x1,%al
c0109d69:	74 0b                	je     c0109d76 <vfsn_resolvePath+0x1ec>
c0109d6b:	8b 45 f4             	mov    -0xc(%ebp),%eax
c0109d6e:	8b 40 14             	mov    0x14(%eax),%eax
c0109d71:	89 45 ec             	mov    %eax,-0x14(%ebp)
c0109d74:	eb 0c                	jmp    c0109d82 <vfsn_resolvePath+0x1f8>
c0109d76:	8b 45 f4             	mov    -0xc(%ebp),%eax
c0109d79:	8b 40 28             	mov    0x28(%eax),%eax
c0109d7c:	8b 40 14             	mov    0x14(%eax),%eax
c0109d7f:	89 45 ec             	mov    %eax,-0x14(%ebp)
c0109d82:	8b 45 ec             	mov    -0x14(%ebp),%eax
c0109d85:	89 45 f4             	mov    %eax,-0xc(%ebp)
c0109d88:	eb 09                	jmp    c0109d93 <vfsn_resolvePath+0x209>
c0109d8a:	8b 45 f4             	mov    -0xc(%ebp),%eax
c0109d8d:	8b 40 10             	mov    0x10(%eax),%eax
c0109d90:	89 45 f4             	mov    %eax,-0xc(%ebp)
c0109d93:	83 7d f4 00          	cmpl   $0x0,-0xc(%ebp)
c0109d97:	0f 85 59 ff ff ff    	jne    c0109cf6 <vfsn_resolvePath+0x16c>
c0109d9d:	83 7d f4 00          	cmpl   $0x0,-0xc(%ebp)
c0109da1:	75 0c                	jne    c0109daf <vfsn_resolvePath+0x225>
c0109da3:	c7 45 e0 fc ff ff ff 	movl   $0xfffffffc,-0x20(%ebp)
c0109daa:	e9 a4 00 00 00       	jmp    c0109e53 <vfsn_resolvePath+0x2c9>
c0109daf:	8b 45 f4             	mov    -0xc(%ebp),%eax
c0109db2:	0f b6 40 04          	movzbl 0x4(%eax),%eax
c0109db6:	3c 03                	cmp    $0x3,%al
c0109db8:	75 56                	jne    c0109e10 <vfsn_resolvePath+0x286>
c0109dba:	8d 45 f0             	lea    -0x10(%ebp),%eax
c0109dbd:	89 44 24 04          	mov    %eax,0x4(%esp)
c0109dc1:	8b 45 f4             	mov    -0xc(%ebp),%eax
c0109dc4:	89 04 24             	mov    %eax,(%esp)
c0109dc7:	e8 ae 04 00 00       	call   c010a27a <vfsn_createServiceUse>
c0109dcc:	89 45 fc             	mov    %eax,-0x4(%ebp)
c0109dcf:	83 7d fc 00          	cmpl   $0x0,-0x4(%ebp)
c0109dd3:	79 08                	jns    c0109ddd <vfsn_resolvePath+0x253>
c0109dd5:	8b 45 fc             	mov    -0x4(%ebp),%eax
c0109dd8:	89 45 e0             	mov    %eax,-0x20(%ebp)
c0109ddb:	eb 76                	jmp    c0109e53 <vfsn_resolvePath+0x2c9>
c0109ddd:	8b 45 f0             	mov    -0x10(%ebp),%eax
c0109de0:	89 c2                	mov    %eax,%edx
c0109de2:	b8 00 20 17 c0       	mov    $0xc0172000,%eax
c0109de7:	29 c2                	sub    %eax,%edx
c0109de9:	c7 45 dc ab aa aa aa 	movl   $0xaaaaaaab,-0x24(%ebp)
c0109df0:	8b 45 dc             	mov    -0x24(%ebp),%eax
c0109df3:	f7 e2                	mul    %edx
c0109df5:	89 d0                	mov    %edx,%eax
c0109df7:	c1 e8 05             	shr    $0x5,%eax
c0109dfa:	89 c2                	mov    %eax,%edx
c0109dfc:	81 ca 00 00 00 40    	or     $0x40000000,%edx
c0109e02:	8b 45 0c             	mov    0xc(%ebp),%eax
c0109e05:	89 10                	mov    %edx,(%eax)
c0109e07:	c7 45 e0 00 00 00 00 	movl   $0x0,-0x20(%ebp)
c0109e0e:	eb 43                	jmp    c0109e53 <vfsn_resolvePath+0x2c9>
c0109e10:	8b 45 f4             	mov    -0xc(%ebp),%eax
c0109e13:	0f b6 40 04          	movzbl 0x4(%eax),%eax
c0109e17:	3c 01                	cmp    $0x1,%al
c0109e19:	75 09                	jne    c0109e24 <vfsn_resolvePath+0x29a>
c0109e1b:	8b 45 f4             	mov    -0xc(%ebp),%eax
c0109e1e:	8b 40 28             	mov    0x28(%eax),%eax
c0109e21:	89 45 f4             	mov    %eax,-0xc(%ebp)
c0109e24:	8b 55 f4             	mov    -0xc(%ebp),%edx
c0109e27:	b8 00 20 17 c0       	mov    $0xc0172000,%eax
c0109e2c:	29 c2                	sub    %eax,%edx
c0109e2e:	c7 45 dc ab aa aa aa 	movl   $0xaaaaaaab,-0x24(%ebp)
c0109e35:	8b 45 dc             	mov    -0x24(%ebp),%eax
c0109e38:	f7 e2                	mul    %edx
c0109e3a:	89 d0                	mov    %edx,%eax
c0109e3c:	c1 e8 05             	shr    $0x5,%eax
c0109e3f:	89 c2                	mov    %eax,%edx
c0109e41:	81 ca 00 00 00 40    	or     $0x40000000,%edx
c0109e47:	8b 45 0c             	mov    0xc(%ebp),%eax
c0109e4a:	89 10                	mov    %edx,(%eax)
c0109e4c:	c7 45 e0 00 00 00 00 	movl   $0x0,-0x20(%ebp)
c0109e53:	8b 45 e0             	mov    -0x20(%ebp),%eax
c0109e56:	c9                   	leave  
c0109e57:	c3                   	ret    

c0109e58 <vfsn_createNodeAppend>:
c0109e58:	55                   	push   %ebp
c0109e59:	89 e5                	mov    %esp,%ebp
c0109e5b:	83 ec 18             	sub    $0x18,%esp
c0109e5e:	8b 45 0c             	mov    0xc(%ebp),%eax
c0109e61:	89 44 24 04          	mov    %eax,0x4(%esp)
c0109e65:	8b 45 08             	mov    0x8(%ebp),%eax
c0109e68:	89 04 24             	mov    %eax,(%esp)
c0109e6b:	e8 1a 00 00 00       	call   c0109e8a <vfsn_createNode>
c0109e70:	89 45 fc             	mov    %eax,-0x4(%ebp)
c0109e73:	8b 45 fc             	mov    -0x4(%ebp),%eax
c0109e76:	89 44 24 04          	mov    %eax,0x4(%esp)
c0109e7a:	8b 45 08             	mov    0x8(%ebp),%eax
c0109e7d:	89 04 24             	mov    %eax,(%esp)
c0109e80:	e8 c1 02 00 00       	call   c010a146 <vfsn_appendChild>
c0109e85:	8b 45 fc             	mov    -0x4(%ebp),%eax
c0109e88:	c9                   	leave  
c0109e89:	c3                   	ret    

c0109e8a <vfsn_createNode>:
c0109e8a:	55                   	push   %ebp
c0109e8b:	89 e5                	mov    %esp,%ebp
c0109e8d:	83 ec 28             	sub    $0x28,%esp
c0109e90:	83 7d 0c 00          	cmpl   $0x0,0xc(%ebp)
c0109e94:	75 24                	jne    c0109eba <vfsn_createNode+0x30>
c0109e96:	c7 44 24 0c db 00 00 	movl   $0xdb,0xc(%esp)
c0109e9d:	00 
c0109e9e:	c7 44 24 08 52 db 16 	movl   $0xc016db52,0x8(%esp)
c0109ea5:	c0 
c0109ea6:	c7 44 24 04 c5 da 16 	movl   $0xc016dac5,0x4(%esp)
c0109ead:	c0 
c0109eae:	c7 04 24 64 db 16 c0 	movl   $0xc016db64,(%esp)
c0109eb5:	e8 26 db ff ff       	call   c01079e0 <panic>
c0109eba:	8b 45 0c             	mov    0xc(%ebp),%eax
c0109ebd:	89 04 24             	mov    %eax,(%esp)
c0109ec0:	e8 44 2c 00 00       	call   c010cb09 <strlen>
c0109ec5:	83 f8 3b             	cmp    $0x3b,%eax
c0109ec8:	76 09                	jbe    c0109ed3 <vfsn_createNode+0x49>
c0109eca:	c7 45 ec 00 00 00 00 	movl   $0x0,-0x14(%ebp)
c0109ed1:	eb 79                	jmp    c0109f4c <vfsn_createNode+0xc2>
c0109ed3:	e8 36 05 00 00       	call   c010a40e <vfsn_requestNode>
c0109ed8:	89 45 fc             	mov    %eax,-0x4(%ebp)
c0109edb:	83 7d fc 00          	cmpl   $0x0,-0x4(%ebp)
c0109edf:	75 09                	jne    c0109eea <vfsn_createNode+0x60>
c0109ee1:	c7 45 ec 00 00 00 00 	movl   $0x0,-0x14(%ebp)
c0109ee8:	eb 62                	jmp    c0109f4c <vfsn_createNode+0xc2>
c0109eea:	8b 55 fc             	mov    -0x4(%ebp),%edx
c0109eed:	8b 45 0c             	mov    0xc(%ebp),%eax
c0109ef0:	89 02                	mov    %eax,(%edx)
c0109ef2:	8b 45 fc             	mov    -0x4(%ebp),%eax
c0109ef5:	66 c7 40 20 02 04    	movw   $0x402,0x20(%eax)
c0109efb:	8b 45 fc             	mov    -0x4(%ebp),%eax
c0109efe:	c6 40 06 00          	movb   $0x0,0x6(%eax)
c0109f02:	8b 45 fc             	mov    -0x4(%ebp),%eax
c0109f05:	c7 40 10 00 00 00 00 	movl   $0x0,0x10(%eax)
c0109f0c:	8b 45 fc             	mov    -0x4(%ebp),%eax
c0109f0f:	c7 40 0c 00 00 00 00 	movl   $0x0,0xc(%eax)
c0109f16:	8b 45 fc             	mov    -0x4(%ebp),%eax
c0109f19:	c7 40 14 00 00 00 00 	movl   $0x0,0x14(%eax)
c0109f20:	8b 45 fc             	mov    -0x4(%ebp),%eax
c0109f23:	c7 40 18 00 00 00 00 	movl   $0x0,0x18(%eax)
c0109f2a:	8b 45 fc             	mov    -0x4(%ebp),%eax
c0109f2d:	c7 40 28 00 00 00 00 	movl   $0x0,0x28(%eax)
c0109f34:	8b 45 fc             	mov    -0x4(%ebp),%eax
c0109f37:	66 c7 40 24 00 00    	movw   $0x0,0x24(%eax)
c0109f3d:	8b 45 fc             	mov    -0x4(%ebp),%eax
c0109f40:	66 c7 40 26 00 00    	movw   $0x0,0x26(%eax)
c0109f46:	8b 45 fc             	mov    -0x4(%ebp),%eax
c0109f49:	89 45 ec             	mov    %eax,-0x14(%ebp)
c0109f4c:	8b 45 ec             	mov    -0x14(%ebp),%eax
c0109f4f:	c9                   	leave  
c0109f50:	c3                   	ret    

c0109f51 <vfsn_createDir>:
c0109f51:	55                   	push   %ebp
c0109f52:	89 e5                	mov    %esp,%ebp
c0109f54:	83 ec 28             	sub    $0x28,%esp
c0109f57:	8b 45 0c             	mov    0xc(%ebp),%eax
c0109f5a:	89 44 24 04          	mov    %eax,0x4(%esp)
c0109f5e:	8b 45 08             	mov    0x8(%ebp),%eax
c0109f61:	89 04 24             	mov    %eax,(%esp)
c0109f64:	e8 ef fe ff ff       	call   c0109e58 <vfsn_createNodeAppend>
c0109f69:	89 45 f4             	mov    %eax,-0xc(%ebp)
c0109f6c:	83 7d f4 00          	cmpl   $0x0,-0xc(%ebp)
c0109f70:	75 0c                	jne    c0109f7e <vfsn_createDir+0x2d>
c0109f72:	c7 45 e8 00 00 00 00 	movl   $0x0,-0x18(%ebp)
c0109f79:	e9 aa 00 00 00       	jmp    c010a028 <vfsn_createDir+0xd7>
c0109f7e:	b8 94 db 16 c0       	mov    $0xc016db94,%eax
c0109f83:	89 44 24 04          	mov    %eax,0x4(%esp)
c0109f87:	8b 45 f4             	mov    -0xc(%ebp),%eax
c0109f8a:	89 04 24             	mov    %eax,(%esp)
c0109f8d:	e8 c6 fe ff ff       	call   c0109e58 <vfsn_createNodeAppend>
c0109f92:	89 45 f8             	mov    %eax,-0x8(%ebp)
c0109f95:	83 7d f8 00          	cmpl   $0x0,-0x8(%ebp)
c0109f99:	75 0c                	jne    c0109fa7 <vfsn_createDir+0x56>
c0109f9b:	c7 45 e8 00 00 00 00 	movl   $0x0,-0x18(%ebp)
c0109fa2:	e9 81 00 00 00       	jmp    c010a028 <vfsn_createDir+0xd7>
c0109fa7:	b8 96 db 16 c0       	mov    $0xc016db96,%eax
c0109fac:	89 44 24 04          	mov    %eax,0x4(%esp)
c0109fb0:	8b 45 f4             	mov    -0xc(%ebp),%eax
c0109fb3:	89 04 24             	mov    %eax,(%esp)
c0109fb6:	e8 9d fe ff ff       	call   c0109e58 <vfsn_createNodeAppend>
c0109fbb:	89 45 fc             	mov    %eax,-0x4(%ebp)
c0109fbe:	83 7d fc 00          	cmpl   $0x0,-0x4(%ebp)
c0109fc2:	75 09                	jne    c0109fcd <vfsn_createDir+0x7c>
c0109fc4:	c7 45 e8 00 00 00 00 	movl   $0x0,-0x18(%ebp)
c0109fcb:	eb 5b                	jmp    c010a028 <vfsn_createDir+0xd7>
c0109fcd:	8b 45 f4             	mov    -0xc(%ebp),%eax
c0109fd0:	c6 40 04 00          	movb   $0x0,0x4(%eax)
c0109fd4:	8b 45 f4             	mov    -0xc(%ebp),%eax
c0109fd7:	c6 40 05 01          	movb   $0x1,0x5(%eax)
c0109fdb:	8b 55 f4             	mov    -0xc(%ebp),%edx
c0109fde:	8b 45 10             	mov    0x10(%ebp),%eax
c0109fe1:	89 42 1c             	mov    %eax,0x1c(%edx)
c0109fe4:	8b 45 f8             	mov    -0x8(%ebp),%eax
c0109fe7:	c6 40 04 01          	movb   $0x1,0x4(%eax)
c0109feb:	8b 55 f8             	mov    -0x8(%ebp),%edx
c0109fee:	8b 45 f4             	mov    -0xc(%ebp),%eax
c0109ff1:	89 42 28             	mov    %eax,0x28(%edx)
c0109ff4:	8b 45 fc             	mov    -0x4(%ebp),%eax
c0109ff7:	c6 40 04 01          	movb   $0x1,0x4(%eax)
c0109ffb:	83 7d 08 00          	cmpl   $0x0,0x8(%ebp)
c0109fff:	74 0a                	je     c010a00b <vfsn_createDir+0xba>
c010a001:	8b 45 08             	mov    0x8(%ebp),%eax
c010a004:	8b 40 08             	mov    0x8(%eax),%eax
c010a007:	85 c0                	test   %eax,%eax
c010a009:	75 08                	jne    c010a013 <vfsn_createDir+0xc2>
c010a00b:	8b 45 f4             	mov    -0xc(%ebp),%eax
c010a00e:	89 45 ec             	mov    %eax,-0x14(%ebp)
c010a011:	eb 06                	jmp    c010a019 <vfsn_createDir+0xc8>
c010a013:	8b 55 08             	mov    0x8(%ebp),%edx
c010a016:	89 55 ec             	mov    %edx,-0x14(%ebp)
c010a019:	8b 45 fc             	mov    -0x4(%ebp),%eax
c010a01c:	8b 55 ec             	mov    -0x14(%ebp),%edx
c010a01f:	89 50 28             	mov    %edx,0x28(%eax)
c010a022:	8b 45 f4             	mov    -0xc(%ebp),%eax
c010a025:	89 45 e8             	mov    %eax,-0x18(%ebp)
c010a028:	8b 45 e8             	mov    -0x18(%ebp),%eax
c010a02b:	c9                   	leave  
c010a02c:	c3                   	ret    

c010a02d <vfsn_createInfo>:
c010a02d:	55                   	push   %ebp
c010a02e:	89 e5                	mov    %esp,%ebp
c010a030:	83 ec 28             	sub    $0x28,%esp
c010a033:	8b 45 0c             	mov    0xc(%ebp),%eax
c010a036:	89 44 24 04          	mov    %eax,0x4(%esp)
c010a03a:	8b 45 08             	mov    0x8(%ebp),%eax
c010a03d:	89 04 24             	mov    %eax,(%esp)
c010a040:	e8 13 fe ff ff       	call   c0109e58 <vfsn_createNodeAppend>
c010a045:	89 45 fc             	mov    %eax,-0x4(%ebp)
c010a048:	83 7d fc 00          	cmpl   $0x0,-0x4(%ebp)
c010a04c:	75 09                	jne    c010a057 <vfsn_createInfo+0x2a>
c010a04e:	c7 45 ec 00 00 00 00 	movl   $0x0,-0x14(%ebp)
c010a055:	eb 1d                	jmp    c010a074 <vfsn_createInfo+0x47>
c010a057:	8b 45 fc             	mov    -0x4(%ebp),%eax
c010a05a:	c6 40 04 02          	movb   $0x2,0x4(%eax)
c010a05e:	8b 45 fc             	mov    -0x4(%ebp),%eax
c010a061:	c6 40 05 01          	movb   $0x1,0x5(%eax)
c010a065:	8b 55 fc             	mov    -0x4(%ebp),%edx
c010a068:	8b 45 10             	mov    0x10(%ebp),%eax
c010a06b:	89 42 1c             	mov    %eax,0x1c(%edx)
c010a06e:	8b 45 fc             	mov    -0x4(%ebp),%eax
c010a071:	89 45 ec             	mov    %eax,-0x14(%ebp)
c010a074:	8b 45 ec             	mov    -0x14(%ebp),%eax
c010a077:	c9                   	leave  
c010a078:	c3                   	ret    

c010a079 <vfsn_createServiceNode>:
c010a079:	55                   	push   %ebp
c010a07a:	89 e5                	mov    %esp,%ebp
c010a07c:	83 ec 28             	sub    $0x28,%esp
c010a07f:	8b 45 08             	mov    0x8(%ebp),%eax
c010a082:	8b 55 14             	mov    0x14(%ebp),%edx
c010a085:	66 89 45 ec          	mov    %ax,-0x14(%ebp)
c010a089:	88 55 e8             	mov    %dl,-0x18(%ebp)
c010a08c:	8b 45 10             	mov    0x10(%ebp),%eax
c010a08f:	89 44 24 04          	mov    %eax,0x4(%esp)
c010a093:	8b 45 0c             	mov    0xc(%ebp),%eax
c010a096:	89 04 24             	mov    %eax,(%esp)
c010a099:	e8 ba fd ff ff       	call   c0109e58 <vfsn_createNodeAppend>
c010a09e:	89 45 fc             	mov    %eax,-0x4(%ebp)
c010a0a1:	83 7d fc 00          	cmpl   $0x0,-0x4(%ebp)
c010a0a5:	75 09                	jne    c010a0b0 <vfsn_createServiceNode+0x37>
c010a0a7:	c7 45 e4 00 00 00 00 	movl   $0x0,-0x1c(%ebp)
c010a0ae:	eb 2c                	jmp    c010a0dc <vfsn_createServiceNode+0x63>
c010a0b0:	8b 55 fc             	mov    -0x4(%ebp),%edx
c010a0b3:	0f b7 45 ec          	movzwl -0x14(%ebp),%eax
c010a0b7:	66 89 42 20          	mov    %ax,0x20(%edx)
c010a0bb:	8b 45 fc             	mov    -0x4(%ebp),%eax
c010a0be:	c6 40 04 03          	movb   $0x3,0x4(%eax)
c010a0c2:	8b 55 fc             	mov    -0x4(%ebp),%edx
c010a0c5:	0f b6 45 e8          	movzbl -0x18(%ebp),%eax
c010a0c9:	88 42 05             	mov    %al,0x5(%edx)
c010a0cc:	8b 45 fc             	mov    -0x4(%ebp),%eax
c010a0cf:	c7 40 1c 00 00 00 00 	movl   $0x0,0x1c(%eax)
c010a0d6:	8b 45 fc             	mov    -0x4(%ebp),%eax
c010a0d9:	89 45 e4             	mov    %eax,-0x1c(%ebp)
c010a0dc:	8b 45 e4             	mov    -0x1c(%ebp),%eax
c010a0df:	c9                   	leave  
c010a0e0:	c3                   	ret    

c010a0e1 <vfsn_createServiceUseNode>:
c010a0e1:	55                   	push   %ebp
c010a0e2:	89 e5                	mov    %esp,%ebp
c010a0e4:	83 ec 28             	sub    $0x28,%esp
c010a0e7:	8b 45 0c             	mov    0xc(%ebp),%eax
c010a0ea:	89 44 24 04          	mov    %eax,0x4(%esp)
c010a0ee:	8b 45 08             	mov    0x8(%ebp),%eax
c010a0f1:	89 04 24             	mov    %eax,(%esp)
c010a0f4:	e8 5f fd ff ff       	call   c0109e58 <vfsn_createNodeAppend>
c010a0f9:	89 45 fc             	mov    %eax,-0x4(%ebp)
c010a0fc:	83 7d fc 00          	cmpl   $0x0,-0x4(%ebp)
c010a100:	75 09                	jne    c010a10b <vfsn_createServiceUseNode+0x2a>
c010a102:	c7 45 ec 00 00 00 00 	movl   $0x0,-0x14(%ebp)
c010a109:	eb 36                	jmp    c010a141 <vfsn_createServiceUseNode+0x60>
c010a10b:	e8 50 ad ff ff       	call   c0104e60 <proc_getRunning>
c010a110:	0f b7 50 02          	movzwl 0x2(%eax),%edx
c010a114:	8b 45 fc             	mov    -0x4(%ebp),%eax
c010a117:	66 89 50 20          	mov    %dx,0x20(%eax)
c010a11b:	8b 45 fc             	mov    -0x4(%ebp),%eax
c010a11e:	c6 40 04 04          	movb   $0x4,0x4(%eax)
c010a122:	8b 45 fc             	mov    -0x4(%ebp),%eax
c010a125:	c6 40 05 03          	movb   $0x3,0x5(%eax)
c010a129:	8b 55 fc             	mov    -0x4(%ebp),%edx
c010a12c:	8b 45 10             	mov    0x10(%ebp),%eax
c010a12f:	89 42 1c             	mov    %eax,0x1c(%edx)
c010a132:	8b 45 fc             	mov    -0x4(%ebp),%eax
c010a135:	66 c7 40 24 02 04    	movw   $0x402,0x24(%eax)
c010a13b:	8b 45 fc             	mov    -0x4(%ebp),%eax
c010a13e:	89 45 ec             	mov    %eax,-0x14(%ebp)
c010a141:	8b 45 ec             	mov    -0x14(%ebp),%eax
c010a144:	c9                   	leave  
c010a145:	c3                   	ret    

c010a146 <vfsn_appendChild>:
c010a146:	55                   	push   %ebp
c010a147:	89 e5                	mov    %esp,%ebp
c010a149:	83 ec 18             	sub    $0x18,%esp
c010a14c:	83 7d 0c 00          	cmpl   $0x0,0xc(%ebp)
c010a150:	75 24                	jne    c010a176 <vfsn_appendChild+0x30>
c010a152:	c7 44 24 0c 2f 01 00 	movl   $0x12f,0xc(%esp)
c010a159:	00 
c010a15a:	c7 44 24 08 99 db 16 	movl   $0xc016db99,0x8(%esp)
c010a161:	c0 
c010a162:	c7 44 24 04 c5 da 16 	movl   $0xc016dac5,0x4(%esp)
c010a169:	c0 
c010a16a:	c7 04 24 ac db 16 c0 	movl   $0xc016dbac,(%esp)
c010a171:	e8 6a d8 ff ff       	call   c01079e0 <panic>
c010a176:	83 7d 08 00          	cmpl   $0x0,0x8(%ebp)
c010a17a:	74 3e                	je     c010a1ba <vfsn_appendChild+0x74>
c010a17c:	8b 45 08             	mov    0x8(%ebp),%eax
c010a17f:	8b 40 14             	mov    0x14(%eax),%eax
c010a182:	85 c0                	test   %eax,%eax
c010a184:	75 09                	jne    c010a18f <vfsn_appendChild+0x49>
c010a186:	8b 55 08             	mov    0x8(%ebp),%edx
c010a189:	8b 45 0c             	mov    0xc(%ebp),%eax
c010a18c:	89 42 14             	mov    %eax,0x14(%edx)
c010a18f:	8b 45 08             	mov    0x8(%ebp),%eax
c010a192:	8b 40 18             	mov    0x18(%eax),%eax
c010a195:	85 c0                	test   %eax,%eax
c010a197:	74 0c                	je     c010a1a5 <vfsn_appendChild+0x5f>
c010a199:	8b 45 08             	mov    0x8(%ebp),%eax
c010a19c:	8b 50 18             	mov    0x18(%eax),%edx
c010a19f:	8b 45 0c             	mov    0xc(%ebp),%eax
c010a1a2:	89 42 10             	mov    %eax,0x10(%edx)
c010a1a5:	8b 45 08             	mov    0x8(%ebp),%eax
c010a1a8:	8b 50 18             	mov    0x18(%eax),%edx
c010a1ab:	8b 45 0c             	mov    0xc(%ebp),%eax
c010a1ae:	89 50 0c             	mov    %edx,0xc(%eax)
c010a1b1:	8b 55 08             	mov    0x8(%ebp),%edx
c010a1b4:	8b 45 0c             	mov    0xc(%ebp),%eax
c010a1b7:	89 42 18             	mov    %eax,0x18(%edx)
c010a1ba:	8b 55 0c             	mov    0xc(%ebp),%edx
c010a1bd:	8b 45 08             	mov    0x8(%ebp),%eax
c010a1c0:	89 42 08             	mov    %eax,0x8(%edx)
c010a1c3:	c9                   	leave  
c010a1c4:	c3                   	ret    

c010a1c5 <vfsn_removeChild>:
c010a1c5:	55                   	push   %ebp
c010a1c6:	89 e5                	mov    %esp,%ebp
c010a1c8:	83 ec 18             	sub    $0x18,%esp
c010a1cb:	83 7d 08 00          	cmpl   $0x0,0x8(%ebp)
c010a1cf:	75 24                	jne    c010a1f5 <vfsn_removeChild+0x30>
c010a1d1:	c7 44 24 0c 3d 01 00 	movl   $0x13d,0xc(%esp)
c010a1d8:	00 
c010a1d9:	c7 44 24 08 dc db 16 	movl   $0xc016dbdc,0x8(%esp)
c010a1e0:	c0 
c010a1e1:	c7 44 24 04 c5 da 16 	movl   $0xc016dac5,0x4(%esp)
c010a1e8:	c0 
c010a1e9:	c7 04 24 f0 db 16 c0 	movl   $0xc016dbf0,(%esp)
c010a1f0:	e8 eb d7 ff ff       	call   c01079e0 <panic>
c010a1f5:	83 7d 0c 00          	cmpl   $0x0,0xc(%ebp)
c010a1f9:	75 24                	jne    c010a21f <vfsn_removeChild+0x5a>
c010a1fb:	c7 44 24 0c 3e 01 00 	movl   $0x13e,0xc(%esp)
c010a202:	00 
c010a203:	c7 44 24 08 dc db 16 	movl   $0xc016dbdc,0x8(%esp)
c010a20a:	c0 
c010a20b:	c7 44 24 04 c5 da 16 	movl   $0xc016dac5,0x4(%esp)
c010a212:	c0 
c010a213:	c7 04 24 ac db 16 c0 	movl   $0xc016dbac,(%esp)
c010a21a:	e8 c1 d7 ff ff       	call   c01079e0 <panic>
c010a21f:	8b 45 0c             	mov    0xc(%ebp),%eax
c010a222:	8b 40 0c             	mov    0xc(%eax),%eax
c010a225:	85 c0                	test   %eax,%eax
c010a227:	74 11                	je     c010a23a <vfsn_removeChild+0x75>
c010a229:	8b 45 0c             	mov    0xc(%ebp),%eax
c010a22c:	8b 50 0c             	mov    0xc(%eax),%edx
c010a22f:	8b 45 0c             	mov    0xc(%ebp),%eax
c010a232:	8b 40 10             	mov    0x10(%eax),%eax
c010a235:	89 42 10             	mov    %eax,0x10(%edx)
c010a238:	eb 0c                	jmp    c010a246 <vfsn_removeChild+0x81>
c010a23a:	8b 45 0c             	mov    0xc(%ebp),%eax
c010a23d:	8b 50 10             	mov    0x10(%eax),%edx
c010a240:	8b 45 08             	mov    0x8(%ebp),%eax
c010a243:	89 50 14             	mov    %edx,0x14(%eax)
c010a246:	8b 45 0c             	mov    0xc(%ebp),%eax
c010a249:	8b 40 10             	mov    0x10(%eax),%eax
c010a24c:	85 c0                	test   %eax,%eax
c010a24e:	74 11                	je     c010a261 <vfsn_removeChild+0x9c>
c010a250:	8b 45 0c             	mov    0xc(%ebp),%eax
c010a253:	8b 50 10             	mov    0x10(%eax),%edx
c010a256:	8b 45 0c             	mov    0xc(%ebp),%eax
c010a259:	8b 40 0c             	mov    0xc(%eax),%eax
c010a25c:	89 42 0c             	mov    %eax,0xc(%edx)
c010a25f:	eb 0c                	jmp    c010a26d <vfsn_removeChild+0xa8>
c010a261:	8b 45 0c             	mov    0xc(%ebp),%eax
c010a264:	8b 50 0c             	mov    0xc(%eax),%edx
c010a267:	8b 45 08             	mov    0x8(%ebp),%eax
c010a26a:	89 50 18             	mov    %edx,0x18(%eax)
c010a26d:	8b 45 0c             	mov    0xc(%ebp),%eax
c010a270:	89 04 24             	mov    %eax,(%esp)
c010a273:	e8 cb 01 00 00       	call   c010a443 <vfsn_releaseNode>
c010a278:	c9                   	leave  
c010a279:	c3                   	ret    

c010a27a <vfsn_createServiceUse>:
c010a27a:	55                   	push   %ebp
c010a27b:	89 e5                	mov    %esp,%ebp
c010a27d:	83 ec 28             	sub    $0x28,%esp
c010a280:	e8 db ab ff ff       	call   c0104e60 <proc_getRunning>
c010a285:	89 45 fc             	mov    %eax,-0x4(%ebp)
c010a288:	8b 45 08             	mov    0x8(%ebp),%eax
c010a28b:	0f b6 40 05          	movzbl 0x5(%eax),%eax
c010a28f:	0f b6 c0             	movzbl %al,%eax
c010a292:	83 e0 04             	and    $0x4,%eax
c010a295:	85 c0                	test   %eax,%eax
c010a297:	74 72                	je     c010a30b <vfsn_createServiceUse+0x91>
c010a299:	8b 45 08             	mov    0x8(%ebp),%eax
c010a29c:	0f b6 40 04          	movzbl 0x4(%eax),%eax
c010a2a0:	3c 01                	cmp    $0x1,%al
c010a2a2:	74 0b                	je     c010a2af <vfsn_createServiceUse+0x35>
c010a2a4:	8b 45 08             	mov    0x8(%ebp),%eax
c010a2a7:	8b 40 14             	mov    0x14(%eax),%eax
c010a2aa:	89 45 e4             	mov    %eax,-0x1c(%ebp)
c010a2ad:	eb 0c                	jmp    c010a2bb <vfsn_createServiceUse+0x41>
c010a2af:	8b 45 08             	mov    0x8(%ebp),%eax
c010a2b2:	8b 40 28             	mov    0x28(%eax),%eax
c010a2b5:	8b 40 14             	mov    0x14(%eax),%eax
c010a2b8:	89 45 e4             	mov    %eax,-0x1c(%ebp)
c010a2bb:	8b 45 e4             	mov    -0x1c(%ebp),%eax
c010a2be:	89 45 f8             	mov    %eax,-0x8(%ebp)
c010a2c1:	eb 36                	jmp    c010a2f9 <vfsn_createServiceUse+0x7f>
c010a2c3:	8b 45 f8             	mov    -0x8(%ebp),%eax
c010a2c6:	8b 00                	mov    (%eax),%eax
c010a2c8:	c7 44 24 04 22 dc 16 	movl   $0xc016dc22,0x4(%esp)
c010a2cf:	c0 
c010a2d0:	89 04 24             	mov    %eax,(%esp)
c010a2d3:	e8 33 23 00 00       	call   c010c60b <strcmp>
c010a2d8:	85 c0                	test   %eax,%eax
c010a2da:	75 14                	jne    c010a2f0 <vfsn_createServiceUse+0x76>
c010a2dc:	8b 55 0c             	mov    0xc(%ebp),%edx
c010a2df:	8b 45 f8             	mov    -0x8(%ebp),%eax
c010a2e2:	89 02                	mov    %eax,(%edx)
c010a2e4:	c7 45 e8 00 00 00 00 	movl   $0x0,-0x18(%ebp)
c010a2eb:	e9 19 01 00 00       	jmp    c010a409 <vfsn_createServiceUse+0x18f>
c010a2f0:	8b 45 f8             	mov    -0x8(%ebp),%eax
c010a2f3:	8b 40 10             	mov    0x10(%eax),%eax
c010a2f6:	89 45 f8             	mov    %eax,-0x8(%ebp)
c010a2f9:	83 7d f8 00          	cmpl   $0x0,-0x8(%ebp)
c010a2fd:	75 c4                	jne    c010a2c3 <vfsn_createServiceUse+0x49>
c010a2ff:	c7 45 f4 22 dc 16 c0 	movl   $0xc016dc22,-0xc(%ebp)
c010a306:	e9 a7 00 00 00       	jmp    c010a3b2 <vfsn_createServiceUse+0x138>
c010a30b:	c7 04 24 0c 00 00 00 	movl   $0xc,(%esp)
c010a312:	e8 5d 79 ff ff       	call   c0101c74 <kheap_alloc>
c010a317:	89 45 f4             	mov    %eax,-0xc(%ebp)
c010a31a:	83 7d f4 00          	cmpl   $0x0,-0xc(%ebp)
c010a31e:	75 0c                	jne    c010a32c <vfsn_createServiceUse+0xb2>
c010a320:	c7 45 e8 f5 ff ff ff 	movl   $0xfffffff5,-0x18(%ebp)
c010a327:	e9 dd 00 00 00       	jmp    c010a409 <vfsn_createServiceUse+0x18f>
c010a32c:	8b 45 fc             	mov    -0x4(%ebp),%eax
c010a32f:	0f b7 40 02          	movzwl 0x2(%eax),%eax
c010a333:	0f b7 c0             	movzwl %ax,%eax
c010a336:	89 44 24 04          	mov    %eax,0x4(%esp)
c010a33a:	8b 45 f4             	mov    -0xc(%ebp),%eax
c010a33d:	89 04 24             	mov    %eax,(%esp)
c010a340:	e8 e9 1c 00 00       	call   c010c02e <itoa>
c010a345:	8b 45 08             	mov    0x8(%ebp),%eax
c010a348:	0f b6 40 04          	movzbl 0x4(%eax),%eax
c010a34c:	3c 01                	cmp    $0x1,%al
c010a34e:	74 0b                	je     c010a35b <vfsn_createServiceUse+0xe1>
c010a350:	8b 45 08             	mov    0x8(%ebp),%eax
c010a353:	8b 40 14             	mov    0x14(%eax),%eax
c010a356:	89 45 ec             	mov    %eax,-0x14(%ebp)
c010a359:	eb 0c                	jmp    c010a367 <vfsn_createServiceUse+0xed>
c010a35b:	8b 45 08             	mov    0x8(%ebp),%eax
c010a35e:	8b 40 28             	mov    0x28(%eax),%eax
c010a361:	8b 40 14             	mov    0x14(%eax),%eax
c010a364:	89 45 ec             	mov    %eax,-0x14(%ebp)
c010a367:	8b 45 ec             	mov    -0x14(%ebp),%eax
c010a36a:	89 45 f8             	mov    %eax,-0x8(%ebp)
c010a36d:	eb 3d                	jmp    c010a3ac <vfsn_createServiceUse+0x132>
c010a36f:	8b 45 f8             	mov    -0x8(%ebp),%eax
c010a372:	8b 10                	mov    (%eax),%edx
c010a374:	8b 45 f4             	mov    -0xc(%ebp),%eax
c010a377:	89 44 24 04          	mov    %eax,0x4(%esp)
c010a37b:	89 14 24             	mov    %edx,(%esp)
c010a37e:	e8 88 22 00 00       	call   c010c60b <strcmp>
c010a383:	85 c0                	test   %eax,%eax
c010a385:	75 1c                	jne    c010a3a3 <vfsn_createServiceUse+0x129>
c010a387:	8b 45 f4             	mov    -0xc(%ebp),%eax
c010a38a:	89 04 24             	mov    %eax,(%esp)
c010a38d:	e8 39 7a ff ff       	call   c0101dcb <kheap_free>
c010a392:	8b 55 0c             	mov    0xc(%ebp),%edx
c010a395:	8b 45 f8             	mov    -0x8(%ebp),%eax
c010a398:	89 02                	mov    %eax,(%edx)
c010a39a:	c7 45 e8 00 00 00 00 	movl   $0x0,-0x18(%ebp)
c010a3a1:	eb 66                	jmp    c010a409 <vfsn_createServiceUse+0x18f>
c010a3a3:	8b 45 f8             	mov    -0x8(%ebp),%eax
c010a3a6:	8b 40 10             	mov    0x10(%eax),%eax
c010a3a9:	89 45 f8             	mov    %eax,-0x8(%ebp)
c010a3ac:	83 7d f8 00          	cmpl   $0x0,-0x8(%ebp)
c010a3b0:	75 bd                	jne    c010a36f <vfsn_createServiceUse+0xf5>
c010a3b2:	c7 44 24 08 65 8f 10 	movl   $0xc0108f65,0x8(%esp)
c010a3b9:	c0 
c010a3ba:	8b 45 f4             	mov    -0xc(%ebp),%eax
c010a3bd:	89 44 24 04          	mov    %eax,0x4(%esp)
c010a3c1:	8b 45 08             	mov    0x8(%ebp),%eax
c010a3c4:	89 04 24             	mov    %eax,(%esp)
c010a3c7:	e8 15 fd ff ff       	call   c010a0e1 <vfsn_createServiceUseNode>
c010a3cc:	89 45 f8             	mov    %eax,-0x8(%ebp)
c010a3cf:	83 7d f8 00          	cmpl   $0x0,-0x8(%ebp)
c010a3d3:	75 25                	jne    c010a3fa <vfsn_createServiceUse+0x180>
c010a3d5:	8b 45 08             	mov    0x8(%ebp),%eax
c010a3d8:	0f b6 40 05          	movzbl 0x5(%eax),%eax
c010a3dc:	0f b6 c0             	movzbl %al,%eax
c010a3df:	83 e0 04             	and    $0x4,%eax
c010a3e2:	85 c0                	test   %eax,%eax
c010a3e4:	75 0b                	jne    c010a3f1 <vfsn_createServiceUse+0x177>
c010a3e6:	8b 45 f4             	mov    -0xc(%ebp),%eax
c010a3e9:	89 04 24             	mov    %eax,(%esp)
c010a3ec:	e8 da 79 ff ff       	call   c0101dcb <kheap_free>
c010a3f1:	c7 45 e8 f5 ff ff ff 	movl   $0xfffffff5,-0x18(%ebp)
c010a3f8:	eb 0f                	jmp    c010a409 <vfsn_createServiceUse+0x18f>
c010a3fa:	8b 55 0c             	mov    0xc(%ebp),%edx
c010a3fd:	8b 45 f8             	mov    -0x8(%ebp),%eax
c010a400:	89 02                	mov    %eax,(%edx)
c010a402:	c7 45 e8 00 00 00 00 	movl   $0x0,-0x18(%ebp)
c010a409:	8b 45 e8             	mov    -0x18(%ebp),%eax
c010a40c:	c9                   	leave  
c010a40d:	c3                   	ret    

c010a40e <vfsn_requestNode>:
c010a40e:	55                   	push   %ebp
c010a40f:	89 e5                	mov    %esp,%ebp
c010a411:	83 ec 18             	sub    $0x18,%esp
c010a414:	a1 a4 da 23 c0       	mov    0xc023daa4,%eax
c010a419:	85 c0                	test   %eax,%eax
c010a41b:	75 0c                	jne    c010a429 <vfsn_requestNode+0x1b>
c010a41d:	c7 04 24 24 dc 16 c0 	movl   $0xc016dc24,(%esp)
c010a424:	e8 b7 d5 ff ff       	call   c01079e0 <panic>
c010a429:	a1 a4 da 23 c0       	mov    0xc023daa4,%eax
c010a42e:	89 45 fc             	mov    %eax,-0x4(%ebp)
c010a431:	a1 a4 da 23 c0       	mov    0xc023daa4,%eax
c010a436:	8b 40 10             	mov    0x10(%eax),%eax
c010a439:	a3 a4 da 23 c0       	mov    %eax,0xc023daa4
c010a43e:	8b 45 fc             	mov    -0x4(%ebp),%eax
c010a441:	c9                   	leave  
c010a442:	c3                   	ret    

c010a443 <vfsn_releaseNode>:
c010a443:	55                   	push   %ebp
c010a444:	89 e5                	mov    %esp,%ebp
c010a446:	83 ec 18             	sub    $0x18,%esp
c010a449:	83 7d 08 00          	cmpl   $0x0,0x8(%ebp)
c010a44d:	75 24                	jne    c010a473 <vfsn_releaseNode+0x30>
c010a44f:	c7 44 24 0c 8a 01 00 	movl   $0x18a,0xc(%esp)
c010a456:	00 
c010a457:	c7 44 24 08 37 dc 16 	movl   $0xc016dc37,0x8(%esp)
c010a45e:	c0 
c010a45f:	c7 44 24 04 c5 da 16 	movl   $0xc016dac5,0x4(%esp)
c010a466:	c0 
c010a467:	c7 04 24 ac db 16 c0 	movl   $0xc016dbac,(%esp)
c010a46e:	e8 6d d5 ff ff       	call   c01079e0 <panic>
c010a473:	8b 45 08             	mov    0x8(%ebp),%eax
c010a476:	c7 00 00 00 00 00    	movl   $0x0,(%eax)
c010a47c:	8b 15 a4 da 23 c0    	mov    0xc023daa4,%edx
c010a482:	8b 45 08             	mov    0x8(%ebp),%eax
c010a485:	89 50 10             	mov    %edx,0x10(%eax)
c010a488:	8b 45 08             	mov    0x8(%ebp),%eax
c010a48b:	a3 a4 da 23 c0       	mov    %eax,0xc023daa4
c010a490:	c9                   	leave  
c010a491:	c3                   	ret    

c010a492 <vfsn_doPrintTree>:
c010a492:	55                   	push   %ebp
c010a493:	89 e5                	mov    %esp,%ebp
c010a495:	83 ec 28             	sub    $0x28,%esp
c010a498:	8b 45 0c             	mov    0xc(%ebp),%eax
c010a49b:	0f b6 40 04          	movzbl 0x4(%eax),%eax
c010a49f:	3c 01                	cmp    $0x1,%al
c010a4a1:	74 0b                	je     c010a4ae <vfsn_doPrintTree+0x1c>
c010a4a3:	8b 45 0c             	mov    0xc(%ebp),%eax
c010a4a6:	8b 40 14             	mov    0x14(%eax),%eax
c010a4a9:	89 45 ec             	mov    %eax,-0x14(%ebp)
c010a4ac:	eb 0c                	jmp    c010a4ba <vfsn_doPrintTree+0x28>
c010a4ae:	8b 45 0c             	mov    0xc(%ebp),%eax
c010a4b1:	8b 40 28             	mov    0x28(%eax),%eax
c010a4b4:	8b 40 14             	mov    0x14(%eax),%eax
c010a4b7:	89 45 ec             	mov    %eax,-0x14(%ebp)
c010a4ba:	8b 45 ec             	mov    -0x14(%ebp),%eax
c010a4bd:	89 45 fc             	mov    %eax,-0x4(%ebp)
c010a4c0:	e9 96 00 00 00       	jmp    c010a55b <vfsn_doPrintTree+0xc9>
c010a4c5:	c7 45 f8 00 00 00 00 	movl   $0x0,-0x8(%ebp)
c010a4cc:	eb 10                	jmp    c010a4de <vfsn_doPrintTree+0x4c>
c010a4ce:	c7 04 24 48 dc 16 c0 	movl   $0xc016dc48,(%esp)
c010a4d5:	e8 6b 0f 00 00       	call   c010b445 <vid_printf>
c010a4da:	83 45 f8 01          	addl   $0x1,-0x8(%ebp)
c010a4de:	8b 45 f8             	mov    -0x8(%ebp),%eax
c010a4e1:	3b 45 08             	cmp    0x8(%ebp),%eax
c010a4e4:	72 e8                	jb     c010a4ce <vfsn_doPrintTree+0x3c>
c010a4e6:	8b 45 fc             	mov    -0x4(%ebp),%eax
c010a4e9:	8b 00                	mov    (%eax),%eax
c010a4eb:	89 44 24 04          	mov    %eax,0x4(%esp)
c010a4ef:	c7 04 24 4b dc 16 c0 	movl   $0xc016dc4b,(%esp)
c010a4f6:	e8 4a 0f 00 00       	call   c010b445 <vid_printf>
c010a4fb:	8b 45 fc             	mov    -0x4(%ebp),%eax
c010a4fe:	8b 00                	mov    (%eax),%eax
c010a500:	c7 44 24 08 01 00 00 	movl   $0x1,0x8(%esp)
c010a507:	00 
c010a508:	c7 44 24 04 94 db 16 	movl   $0xc016db94,0x4(%esp)
c010a50f:	c0 
c010a510:	89 04 24             	mov    %eax,(%esp)
c010a513:	e8 e1 21 00 00       	call   c010c6f9 <strncmp>
c010a518:	85 c0                	test   %eax,%eax
c010a51a:	74 36                	je     c010a552 <vfsn_doPrintTree+0xc0>
c010a51c:	8b 45 fc             	mov    -0x4(%ebp),%eax
c010a51f:	8b 00                	mov    (%eax),%eax
c010a521:	c7 44 24 08 02 00 00 	movl   $0x2,0x8(%esp)
c010a528:	00 
c010a529:	c7 44 24 04 96 db 16 	movl   $0xc016db96,0x4(%esp)
c010a530:	c0 
c010a531:	89 04 24             	mov    %eax,(%esp)
c010a534:	e8 c0 21 00 00       	call   c010c6f9 <strncmp>
c010a539:	85 c0                	test   %eax,%eax
c010a53b:	74 15                	je     c010a552 <vfsn_doPrintTree+0xc0>
c010a53d:	8b 45 08             	mov    0x8(%ebp),%eax
c010a540:	8d 50 01             	lea    0x1(%eax),%edx
c010a543:	8b 45 fc             	mov    -0x4(%ebp),%eax
c010a546:	89 44 24 04          	mov    %eax,0x4(%esp)
c010a54a:	89 14 24             	mov    %edx,(%esp)
c010a54d:	e8 40 ff ff ff       	call   c010a492 <vfsn_doPrintTree>
c010a552:	8b 45 fc             	mov    -0x4(%ebp),%eax
c010a555:	8b 40 10             	mov    0x10(%eax),%eax
c010a558:	89 45 fc             	mov    %eax,-0x4(%ebp)
c010a55b:	83 7d fc 00          	cmpl   $0x0,-0x4(%ebp)
c010a55f:	0f 85 60 ff ff ff    	jne    c010a4c5 <vfsn_doPrintTree+0x33>
c010a565:	c9                   	leave  
c010a566:	c3                   	ret    

c010a567 <vfsn_dbg_printTree>:
c010a567:	55                   	push   %ebp
c010a568:	89 e5                	mov    %esp,%ebp
c010a56a:	83 ec 08             	sub    $0x8,%esp
c010a56d:	c7 04 24 51 dc 16 c0 	movl   $0xc016dc51,(%esp)
c010a574:	e8 cc 0e 00 00       	call   c010b445 <vid_printf>
c010a579:	c7 04 24 57 dc 16 c0 	movl   $0xc016dc57,(%esp)
c010a580:	e8 c0 0e 00 00       	call   c010b445 <vid_printf>
c010a585:	c7 44 24 04 00 20 17 	movl   $0xc0172000,0x4(%esp)
c010a58c:	c0 
c010a58d:	c7 04 24 01 00 00 00 	movl   $0x1,(%esp)
c010a594:	e8 f9 fe ff ff       	call   c010a492 <vfsn_doPrintTree>
c010a599:	c9                   	leave  
c010a59a:	c3                   	ret    

c010a59b <vfsn_dbg_printNode>:
c010a59b:	55                   	push   %ebp
c010a59c:	89 e5                	mov    %esp,%ebp
c010a59e:	83 ec 18             	sub    $0x18,%esp
c010a5a1:	8b 45 08             	mov    0x8(%ebp),%eax
c010a5a4:	89 44 24 04          	mov    %eax,0x4(%esp)
c010a5a8:	c7 04 24 5a dc 16 c0 	movl   $0xc016dc5a,(%esp)
c010a5af:	e8 91 0e 00 00       	call   c010b445 <vid_printf>
c010a5b4:	83 7d 08 00          	cmpl   $0x0,0x8(%ebp)
c010a5b8:	0f 84 68 01 00 00    	je     c010a726 <vfsn_dbg_printNode+0x18b>
c010a5be:	8b 45 08             	mov    0x8(%ebp),%eax
c010a5c1:	8b 00                	mov    (%eax),%eax
c010a5c3:	89 44 24 04          	mov    %eax,0x4(%esp)
c010a5c7:	c7 04 24 6b dc 16 c0 	movl   $0xc016dc6b,(%esp)
c010a5ce:	e8 72 0e 00 00       	call   c010b445 <vid_printf>
c010a5d3:	8b 45 08             	mov    0x8(%ebp),%eax
c010a5d6:	0f b6 40 04          	movzbl 0x4(%eax),%eax
c010a5da:	84 c0                	test   %al,%al
c010a5dc:	74 23                	je     c010a601 <vfsn_dbg_printNode+0x66>
c010a5de:	8b 45 08             	mov    0x8(%ebp),%eax
c010a5e1:	0f b6 40 04          	movzbl 0x4(%eax),%eax
c010a5e5:	3c 02                	cmp    $0x2,%al
c010a5e7:	75 09                	jne    c010a5f2 <vfsn_dbg_printNode+0x57>
c010a5e9:	c7 45 fc 76 dc 16 c0 	movl   $0xc016dc76,-0x4(%ebp)
c010a5f0:	eb 07                	jmp    c010a5f9 <vfsn_dbg_printNode+0x5e>
c010a5f2:	c7 45 fc 7b dc 16 c0 	movl   $0xc016dc7b,-0x4(%ebp)
c010a5f9:	8b 45 fc             	mov    -0x4(%ebp),%eax
c010a5fc:	89 45 f8             	mov    %eax,-0x8(%ebp)
c010a5ff:	eb 07                	jmp    c010a608 <vfsn_dbg_printNode+0x6d>
c010a601:	c7 45 f8 83 dc 16 c0 	movl   $0xc016dc83,-0x8(%ebp)
c010a608:	8b 45 f8             	mov    -0x8(%ebp),%eax
c010a60b:	89 44 24 04          	mov    %eax,0x4(%esp)
c010a60f:	c7 04 24 87 dc 16 c0 	movl   $0xc016dc87,(%esp)
c010a616:	e8 2a 0e 00 00       	call   c010b445 <vid_printf>
c010a61b:	8b 45 08             	mov    0x8(%ebp),%eax
c010a61e:	8b 40 14             	mov    0x14(%eax),%eax
c010a621:	89 44 24 04          	mov    %eax,0x4(%esp)
c010a625:	c7 04 24 92 dc 16 c0 	movl   $0xc016dc92,(%esp)
c010a62c:	e8 14 0e 00 00       	call   c010b445 <vid_printf>
c010a631:	8b 45 08             	mov    0x8(%ebp),%eax
c010a634:	8b 40 18             	mov    0x18(%eax),%eax
c010a637:	89 44 24 04          	mov    %eax,0x4(%esp)
c010a63b:	c7 04 24 a5 dc 16 c0 	movl   $0xc016dca5,(%esp)
c010a642:	e8 fe 0d 00 00       	call   c010b445 <vid_printf>
c010a647:	8b 45 08             	mov    0x8(%ebp),%eax
c010a64a:	8b 40 10             	mov    0x10(%eax),%eax
c010a64d:	89 44 24 04          	mov    %eax,0x4(%esp)
c010a651:	c7 04 24 b7 dc 16 c0 	movl   $0xc016dcb7,(%esp)
c010a658:	e8 e8 0d 00 00       	call   c010b445 <vid_printf>
c010a65d:	8b 45 08             	mov    0x8(%ebp),%eax
c010a660:	8b 40 0c             	mov    0xc(%eax),%eax
c010a663:	89 44 24 04          	mov    %eax,0x4(%esp)
c010a667:	c7 04 24 c4 dc 16 c0 	movl   $0xc016dcc4,(%esp)
c010a66e:	e8 d2 0d 00 00       	call   c010b445 <vid_printf>
c010a673:	8b 45 08             	mov    0x8(%ebp),%eax
c010a676:	0f b7 40 20          	movzwl 0x20(%eax),%eax
c010a67a:	0f b7 c0             	movzwl %ax,%eax
c010a67d:	89 44 24 04          	mov    %eax,0x4(%esp)
c010a681:	c7 04 24 d1 dc 16 c0 	movl   $0xc016dcd1,(%esp)
c010a688:	e8 b8 0d 00 00       	call   c010b445 <vid_printf>
c010a68d:	8b 45 08             	mov    0x8(%ebp),%eax
c010a690:	0f b6 40 04          	movzbl 0x4(%eax),%eax
c010a694:	3c 04                	cmp    $0x4,%al
c010a696:	75 2e                	jne    c010a6c6 <vfsn_dbg_printNode+0x12b>
c010a698:	8b 45 08             	mov    0x8(%ebp),%eax
c010a69b:	8b 40 28             	mov    0x28(%eax),%eax
c010a69e:	89 44 24 04          	mov    %eax,0x4(%esp)
c010a6a2:	c7 04 24 dd dc 16 c0 	movl   $0xc016dcdd,(%esp)
c010a6a9:	e8 97 0d 00 00       	call   c010b445 <vid_printf>
c010a6ae:	8b 45 08             	mov    0x8(%ebp),%eax
c010a6b1:	8b 40 2c             	mov    0x2c(%eax),%eax
c010a6b4:	89 44 24 04          	mov    %eax,0x4(%esp)
c010a6b8:	c7 04 24 ee dc 16 c0 	movl   $0xc016dcee,(%esp)
c010a6bf:	e8 81 0d 00 00       	call   c010b445 <vid_printf>
c010a6c4:	eb 60                	jmp    c010a726 <vfsn_dbg_printNode+0x18b>
c010a6c6:	8b 45 08             	mov    0x8(%ebp),%eax
c010a6c9:	8b 40 1c             	mov    0x1c(%eax),%eax
c010a6cc:	89 44 24 04          	mov    %eax,0x4(%esp)
c010a6d0:	c7 04 24 ff dc 16 c0 	movl   $0xc016dcff,(%esp)
c010a6d7:	e8 69 0d 00 00       	call   c010b445 <vid_printf>
c010a6dc:	8b 45 08             	mov    0x8(%ebp),%eax
c010a6df:	8b 40 28             	mov    0x28(%eax),%eax
c010a6e2:	89 44 24 04          	mov    %eax,0x4(%esp)
c010a6e6:	c7 04 24 13 dd 16 c0 	movl   $0xc016dd13,(%esp)
c010a6ed:	e8 53 0d 00 00       	call   c010b445 <vid_printf>
c010a6f2:	8b 45 08             	mov    0x8(%ebp),%eax
c010a6f5:	0f b7 40 24          	movzwl 0x24(%eax),%eax
c010a6f9:	0f b7 c0             	movzwl %ax,%eax
c010a6fc:	89 44 24 04          	mov    %eax,0x4(%esp)
c010a700:	c7 04 24 21 dd 16 c0 	movl   $0xc016dd21,(%esp)
c010a707:	e8 39 0d 00 00       	call   c010b445 <vid_printf>
c010a70c:	8b 45 08             	mov    0x8(%ebp),%eax
c010a70f:	0f b7 40 26          	movzwl 0x26(%eax),%eax
c010a713:	0f b7 c0             	movzwl %ax,%eax
c010a716:	89 44 24 04          	mov    %eax,0x4(%esp)
c010a71a:	c7 04 24 2c dd 16 c0 	movl   $0xc016dd2c,(%esp)
c010a721:	e8 1f 0d 00 00       	call   c010b445 <vid_printf>
c010a726:	c9                   	leave  
c010a727:	c3                   	ret    

c010a728 <vfsr_setFSService>:
c010a728:	55                   	push   %ebp
c010a729:	89 e5                	mov    %esp,%ebp
c010a72b:	83 ec 08             	sub    $0x8,%esp
c010a72e:	8b 45 08             	mov    0x8(%ebp),%eax
c010a731:	89 44 24 04          	mov    %eax,0x4(%esp)
c010a735:	c7 04 24 01 04 00 00 	movl   $0x401,(%esp)
c010a73c:	e8 d7 d9 ff ff       	call   c0108118 <vfs_openFileForKernel>
c010a741:	a3 cc ae 16 c0       	mov    %eax,0xc016aecc
c010a746:	a1 cc ae 16 c0       	mov    0xc016aecc,%eax
c010a74b:	85 c0                	test   %eax,%eax
c010a74d:	78 2a                	js     c010a779 <vfsr_setFSService+0x51>
c010a74f:	e8 08 11 00 00       	call   c010b85c <sll_create>
c010a754:	a3 a8 da 23 c0       	mov    %eax,0xc023daa8
c010a759:	a1 a8 da 23 c0       	mov    0xc023daa8,%eax
c010a75e:	85 c0                	test   %eax,%eax
c010a760:	75 17                	jne    c010a779 <vfsr_setFSService+0x51>
c010a762:	a1 cc ae 16 c0       	mov    0xc016aecc,%eax
c010a767:	89 04 24             	mov    %eax,(%esp)
c010a76a:	e8 a7 dd ff ff       	call   c0108516 <vfs_closeFile>
c010a76f:	c7 05 cc ae 16 c0 ff 	movl   $0xffffffff,0xc016aecc
c010a776:	ff ff ff 
c010a779:	c9                   	leave  
c010a77a:	c3                   	ret    

c010a77b <vfsr_checkForMsgs>:
c010a77b:	55                   	push   %ebp
c010a77c:	89 e5                	mov    %esp,%ebp
c010a77e:	83 ec 38             	sub    $0x38,%esp
c010a781:	a1 a8 da 23 c0       	mov    0xc023daa8,%eax
c010a786:	89 04 24             	mov    %eax,(%esp)
c010a789:	e8 cf 11 00 00       	call   c010b95d <sll_length>
c010a78e:	85 c0                	test   %eax,%eax
c010a790:	0f 84 3d 02 00 00    	je     c010a9d3 <vfsr_checkForMsgs+0x258>
c010a796:	e9 0c 02 00 00       	jmp    c010a9a7 <vfsr_checkForMsgs+0x22c>
c010a79b:	0f b6 45 f0          	movzbl -0x10(%ebp),%eax
c010a79f:	0f b6 c0             	movzbl %al,%eax
c010a7a2:	89 45 dc             	mov    %eax,-0x24(%ebp)
c010a7a5:	83 7d dc 05          	cmpl   $0x5,-0x24(%ebp)
c010a7a9:	0f 84 99 00 00 00    	je     c010a848 <vfsr_checkForMsgs+0xcd>
c010a7af:	83 7d dc 06          	cmpl   $0x6,-0x24(%ebp)
c010a7b3:	0f 84 72 01 00 00    	je     c010a92b <vfsr_checkForMsgs+0x1b0>
c010a7b9:	83 7d dc 04          	cmpl   $0x4,-0x24(%ebp)
c010a7bd:	0f 85 e4 01 00 00    	jne    c010a9a7 <vfsr_checkForMsgs+0x22c>
c010a7c3:	8d 45 e8             	lea    -0x18(%ebp),%eax
c010a7c6:	8b 15 cc ae 16 c0    	mov    0xc016aecc,%edx
c010a7cc:	c7 44 24 0c 08 00 00 	movl   $0x8,0xc(%esp)
c010a7d3:	00 
c010a7d4:	89 44 24 08          	mov    %eax,0x8(%esp)
c010a7d8:	89 54 24 04          	mov    %edx,0x4(%esp)
c010a7dc:	c7 04 24 01 04 00 00 	movl   $0x401,(%esp)
c010a7e3:	e8 58 da ff ff       	call   c0108240 <vfs_readFile>
c010a7e8:	0f b7 45 e8          	movzwl -0x18(%ebp),%eax
c010a7ec:	0f b7 c0             	movzwl %ax,%eax
c010a7ef:	89 04 24             	mov    %eax,(%esp)
c010a7f2:	e8 76 06 00 00       	call   c010ae6d <vfsr_getRequestByPid>
c010a7f7:	89 45 f8             	mov    %eax,-0x8(%ebp)
c010a7fa:	83 7d f8 00          	cmpl   $0x0,-0x8(%ebp)
c010a7fe:	0f 84 a3 01 00 00    	je     c010a9a7 <vfsr_checkForMsgs+0x22c>
c010a804:	8b 15 a8 da 23 c0    	mov    0xc023daa8,%edx
c010a80a:	8b 45 f8             	mov    -0x8(%ebp),%eax
c010a80d:	89 44 24 04          	mov    %eax,0x4(%esp)
c010a811:	89 14 24             	mov    %edx,(%esp)
c010a814:	e8 b9 14 00 00       	call   c010bcd2 <sll_removeFirst>
c010a819:	8b 45 f8             	mov    -0x8(%ebp),%eax
c010a81c:	c7 40 04 01 00 00 00 	movl   $0x1,0x4(%eax)
c010a823:	8b 55 ec             	mov    -0x14(%ebp),%edx
c010a826:	8b 45 f8             	mov    -0x8(%ebp),%eax
c010a829:	89 50 08             	mov    %edx,0x8(%eax)
c010a82c:	0f b7 45 e8          	movzwl -0x18(%ebp),%eax
c010a830:	0f b7 c0             	movzwl %ax,%eax
c010a833:	89 04 24             	mov    %eax,(%esp)
c010a836:	e8 48 a6 ff ff       	call   c0104e83 <proc_getByPid>
c010a83b:	89 04 24             	mov    %eax,(%esp)
c010a83e:	e8 73 b9 ff ff       	call   c01061b6 <sched_setReady>
c010a843:	e9 5f 01 00 00       	jmp    c010a9a7 <vfsr_checkForMsgs+0x22c>
c010a848:	8b 45 f4             	mov    -0xc(%ebp),%eax
c010a84b:	89 04 24             	mov    %eax,(%esp)
c010a84e:	e8 21 74 ff ff       	call   c0101c74 <kheap_alloc>
c010a853:	89 45 fc             	mov    %eax,-0x4(%ebp)
c010a856:	8b 45 f4             	mov    -0xc(%ebp),%eax
c010a859:	8b 55 fc             	mov    -0x4(%ebp),%edx
c010a85c:	8b 0d cc ae 16 c0    	mov    0xc016aecc,%ecx
c010a862:	89 44 24 0c          	mov    %eax,0xc(%esp)
c010a866:	89 54 24 08          	mov    %edx,0x8(%esp)
c010a86a:	89 4c 24 04          	mov    %ecx,0x4(%esp)
c010a86e:	c7 04 24 01 04 00 00 	movl   $0x401,(%esp)
c010a875:	e8 c6 d9 ff ff       	call   c0108240 <vfs_readFile>
c010a87a:	8b 45 fc             	mov    -0x4(%ebp),%eax
c010a87d:	0f b7 00             	movzwl (%eax),%eax
c010a880:	0f b7 c0             	movzwl %ax,%eax
c010a883:	89 04 24             	mov    %eax,(%esp)
c010a886:	e8 e2 05 00 00       	call   c010ae6d <vfsr_getRequestByPid>
c010a88b:	89 45 f8             	mov    %eax,-0x8(%ebp)
c010a88e:	83 7d f8 00          	cmpl   $0x0,-0x8(%ebp)
c010a892:	0f 84 86 00 00 00    	je     c010a91e <vfsr_checkForMsgs+0x1a3>
c010a898:	8b 15 a8 da 23 c0    	mov    0xc023daa8,%edx
c010a89e:	8b 45 f8             	mov    -0x8(%ebp),%eax
c010a8a1:	89 44 24 04          	mov    %eax,0x4(%esp)
c010a8a5:	89 14 24             	mov    %edx,(%esp)
c010a8a8:	e8 25 14 00 00       	call   c010bcd2 <sll_removeFirst>
c010a8ad:	8b 45 f8             	mov    -0x8(%ebp),%eax
c010a8b0:	c7 40 04 01 00 00 00 	movl   $0x1,0x4(%eax)
c010a8b7:	8b 45 fc             	mov    -0x4(%ebp),%eax
c010a8ba:	8b 50 04             	mov    0x4(%eax),%edx
c010a8bd:	8b 45 f8             	mov    -0x8(%ebp),%eax
c010a8c0:	89 50 14             	mov    %edx,0x14(%eax)
c010a8c3:	8b 45 fc             	mov    -0x4(%ebp),%eax
c010a8c6:	8b 40 04             	mov    0x4(%eax),%eax
c010a8c9:	89 04 24             	mov    %eax,(%esp)
c010a8cc:	e8 a3 73 ff ff       	call   c0101c74 <kheap_alloc>
c010a8d1:	89 c2                	mov    %eax,%edx
c010a8d3:	8b 45 f8             	mov    -0x8(%ebp),%eax
c010a8d6:	89 50 0c             	mov    %edx,0xc(%eax)
c010a8d9:	8b 45 f8             	mov    -0x8(%ebp),%eax
c010a8dc:	8b 40 0c             	mov    0xc(%eax),%eax
c010a8df:	85 c0                	test   %eax,%eax
c010a8e1:	74 22                	je     c010a905 <vfsr_checkForMsgs+0x18a>
c010a8e3:	8b 45 fc             	mov    -0x4(%ebp),%eax
c010a8e6:	8b 50 04             	mov    0x4(%eax),%edx
c010a8e9:	8b 45 fc             	mov    -0x4(%ebp),%eax
c010a8ec:	8d 48 08             	lea    0x8(%eax),%ecx
c010a8ef:	8b 45 f8             	mov    -0x8(%ebp),%eax
c010a8f2:	8b 40 0c             	mov    0xc(%eax),%eax
c010a8f5:	89 54 24 08          	mov    %edx,0x8(%esp)
c010a8f9:	89 4c 24 04          	mov    %ecx,0x4(%esp)
c010a8fd:	89 04 24             	mov    %eax,(%esp)
c010a900:	e8 92 18 00 00       	call   c010c197 <memcpy>
c010a905:	8b 45 fc             	mov    -0x4(%ebp),%eax
c010a908:	0f b7 00             	movzwl (%eax),%eax
c010a90b:	0f b7 c0             	movzwl %ax,%eax
c010a90e:	89 04 24             	mov    %eax,(%esp)
c010a911:	e8 6d a5 ff ff       	call   c0104e83 <proc_getByPid>
c010a916:	89 04 24             	mov    %eax,(%esp)
c010a919:	e8 98 b8 ff ff       	call   c01061b6 <sched_setReady>
c010a91e:	8b 45 fc             	mov    -0x4(%ebp),%eax
c010a921:	89 04 24             	mov    %eax,(%esp)
c010a924:	e8 a2 74 ff ff       	call   c0101dcb <kheap_free>
c010a929:	eb 7c                	jmp    c010a9a7 <vfsr_checkForMsgs+0x22c>
c010a92b:	8d 45 e0             	lea    -0x20(%ebp),%eax
c010a92e:	8b 15 cc ae 16 c0    	mov    0xc016aecc,%edx
c010a934:	c7 44 24 0c 08 00 00 	movl   $0x8,0xc(%esp)
c010a93b:	00 
c010a93c:	89 44 24 08          	mov    %eax,0x8(%esp)
c010a940:	89 54 24 04          	mov    %edx,0x4(%esp)
c010a944:	c7 04 24 01 04 00 00 	movl   $0x401,(%esp)
c010a94b:	e8 f0 d8 ff ff       	call   c0108240 <vfs_readFile>
c010a950:	0f b7 45 e0          	movzwl -0x20(%ebp),%eax
c010a954:	0f b7 c0             	movzwl %ax,%eax
c010a957:	89 04 24             	mov    %eax,(%esp)
c010a95a:	e8 0e 05 00 00       	call   c010ae6d <vfsr_getRequestByPid>
c010a95f:	89 45 f8             	mov    %eax,-0x8(%ebp)
c010a962:	83 7d f8 00          	cmpl   $0x0,-0x8(%ebp)
c010a966:	74 3f                	je     c010a9a7 <vfsr_checkForMsgs+0x22c>
c010a968:	8b 15 a8 da 23 c0    	mov    0xc023daa8,%edx
c010a96e:	8b 45 f8             	mov    -0x8(%ebp),%eax
c010a971:	89 44 24 04          	mov    %eax,0x4(%esp)
c010a975:	89 14 24             	mov    %edx,(%esp)
c010a978:	e8 55 13 00 00       	call   c010bcd2 <sll_removeFirst>
c010a97d:	8b 45 f8             	mov    -0x8(%ebp),%eax
c010a980:	c7 40 04 01 00 00 00 	movl   $0x1,0x4(%eax)
c010a987:	8b 55 e4             	mov    -0x1c(%ebp),%edx
c010a98a:	8b 45 f8             	mov    -0x8(%ebp),%eax
c010a98d:	89 50 14             	mov    %edx,0x14(%eax)
c010a990:	0f b7 45 e0          	movzwl -0x20(%ebp),%eax
c010a994:	0f b7 c0             	movzwl %ax,%eax
c010a997:	89 04 24             	mov    %eax,(%esp)
c010a99a:	e8 e4 a4 ff ff       	call   c0104e83 <proc_getByPid>
c010a99f:	89 04 24             	mov    %eax,(%esp)
c010a9a2:	e8 0f b8 ff ff       	call   c01061b6 <sched_setReady>
c010a9a7:	a1 cc ae 16 c0       	mov    0xc016aecc,%eax
c010a9ac:	c7 44 24 0c 08 00 00 	movl   $0x8,0xc(%esp)
c010a9b3:	00 
c010a9b4:	8d 55 f0             	lea    -0x10(%ebp),%edx
c010a9b7:	89 54 24 08          	mov    %edx,0x8(%esp)
c010a9bb:	89 44 24 04          	mov    %eax,0x4(%esp)
c010a9bf:	c7 04 24 01 04 00 00 	movl   $0x401,(%esp)
c010a9c6:	e8 75 d8 ff ff       	call   c0108240 <vfs_readFile>
c010a9cb:	85 c0                	test   %eax,%eax
c010a9cd:	0f 8f c8 fd ff ff    	jg     c010a79b <vfsr_checkForMsgs+0x20>
c010a9d3:	c9                   	leave  
c010a9d4:	c3                   	ret    

c010a9d5 <vfsr_openFile>:
c010a9d5:	55                   	push   %ebp
c010a9d6:	89 e5                	mov    %esp,%ebp
c010a9d8:	83 ec 48             	sub    $0x48,%esp
c010a9db:	8b 45 08             	mov    0x8(%ebp),%eax
c010a9de:	8b 55 0c             	mov    0xc(%ebp),%edx
c010a9e1:	66 89 45 dc          	mov    %ax,-0x24(%ebp)
c010a9e5:	88 55 d8             	mov    %dl,-0x28(%ebp)
c010a9e8:	8b 45 10             	mov    0x10(%ebp),%eax
c010a9eb:	89 04 24             	mov    %eax,(%esp)
c010a9ee:	e8 16 21 00 00       	call   c010cb09 <strlen>
c010a9f3:	89 45 f4             	mov    %eax,-0xc(%ebp)
c010a9f6:	a1 cc ae 16 c0       	mov    0xc016aecc,%eax
c010a9fb:	85 c0                	test   %eax,%eax
c010a9fd:	79 0c                	jns    c010aa0b <vfsr_openFile+0x36>
c010a9ff:	c7 45 d4 e9 ff ff ff 	movl   $0xffffffe9,-0x2c(%ebp)
c010aa06:	e9 28 01 00 00       	jmp    c010ab33 <vfsr_openFile+0x15e>
c010aa0b:	8b 45 f4             	mov    -0xc(%ebp),%eax
c010aa0e:	83 c0 05             	add    $0x5,%eax
c010aa11:	89 45 f8             	mov    %eax,-0x8(%ebp)
c010aa14:	8b 45 f8             	mov    -0x8(%ebp),%eax
c010aa17:	83 c0 08             	add    $0x8,%eax
c010aa1a:	89 04 24             	mov    %eax,(%esp)
c010aa1d:	e8 52 72 ff ff       	call   c0101c74 <kheap_alloc>
c010aa22:	89 45 ec             	mov    %eax,-0x14(%ebp)
c010aa25:	83 7d ec 00          	cmpl   $0x0,-0x14(%ebp)
c010aa29:	75 0c                	jne    c010aa37 <vfsr_openFile+0x62>
c010aa2b:	c7 45 d4 f5 ff ff ff 	movl   $0xfffffff5,-0x2c(%ebp)
c010aa32:	e9 fc 00 00 00       	jmp    c010ab33 <vfsr_openFile+0x15e>
c010aa37:	8b 45 ec             	mov    -0x14(%ebp),%eax
c010aa3a:	c6 00 00             	movb   $0x0,(%eax)
c010aa3d:	8b 55 ec             	mov    -0x14(%ebp),%edx
c010aa40:	8b 45 f8             	mov    -0x8(%ebp),%eax
c010aa43:	89 42 04             	mov    %eax,0x4(%edx)
c010aa46:	8b 45 ec             	mov    -0x14(%ebp),%eax
c010aa49:	83 c0 08             	add    $0x8,%eax
c010aa4c:	89 45 e8             	mov    %eax,-0x18(%ebp)
c010aa4f:	8b 55 e8             	mov    -0x18(%ebp),%edx
c010aa52:	0f b6 45 d8          	movzbl -0x28(%ebp),%eax
c010aa56:	88 42 02             	mov    %al,0x2(%edx)
c010aa59:	8b 55 e8             	mov    -0x18(%ebp),%edx
c010aa5c:	0f b7 45 dc          	movzwl -0x24(%ebp),%eax
c010aa60:	66 89 02             	mov    %ax,(%edx)
c010aa63:	8b 45 f4             	mov    -0xc(%ebp),%eax
c010aa66:	8d 50 01             	lea    0x1(%eax),%edx
c010aa69:	8b 45 e8             	mov    -0x18(%ebp),%eax
c010aa6c:	8d 48 04             	lea    0x4(%eax),%ecx
c010aa6f:	89 54 24 08          	mov    %edx,0x8(%esp)
c010aa73:	8b 45 10             	mov    0x10(%ebp),%eax
c010aa76:	89 44 24 04          	mov    %eax,0x4(%esp)
c010aa7a:	89 0c 24             	mov    %ecx,(%esp)
c010aa7d:	e8 15 17 00 00       	call   c010c197 <memcpy>
c010aa82:	8b 45 f8             	mov    -0x8(%ebp),%eax
c010aa85:	83 c0 08             	add    $0x8,%eax
c010aa88:	8b 55 ec             	mov    -0x14(%ebp),%edx
c010aa8b:	8b 0d cc ae 16 c0    	mov    0xc016aecc,%ecx
c010aa91:	89 44 24 0c          	mov    %eax,0xc(%esp)
c010aa95:	89 54 24 08          	mov    %edx,0x8(%esp)
c010aa99:	89 4c 24 04          	mov    %ecx,0x4(%esp)
c010aa9d:	c7 04 24 01 04 00 00 	movl   $0x401,(%esp)
c010aaa4:	e8 40 d9 ff ff       	call   c01083e9 <vfs_writeFile>
c010aaa9:	89 45 f0             	mov    %eax,-0x10(%ebp)
c010aaac:	83 7d f0 00          	cmpl   $0x0,-0x10(%ebp)
c010aab0:	79 13                	jns    c010aac5 <vfsr_openFile+0xf0>
c010aab2:	8b 45 ec             	mov    -0x14(%ebp),%eax
c010aab5:	89 04 24             	mov    %eax,(%esp)
c010aab8:	e8 0e 73 ff ff       	call   c0101dcb <kheap_free>
c010aabd:	8b 45 f0             	mov    -0x10(%ebp),%eax
c010aac0:	89 45 d4             	mov    %eax,-0x2c(%ebp)
c010aac3:	eb 6e                	jmp    c010ab33 <vfsr_openFile+0x15e>
c010aac5:	8b 45 ec             	mov    -0x14(%ebp),%eax
c010aac8:	89 04 24             	mov    %eax,(%esp)
c010aacb:	e8 fb 72 ff ff       	call   c0101dcb <kheap_free>
c010aad0:	0f b7 45 dc          	movzwl -0x24(%ebp),%eax
c010aad4:	89 04 24             	mov    %eax,(%esp)
c010aad7:	e8 0a 03 00 00       	call   c010ade6 <vfsr_addRequest>
c010aadc:	89 45 fc             	mov    %eax,-0x4(%ebp)
c010aadf:	83 7d fc 00          	cmpl   $0x0,-0x4(%ebp)
c010aae3:	75 09                	jne    c010aaee <vfsr_openFile+0x119>
c010aae5:	c7 45 d4 f5 ff ff ff 	movl   $0xfffffff5,-0x2c(%ebp)
c010aaec:	eb 45                	jmp    c010ab33 <vfsr_openFile+0x15e>
c010aaee:	0f b7 55 dc          	movzwl -0x24(%ebp),%edx
c010aaf2:	8b 45 fc             	mov    -0x4(%ebp),%eax
c010aaf5:	89 44 24 04          	mov    %eax,0x4(%esp)
c010aaf9:	89 14 24             	mov    %edx,(%esp)
c010aafc:	e8 b1 02 00 00       	call   c010adb2 <vfsr_waitForReply>
c010ab01:	8b 45 fc             	mov    -0x4(%ebp),%eax
c010ab04:	8b 40 08             	mov    0x8(%eax),%eax
c010ab07:	0f b6 55 d8          	movzbl -0x28(%ebp),%edx
c010ab0b:	0f b7 4d dc          	movzwl -0x24(%ebp),%ecx
c010ab0f:	89 44 24 08          	mov    %eax,0x8(%esp)
c010ab13:	89 54 24 04          	mov    %edx,0x4(%esp)
c010ab17:	89 0c 24             	mov    %ecx,(%esp)
c010ab1a:	e8 5f d3 ff ff       	call   c0107e7e <vfs_openFile>
c010ab1f:	89 45 f0             	mov    %eax,-0x10(%ebp)
c010ab22:	8b 45 fc             	mov    -0x4(%ebp),%eax
c010ab25:	89 04 24             	mov    %eax,(%esp)
c010ab28:	e8 9e 72 ff ff       	call   c0101dcb <kheap_free>
c010ab2d:	8b 45 f0             	mov    -0x10(%ebp),%eax
c010ab30:	89 45 d4             	mov    %eax,-0x2c(%ebp)
c010ab33:	8b 45 d4             	mov    -0x2c(%ebp),%eax
c010ab36:	c9                   	leave  
c010ab37:	c3                   	ret    

c010ab38 <vfsr_readFile>:
c010ab38:	55                   	push   %ebp
c010ab39:	89 e5                	mov    %esp,%ebp
c010ab3b:	83 ec 28             	sub    $0x28,%esp
c010ab3e:	8b 45 08             	mov    0x8(%ebp),%eax
c010ab41:	66 89 45 ec          	mov    %ax,-0x14(%ebp)
c010ab45:	a1 cc ae 16 c0       	mov    0xc016aecc,%eax
c010ab4a:	85 c0                	test   %eax,%eax
c010ab4c:	79 0c                	jns    c010ab5a <vfsr_readFile+0x22>
c010ab4e:	c7 45 e8 e9 ff ff ff 	movl   $0xffffffe9,-0x18(%ebp)
c010ab55:	e9 e9 00 00 00       	jmp    c010ac43 <vfsr_readFile+0x10b>
c010ab5a:	0f b7 45 ec          	movzwl -0x14(%ebp),%eax
c010ab5e:	66 a3 b0 ae 16 c0    	mov    %ax,0xc016aeb0
c010ab64:	8b 45 0c             	mov    0xc(%ebp),%eax
c010ab67:	a3 b4 ae 16 c0       	mov    %eax,0xc016aeb4
c010ab6c:	8b 45 14             	mov    0x14(%ebp),%eax
c010ab6f:	a3 b8 ae 16 c0       	mov    %eax,0xc016aeb8
c010ab74:	8b 45 18             	mov    0x18(%ebp),%eax
c010ab77:	a3 bc ae 16 c0       	mov    %eax,0xc016aebc
c010ab7c:	a1 cc ae 16 c0       	mov    0xc016aecc,%eax
c010ab81:	c7 44 24 0c 18 00 00 	movl   $0x18,0xc(%esp)
c010ab88:	00 
c010ab89:	c7 44 24 08 a8 ae 16 	movl   $0xc016aea8,0x8(%esp)
c010ab90:	c0 
c010ab91:	89 44 24 04          	mov    %eax,0x4(%esp)
c010ab95:	c7 04 24 01 04 00 00 	movl   $0x401,(%esp)
c010ab9c:	e8 48 d8 ff ff       	call   c01083e9 <vfs_writeFile>
c010aba1:	89 45 fc             	mov    %eax,-0x4(%ebp)
c010aba4:	83 7d fc 00          	cmpl   $0x0,-0x4(%ebp)
c010aba8:	79 0b                	jns    c010abb5 <vfsr_readFile+0x7d>
c010abaa:	8b 45 fc             	mov    -0x4(%ebp),%eax
c010abad:	89 45 e8             	mov    %eax,-0x18(%ebp)
c010abb0:	e9 8e 00 00 00       	jmp    c010ac43 <vfsr_readFile+0x10b>
c010abb5:	0f b7 45 ec          	movzwl -0x14(%ebp),%eax
c010abb9:	89 04 24             	mov    %eax,(%esp)
c010abbc:	e8 25 02 00 00       	call   c010ade6 <vfsr_addRequest>
c010abc1:	89 45 f8             	mov    %eax,-0x8(%ebp)
c010abc4:	83 7d f8 00          	cmpl   $0x0,-0x8(%ebp)
c010abc8:	75 09                	jne    c010abd3 <vfsr_readFile+0x9b>
c010abca:	c7 45 e8 f5 ff ff ff 	movl   $0xfffffff5,-0x18(%ebp)
c010abd1:	eb 70                	jmp    c010ac43 <vfsr_readFile+0x10b>
c010abd3:	8b 55 f8             	mov    -0x8(%ebp),%edx
c010abd6:	8b 45 10             	mov    0x10(%ebp),%eax
c010abd9:	89 42 10             	mov    %eax,0x10(%edx)
c010abdc:	0f b7 55 ec          	movzwl -0x14(%ebp),%edx
c010abe0:	8b 45 f8             	mov    -0x8(%ebp),%eax
c010abe3:	89 44 24 04          	mov    %eax,0x4(%esp)
c010abe7:	89 14 24             	mov    %edx,(%esp)
c010abea:	e8 c3 01 00 00       	call   c010adb2 <vfsr_waitForReply>
c010abef:	8b 45 f8             	mov    -0x8(%ebp),%eax
c010abf2:	8b 40 0c             	mov    0xc(%eax),%eax
c010abf5:	85 c0                	test   %eax,%eax
c010abf7:	74 30                	je     c010ac29 <vfsr_readFile+0xf1>
c010abf9:	8b 45 f8             	mov    -0x8(%ebp),%eax
c010abfc:	8b 50 14             	mov    0x14(%eax),%edx
c010abff:	8b 45 f8             	mov    -0x8(%ebp),%eax
c010ac02:	8b 48 0c             	mov    0xc(%eax),%ecx
c010ac05:	8b 45 f8             	mov    -0x8(%ebp),%eax
c010ac08:	8b 40 10             	mov    0x10(%eax),%eax
c010ac0b:	89 54 24 08          	mov    %edx,0x8(%esp)
c010ac0f:	89 4c 24 04          	mov    %ecx,0x4(%esp)
c010ac13:	89 04 24             	mov    %eax,(%esp)
c010ac16:	e8 7c 15 00 00       	call   c010c197 <memcpy>
c010ac1b:	8b 45 f8             	mov    -0x8(%ebp),%eax
c010ac1e:	8b 40 0c             	mov    0xc(%eax),%eax
c010ac21:	89 04 24             	mov    %eax,(%esp)
c010ac24:	e8 a2 71 ff ff       	call   c0101dcb <kheap_free>
c010ac29:	8b 45 f8             	mov    -0x8(%ebp),%eax
c010ac2c:	8b 40 14             	mov    0x14(%eax),%eax
c010ac2f:	89 45 fc             	mov    %eax,-0x4(%ebp)
c010ac32:	8b 45 f8             	mov    -0x8(%ebp),%eax
c010ac35:	89 04 24             	mov    %eax,(%esp)
c010ac38:	e8 8e 71 ff ff       	call   c0101dcb <kheap_free>
c010ac3d:	8b 45 fc             	mov    -0x4(%ebp),%eax
c010ac40:	89 45 e8             	mov    %eax,-0x18(%ebp)
c010ac43:	8b 45 e8             	mov    -0x18(%ebp),%eax
c010ac46:	c9                   	leave  
c010ac47:	c3                   	ret    

c010ac48 <vfsr_writeFile>:
c010ac48:	55                   	push   %ebp
c010ac49:	89 e5                	mov    %esp,%ebp
c010ac4b:	83 ec 38             	sub    $0x38,%esp
c010ac4e:	8b 45 08             	mov    0x8(%ebp),%eax
c010ac51:	66 89 45 dc          	mov    %ax,-0x24(%ebp)
c010ac55:	a1 cc ae 16 c0       	mov    0xc016aecc,%eax
c010ac5a:	85 c0                	test   %eax,%eax
c010ac5c:	79 0c                	jns    c010ac6a <vfsr_writeFile+0x22>
c010ac5e:	c7 45 d8 e9 ff ff ff 	movl   $0xffffffe9,-0x28(%ebp)
c010ac65:	e9 05 01 00 00       	jmp    c010ad6f <vfsr_writeFile+0x127>
c010ac6a:	8b 45 18             	mov    0x18(%ebp),%eax
c010ac6d:	83 c0 18             	add    $0x18,%eax
c010ac70:	89 45 f4             	mov    %eax,-0xc(%ebp)
c010ac73:	8b 45 f4             	mov    -0xc(%ebp),%eax
c010ac76:	89 04 24             	mov    %eax,(%esp)
c010ac79:	e8 f6 6f ff ff       	call   c0101c74 <kheap_alloc>
c010ac7e:	89 45 f8             	mov    %eax,-0x8(%ebp)
c010ac81:	83 7d f8 00          	cmpl   $0x0,-0x8(%ebp)
c010ac85:	75 0c                	jne    c010ac93 <vfsr_writeFile+0x4b>
c010ac87:	c7 45 d8 f5 ff ff ff 	movl   $0xfffffff5,-0x28(%ebp)
c010ac8e:	e9 dc 00 00 00       	jmp    c010ad6f <vfsr_writeFile+0x127>
c010ac93:	8b 45 f8             	mov    -0x8(%ebp),%eax
c010ac96:	c6 00 02             	movb   $0x2,(%eax)
c010ac99:	8b 45 18             	mov    0x18(%ebp),%eax
c010ac9c:	8d 50 10             	lea    0x10(%eax),%edx
c010ac9f:	8b 45 f8             	mov    -0x8(%ebp),%eax
c010aca2:	89 50 04             	mov    %edx,0x4(%eax)
c010aca5:	8b 45 f8             	mov    -0x8(%ebp),%eax
c010aca8:	83 c0 08             	add    $0x8,%eax
c010acab:	89 45 fc             	mov    %eax,-0x4(%ebp)
c010acae:	8b 55 fc             	mov    -0x4(%ebp),%edx
c010acb1:	8b 45 0c             	mov    0xc(%ebp),%eax
c010acb4:	89 42 04             	mov    %eax,0x4(%edx)
c010acb7:	8b 55 fc             	mov    -0x4(%ebp),%edx
c010acba:	8b 45 18             	mov    0x18(%ebp),%eax
c010acbd:	89 42 0c             	mov    %eax,0xc(%edx)
c010acc0:	8b 55 fc             	mov    -0x4(%ebp),%edx
c010acc3:	8b 45 14             	mov    0x14(%ebp),%eax
c010acc6:	89 42 08             	mov    %eax,0x8(%edx)
c010acc9:	8b 55 fc             	mov    -0x4(%ebp),%edx
c010accc:	0f b7 45 dc          	movzwl -0x24(%ebp),%eax
c010acd0:	66 89 02             	mov    %ax,(%edx)
c010acd3:	8b 45 fc             	mov    -0x4(%ebp),%eax
c010acd6:	8d 50 10             	lea    0x10(%eax),%edx
c010acd9:	8b 45 18             	mov    0x18(%ebp),%eax
c010acdc:	89 44 24 08          	mov    %eax,0x8(%esp)
c010ace0:	8b 45 10             	mov    0x10(%ebp),%eax
c010ace3:	89 44 24 04          	mov    %eax,0x4(%esp)
c010ace7:	89 14 24             	mov    %edx,(%esp)
c010acea:	e8 a8 14 00 00       	call   c010c197 <memcpy>
c010acef:	8b 55 f8             	mov    -0x8(%ebp),%edx
c010acf2:	8b 0d cc ae 16 c0    	mov    0xc016aecc,%ecx
c010acf8:	8b 45 f4             	mov    -0xc(%ebp),%eax
c010acfb:	89 44 24 0c          	mov    %eax,0xc(%esp)
c010acff:	89 54 24 08          	mov    %edx,0x8(%esp)
c010ad03:	89 4c 24 04          	mov    %ecx,0x4(%esp)
c010ad07:	c7 04 24 01 04 00 00 	movl   $0x401,(%esp)
c010ad0e:	e8 d6 d6 ff ff       	call   c01083e9 <vfs_writeFile>
c010ad13:	89 45 f0             	mov    %eax,-0x10(%ebp)
c010ad16:	83 7d f0 00          	cmpl   $0x0,-0x10(%ebp)
c010ad1a:	79 08                	jns    c010ad24 <vfsr_writeFile+0xdc>
c010ad1c:	8b 45 f0             	mov    -0x10(%ebp),%eax
c010ad1f:	89 45 d8             	mov    %eax,-0x28(%ebp)
c010ad22:	eb 4b                	jmp    c010ad6f <vfsr_writeFile+0x127>
c010ad24:	0f b7 45 dc          	movzwl -0x24(%ebp),%eax
c010ad28:	89 04 24             	mov    %eax,(%esp)
c010ad2b:	e8 b6 00 00 00       	call   c010ade6 <vfsr_addRequest>
c010ad30:	89 45 ec             	mov    %eax,-0x14(%ebp)
c010ad33:	83 7d ec 00          	cmpl   $0x0,-0x14(%ebp)
c010ad37:	75 09                	jne    c010ad42 <vfsr_writeFile+0xfa>
c010ad39:	c7 45 d8 f5 ff ff ff 	movl   $0xfffffff5,-0x28(%ebp)
c010ad40:	eb 2d                	jmp    c010ad6f <vfsr_writeFile+0x127>
c010ad42:	0f b7 55 dc          	movzwl -0x24(%ebp),%edx
c010ad46:	8b 45 ec             	mov    -0x14(%ebp),%eax
c010ad49:	89 44 24 04          	mov    %eax,0x4(%esp)
c010ad4d:	89 14 24             	mov    %edx,(%esp)
c010ad50:	e8 5d 00 00 00       	call   c010adb2 <vfsr_waitForReply>
c010ad55:	8b 45 ec             	mov    -0x14(%ebp),%eax
c010ad58:	8b 40 14             	mov    0x14(%eax),%eax
c010ad5b:	89 45 f0             	mov    %eax,-0x10(%ebp)
c010ad5e:	8b 45 ec             	mov    -0x14(%ebp),%eax
c010ad61:	89 04 24             	mov    %eax,(%esp)
c010ad64:	e8 62 70 ff ff       	call   c0101dcb <kheap_free>
c010ad69:	8b 45 f0             	mov    -0x10(%ebp),%eax
c010ad6c:	89 45 d8             	mov    %eax,-0x28(%ebp)
c010ad6f:	8b 45 d8             	mov    -0x28(%ebp),%eax
c010ad72:	c9                   	leave  
c010ad73:	c3                   	ret    

c010ad74 <vfsr_closeFile>:
c010ad74:	55                   	push   %ebp
c010ad75:	89 e5                	mov    %esp,%ebp
c010ad77:	83 ec 18             	sub    $0x18,%esp
c010ad7a:	a1 cc ae 16 c0       	mov    0xc016aecc,%eax
c010ad7f:	85 c0                	test   %eax,%eax
c010ad81:	78 2d                	js     c010adb0 <vfsr_closeFile+0x3c>
c010ad83:	8b 45 08             	mov    0x8(%ebp),%eax
c010ad86:	a3 c8 ae 16 c0       	mov    %eax,0xc016aec8
c010ad8b:	a1 cc ae 16 c0       	mov    0xc016aecc,%eax
c010ad90:	c7 44 24 0c 0c 00 00 	movl   $0xc,0xc(%esp)
c010ad97:	00 
c010ad98:	c7 44 24 08 c0 ae 16 	movl   $0xc016aec0,0x8(%esp)
c010ad9f:	c0 
c010ada0:	89 44 24 04          	mov    %eax,0x4(%esp)
c010ada4:	c7 04 24 01 04 00 00 	movl   $0x401,(%esp)
c010adab:	e8 39 d6 ff ff       	call   c01083e9 <vfs_writeFile>
c010adb0:	c9                   	leave  
c010adb1:	c3                   	ret    

c010adb2 <vfsr_waitForReply>:
c010adb2:	55                   	push   %ebp
c010adb3:	89 e5                	mov    %esp,%ebp
c010adb5:	83 ec 08             	sub    $0x8,%esp
c010adb8:	8b 45 08             	mov    0x8(%ebp),%eax
c010adbb:	66 89 45 fc          	mov    %ax,-0x4(%ebp)
c010adbf:	0f b7 45 fc          	movzwl -0x4(%ebp),%eax
c010adc3:	89 04 24             	mov    %eax,(%esp)
c010adc6:	e8 b8 a0 ff ff       	call   c0104e83 <proc_getByPid>
c010adcb:	89 04 24             	mov    %eax,(%esp)
c010adce:	e8 4f b4 ff ff       	call   c0106222 <sched_setBlocked>
c010add3:	eb 05                	jmp    c010adda <vfsr_waitForReply+0x28>
c010add5:	e8 fc a0 ff ff       	call   c0104ed6 <proc_switch>
c010adda:	8b 45 0c             	mov    0xc(%ebp),%eax
c010addd:	8b 40 04             	mov    0x4(%eax),%eax
c010ade0:	85 c0                	test   %eax,%eax
c010ade2:	74 f1                	je     c010add5 <vfsr_waitForReply+0x23>
c010ade4:	c9                   	leave  
c010ade5:	c3                   	ret    

c010ade6 <vfsr_addRequest>:
c010ade6:	55                   	push   %ebp
c010ade7:	89 e5                	mov    %esp,%ebp
c010ade9:	83 ec 28             	sub    $0x28,%esp
c010adec:	8b 45 08             	mov    0x8(%ebp),%eax
c010adef:	66 89 45 ec          	mov    %ax,-0x14(%ebp)
c010adf3:	c7 04 24 18 00 00 00 	movl   $0x18,(%esp)
c010adfa:	e8 75 6e ff ff       	call   c0101c74 <kheap_alloc>
c010adff:	89 45 fc             	mov    %eax,-0x4(%ebp)
c010ae02:	83 7d fc 00          	cmpl   $0x0,-0x4(%ebp)
c010ae06:	75 09                	jne    c010ae11 <vfsr_addRequest+0x2b>
c010ae08:	c7 45 e8 00 00 00 00 	movl   $0x0,-0x18(%ebp)
c010ae0f:	eb 57                	jmp    c010ae68 <vfsr_addRequest+0x82>
c010ae11:	8b 55 fc             	mov    -0x4(%ebp),%edx
c010ae14:	0f b7 45 ec          	movzwl -0x14(%ebp),%eax
c010ae18:	66 89 02             	mov    %ax,(%edx)
c010ae1b:	8b 45 fc             	mov    -0x4(%ebp),%eax
c010ae1e:	c7 40 04 00 00 00 00 	movl   $0x0,0x4(%eax)
c010ae25:	8b 45 fc             	mov    -0x4(%ebp),%eax
c010ae28:	c7 40 08 00 00 00 00 	movl   $0x0,0x8(%eax)
c010ae2f:	8b 45 fc             	mov    -0x4(%ebp),%eax
c010ae32:	c7 40 14 00 00 00 00 	movl   $0x0,0x14(%eax)
c010ae39:	8b 45 fc             	mov    -0x4(%ebp),%eax
c010ae3c:	c7 40 10 00 00 00 00 	movl   $0x0,0x10(%eax)
c010ae43:	8b 45 fc             	mov    -0x4(%ebp),%eax
c010ae46:	c7 40 0c 00 00 00 00 	movl   $0x0,0xc(%eax)
c010ae4d:	8b 15 a8 da 23 c0    	mov    0xc023daa8,%edx
c010ae53:	8b 45 fc             	mov    -0x4(%ebp),%eax
c010ae56:	89 44 24 04          	mov    %eax,0x4(%esp)
c010ae5a:	89 14 24             	mov    %edx,(%esp)
c010ae5d:	e8 37 0c 00 00       	call   c010ba99 <sll_append>
c010ae62:	8b 45 fc             	mov    -0x4(%ebp),%eax
c010ae65:	89 45 e8             	mov    %eax,-0x18(%ebp)
c010ae68:	8b 45 e8             	mov    -0x18(%ebp),%eax
c010ae6b:	c9                   	leave  
c010ae6c:	c3                   	ret    

c010ae6d <vfsr_getRequestByPid>:
c010ae6d:	55                   	push   %ebp
c010ae6e:	89 e5                	mov    %esp,%ebp
c010ae70:	83 ec 28             	sub    $0x28,%esp
c010ae73:	8b 45 08             	mov    0x8(%ebp),%eax
c010ae76:	66 89 45 ec          	mov    %ax,-0x14(%ebp)
c010ae7a:	a1 a8 da 23 c0       	mov    0xc023daa8,%eax
c010ae7f:	89 04 24             	mov    %eax,(%esp)
c010ae82:	e8 a1 0a 00 00       	call   c010b928 <sll_begin>
c010ae87:	89 45 f8             	mov    %eax,-0x8(%ebp)
c010ae8a:	eb 25                	jmp    c010aeb1 <vfsr_getRequestByPid+0x44>
c010ae8c:	8b 45 f8             	mov    -0x8(%ebp),%eax
c010ae8f:	8b 40 04             	mov    0x4(%eax),%eax
c010ae92:	89 45 fc             	mov    %eax,-0x4(%ebp)
c010ae95:	8b 45 fc             	mov    -0x4(%ebp),%eax
c010ae98:	0f b7 00             	movzwl (%eax),%eax
c010ae9b:	66 3b 45 ec          	cmp    -0x14(%ebp),%ax
c010ae9f:	75 08                	jne    c010aea9 <vfsr_getRequestByPid+0x3c>
c010aea1:	8b 45 fc             	mov    -0x4(%ebp),%eax
c010aea4:	89 45 e8             	mov    %eax,-0x18(%ebp)
c010aea7:	eb 15                	jmp    c010aebe <vfsr_getRequestByPid+0x51>
c010aea9:	8b 45 f8             	mov    -0x8(%ebp),%eax
c010aeac:	8b 00                	mov    (%eax),%eax
c010aeae:	89 45 f8             	mov    %eax,-0x8(%ebp)
c010aeb1:	83 7d f8 00          	cmpl   $0x0,-0x8(%ebp)
c010aeb5:	75 d5                	jne    c010ae8c <vfsr_getRequestByPid+0x1f>
c010aeb7:	c7 45 e8 00 00 00 00 	movl   $0x0,-0x18(%ebp)
c010aebe:	8b 45 e8             	mov    -0x18(%ebp),%eax
c010aec1:	c9                   	leave  
c010aec2:	c3                   	ret    
	...

c010aec4 <vid_init>:
c010aec4:	55                   	push   %ebp
c010aec5:	89 e5                	mov    %esp,%ebp
c010aec7:	83 ec 08             	sub    $0x8,%esp
c010aeca:	e8 d0 08 00 00       	call   c010b79f <vid_removeBIOSCursor>
c010aecf:	e8 1a 00 00 00       	call   c010aeee <vid_clearScreen>
c010aed4:	c7 04 24 07 00 00 00 	movl   $0x7,(%esp)
c010aedb:	e8 be 00 00 00       	call   c010af9e <vid_setFGColor>
c010aee0:	c7 04 24 00 00 00 00 	movl   $0x0,(%esp)
c010aee7:	e8 d0 00 00 00       	call   c010afbc <vid_setBGColor>
c010aeec:	c9                   	leave  
c010aeed:	c3                   	ret    

c010aeee <vid_clearScreen>:
c010aeee:	55                   	push   %ebp
c010aeef:	89 e5                	mov    %esp,%ebp
c010aef1:	83 ec 10             	sub    $0x10,%esp
c010aef4:	c7 45 f8 00 80 0b c0 	movl   $0xc00b8000,-0x8(%ebp)
c010aefb:	8b 45 f8             	mov    -0x8(%ebp),%eax
c010aefe:	05 a0 0f 00 00       	add    $0xfa0,%eax
c010af03:	89 45 fc             	mov    %eax,-0x4(%ebp)
c010af06:	eb 0a                	jmp    c010af12 <vid_clearScreen+0x24>
c010af08:	8b 45 f8             	mov    -0x8(%ebp),%eax
c010af0b:	c6 00 00             	movb   $0x0,(%eax)
c010af0e:	83 45 f8 01          	addl   $0x1,-0x8(%ebp)
c010af12:	8b 45 f8             	mov    -0x8(%ebp),%eax
c010af15:	3b 45 fc             	cmp    -0x4(%ebp),%eax
c010af18:	72 ee                	jb     c010af08 <vid_clearScreen+0x1a>
c010af1a:	c9                   	leave  
c010af1b:	c3                   	ret    

c010af1c <vid_useColor>:
c010af1c:	55                   	push   %ebp
c010af1d:	89 e5                	mov    %esp,%ebp
c010af1f:	83 ec 08             	sub    $0x8,%esp
c010af22:	e8 65 00 00 00       	call   c010af8c <vid_getBGColor>
c010af27:	a2 b1 da 23 c0       	mov    %al,0xc023dab1
c010af2c:	e8 49 00 00 00       	call   c010af7a <vid_getFGColor>
c010af31:	a2 b2 da 23 c0       	mov    %al,0xc023dab2
c010af36:	8b 45 08             	mov    0x8(%ebp),%eax
c010af39:	89 04 24             	mov    %eax,(%esp)
c010af3c:	e8 7b 00 00 00       	call   c010afbc <vid_setBGColor>
c010af41:	8b 45 0c             	mov    0xc(%ebp),%eax
c010af44:	89 04 24             	mov    %eax,(%esp)
c010af47:	e8 52 00 00 00       	call   c010af9e <vid_setFGColor>
c010af4c:	c9                   	leave  
c010af4d:	c3                   	ret    

c010af4e <vid_restoreColor>:
c010af4e:	55                   	push   %ebp
c010af4f:	89 e5                	mov    %esp,%ebp
c010af51:	83 ec 08             	sub    $0x8,%esp
c010af54:	0f b6 05 b1 da 23 c0 	movzbl 0xc023dab1,%eax
c010af5b:	0f b6 c0             	movzbl %al,%eax
c010af5e:	89 04 24             	mov    %eax,(%esp)
c010af61:	e8 56 00 00 00       	call   c010afbc <vid_setBGColor>
c010af66:	0f b6 05 b2 da 23 c0 	movzbl 0xc023dab2,%eax
c010af6d:	0f b6 c0             	movzbl %al,%eax
c010af70:	89 04 24             	mov    %eax,(%esp)
c010af73:	e8 26 00 00 00       	call   c010af9e <vid_setFGColor>
c010af78:	c9                   	leave  
c010af79:	c3                   	ret    

c010af7a <vid_getFGColor>:
c010af7a:	55                   	push   %ebp
c010af7b:	89 e5                	mov    %esp,%ebp
c010af7d:	0f b6 05 b0 da 23 c0 	movzbl 0xc023dab0,%eax
c010af84:	0f b6 c0             	movzbl %al,%eax
c010af87:	83 e0 0f             	and    $0xf,%eax
c010af8a:	5d                   	pop    %ebp
c010af8b:	c3                   	ret    

c010af8c <vid_getBGColor>:
c010af8c:	55                   	push   %ebp
c010af8d:	89 e5                	mov    %esp,%ebp
c010af8f:	0f b6 05 b0 da 23 c0 	movzbl 0xc023dab0,%eax
c010af96:	c0 e8 04             	shr    $0x4,%al
c010af99:	0f b6 c0             	movzbl %al,%eax
c010af9c:	5d                   	pop    %ebp
c010af9d:	c3                   	ret    

c010af9e <vid_setFGColor>:
c010af9e:	55                   	push   %ebp
c010af9f:	89 e5                	mov    %esp,%ebp
c010afa1:	0f b6 05 b0 da 23 c0 	movzbl 0xc023dab0,%eax
c010afa8:	89 c2                	mov    %eax,%edx
c010afaa:	83 e2 f0             	and    $0xfffffff0,%edx
c010afad:	8b 45 08             	mov    0x8(%ebp),%eax
c010afb0:	83 e0 0f             	and    $0xf,%eax
c010afb3:	09 d0                	or     %edx,%eax
c010afb5:	a2 b0 da 23 c0       	mov    %al,0xc023dab0
c010afba:	5d                   	pop    %ebp
c010afbb:	c3                   	ret    

c010afbc <vid_setBGColor>:
c010afbc:	55                   	push   %ebp
c010afbd:	89 e5                	mov    %esp,%ebp
c010afbf:	0f b6 05 b0 da 23 c0 	movzbl 0xc023dab0,%eax
c010afc6:	89 c2                	mov    %eax,%edx
c010afc8:	83 e2 0f             	and    $0xf,%edx
c010afcb:	8b 45 08             	mov    0x8(%ebp),%eax
c010afce:	c1 e0 04             	shl    $0x4,%eax
c010afd1:	09 d0                	or     %edx,%eax
c010afd3:	a2 b0 da 23 c0       	mov    %al,0xc023dab0
c010afd8:	5d                   	pop    %ebp
c010afd9:	c3                   	ret    

c010afda <vid_setLineBG>:
c010afda:	55                   	push   %ebp
c010afdb:	89 e5                	mov    %esp,%ebp
c010afdd:	83 ec 14             	sub    $0x14,%esp
c010afe0:	8b 45 08             	mov    0x8(%ebp),%eax
c010afe3:	88 45 ec             	mov    %al,-0x14(%ebp)
c010afe6:	8b 45 0c             	mov    0xc(%ebp),%eax
c010afe9:	89 c2                	mov    %eax,%edx
c010afeb:	c1 e2 04             	shl    $0x4,%edx
c010afee:	0f b6 05 b0 da 23 c0 	movzbl 0xc023dab0,%eax
c010aff5:	09 d0                	or     %edx,%eax
c010aff7:	88 45 f7             	mov    %al,-0x9(%ebp)
c010affa:	0f b6 55 ec          	movzbl -0x14(%ebp),%edx
c010affe:	89 d0                	mov    %edx,%eax
c010b000:	c1 e0 02             	shl    $0x2,%eax
c010b003:	01 d0                	add    %edx,%eax
c010b005:	c1 e0 05             	shl    $0x5,%eax
c010b008:	2d 00 80 f4 3f       	sub    $0x3ff48000,%eax
c010b00d:	89 45 f8             	mov    %eax,-0x8(%ebp)
c010b010:	8b 45 f8             	mov    -0x8(%ebp),%eax
c010b013:	05 a0 00 00 00       	add    $0xa0,%eax
c010b018:	89 45 fc             	mov    %eax,-0x4(%ebp)
c010b01b:	83 45 f8 01          	addl   $0x1,-0x8(%ebp)
c010b01f:	eb 0d                	jmp    c010b02e <vid_setLineBG+0x54>
c010b021:	8b 55 f8             	mov    -0x8(%ebp),%edx
c010b024:	0f b6 45 f7          	movzbl -0x9(%ebp),%eax
c010b028:	88 02                	mov    %al,(%edx)
c010b02a:	83 45 f8 02          	addl   $0x2,-0x8(%ebp)
c010b02e:	8b 45 f8             	mov    -0x8(%ebp),%eax
c010b031:	3b 45 fc             	cmp    -0x4(%ebp),%eax
c010b034:	72 eb                	jb     c010b021 <vid_setLineBG+0x47>
c010b036:	c9                   	leave  
c010b037:	c3                   	ret    

c010b038 <vid_getLine>:
c010b038:	55                   	push   %ebp
c010b039:	89 e5                	mov    %esp,%ebp
c010b03b:	83 ec 14             	sub    $0x14,%esp
c010b03e:	0f b7 05 ae da 23 c0 	movzwl 0xc023daae,%eax
c010b045:	0f b7 d0             	movzwl %ax,%edx
c010b048:	89 d0                	mov    %edx,%eax
c010b04a:	c1 e0 02             	shl    $0x2,%eax
c010b04d:	01 d0                	add    %edx,%eax
c010b04f:	c1 e0 04             	shl    $0x4,%eax
c010b052:	89 c2                	mov    %eax,%edx
c010b054:	0f b7 05 ac da 23 c0 	movzwl 0xc023daac,%eax
c010b05b:	0f b7 c0             	movzwl %ax,%eax
c010b05e:	8d 04 02             	lea    (%edx,%eax,1),%eax
c010b061:	05 00 c0 05 60       	add    $0x6005c000,%eax
c010b066:	01 c0                	add    %eax,%eax
c010b068:	89 45 fc             	mov    %eax,-0x4(%ebp)
c010b06b:	8b 45 fc             	mov    -0x4(%ebp),%eax
c010b06e:	05 00 80 f4 3f       	add    $0x3ff48000,%eax
c010b073:	89 c2                	mov    %eax,%edx
c010b075:	c7 45 ec cd cc cc cc 	movl   $0xcccccccd,-0x14(%ebp)
c010b07c:	8b 45 ec             	mov    -0x14(%ebp),%eax
c010b07f:	f7 e2                	mul    %edx
c010b081:	89 d0                	mov    %edx,%eax
c010b083:	c1 e8 07             	shr    $0x7,%eax
c010b086:	c9                   	leave  
c010b087:	c3                   	ret    

c010b088 <vid_toLineEnd>:
c010b088:	55                   	push   %ebp
c010b089:	89 e5                	mov    %esp,%ebp
c010b08b:	83 ec 04             	sub    $0x4,%esp
c010b08e:	8b 45 08             	mov    0x8(%ebp),%eax
c010b091:	88 45 fc             	mov    %al,-0x4(%ebp)
c010b094:	0f b6 55 fc          	movzbl -0x4(%ebp),%edx
c010b098:	b8 50 00 00 00       	mov    $0x50,%eax
c010b09d:	66 29 d0             	sub    %dx,%ax
c010b0a0:	66 a3 ac da 23 c0    	mov    %ax,0xc023daac
c010b0a6:	c9                   	leave  
c010b0a7:	c3                   	ret    

c010b0a8 <vid_move>:
c010b0a8:	55                   	push   %ebp
c010b0a9:	89 e5                	mov    %esp,%ebp
c010b0ab:	83 ec 10             	sub    $0x10,%esp
c010b0ae:	0f b7 05 ae da 23 c0 	movzwl 0xc023daae,%eax
c010b0b5:	66 83 f8 18          	cmp    $0x18,%ax
c010b0b9:	76 47                	jbe    c010b102 <vid_move+0x5a>
c010b0bb:	c7 45 f8 a0 80 0b c0 	movl   $0xc00b80a0,-0x8(%ebp)
c010b0c2:	c7 45 fc 00 80 0b c0 	movl   $0xc00b8000,-0x4(%ebp)
c010b0c9:	c7 45 f4 00 00 00 00 	movl   $0x0,-0xc(%ebp)
c010b0d0:	eb 17                	jmp    c010b0e9 <vid_move+0x41>
c010b0d2:	8b 45 f8             	mov    -0x8(%ebp),%eax
c010b0d5:	0f b6 10             	movzbl (%eax),%edx
c010b0d8:	8b 45 fc             	mov    -0x4(%ebp),%eax
c010b0db:	88 10                	mov    %dl,(%eax)
c010b0dd:	83 45 fc 01          	addl   $0x1,-0x4(%ebp)
c010b0e1:	83 45 f8 01          	addl   $0x1,-0x8(%ebp)
c010b0e5:	83 45 f4 01          	addl   $0x1,-0xc(%ebp)
c010b0e9:	81 7d f4 9f 0f 00 00 	cmpl   $0xf9f,-0xc(%ebp)
c010b0f0:	76 e0                	jbe    c010b0d2 <vid_move+0x2a>
c010b0f2:	0f b7 05 ae da 23 c0 	movzwl 0xc023daae,%eax
c010b0f9:	83 e8 01             	sub    $0x1,%eax
c010b0fc:	66 a3 ae da 23 c0    	mov    %ax,0xc023daae
c010b102:	c9                   	leave  
c010b103:	c3                   	ret    

c010b104 <vid_putchar>:
c010b104:	55                   	push   %ebp
c010b105:	89 e5                	mov    %esp,%ebp
c010b107:	83 ec 28             	sub    $0x28,%esp
c010b10a:	8b 45 08             	mov    0x8(%ebp),%eax
c010b10d:	88 45 ec             	mov    %al,-0x14(%ebp)
c010b110:	e8 93 ff ff ff       	call   c010b0a8 <vid_move>
c010b115:	0f b7 05 ae da 23 c0 	movzwl 0xc023daae,%eax
c010b11c:	0f b7 d0             	movzwl %ax,%edx
c010b11f:	89 d0                	mov    %edx,%eax
c010b121:	c1 e0 02             	shl    $0x2,%eax
c010b124:	01 d0                	add    %edx,%eax
c010b126:	c1 e0 04             	shl    $0x4,%eax
c010b129:	89 c2                	mov    %eax,%edx
c010b12b:	0f b7 05 ac da 23 c0 	movzwl 0xc023daac,%eax
c010b132:	0f b7 c0             	movzwl %ax,%eax
c010b135:	8d 04 02             	lea    (%edx,%eax,1),%eax
c010b138:	05 00 c0 05 60       	add    $0x6005c000,%eax
c010b13d:	01 c0                	add    %eax,%eax
c010b13f:	89 45 fc             	mov    %eax,-0x4(%ebp)
c010b142:	80 7d ec 0d          	cmpb   $0xd,-0x14(%ebp)
c010b146:	74 44                	je     c010b18c <vid_putchar+0x88>
c010b148:	0f b6 45 ec          	movzbl -0x14(%ebp),%eax
c010b14c:	0f b6 c0             	movzbl %al,%eax
c010b14f:	89 44 24 04          	mov    %eax,0x4(%esp)
c010b153:	c7 04 24 e9 00 00 00 	movl   $0xe9,(%esp)
c010b15a:	e8 59 4f ff ff       	call   c01000b8 <outb>
c010b15f:	0f b6 45 ec          	movzbl -0x14(%ebp),%eax
c010b163:	0f b6 c0             	movzbl %al,%eax
c010b166:	89 44 24 04          	mov    %eax,0x4(%esp)
c010b16a:	c7 04 24 f8 03 00 00 	movl   $0x3f8,(%esp)
c010b171:	e8 42 4f ff ff       	call   c01000b8 <outb>
c010b176:	c7 04 24 fd 03 00 00 	movl   $0x3fd,(%esp)
c010b17d:	e8 41 4f ff ff       	call   c01000c3 <inb>
c010b182:	0f b6 c0             	movzbl %al,%eax
c010b185:	83 e0 20             	and    $0x20,%eax
c010b188:	85 c0                	test   %eax,%eax
c010b18a:	74 ea                	je     c010b176 <vid_putchar+0x72>
c010b18c:	80 7d ec 0a          	cmpb   $0xa,-0x14(%ebp)
c010b190:	75 21                	jne    c010b1b3 <vid_putchar+0xaf>
c010b192:	0f b7 05 ae da 23 c0 	movzwl 0xc023daae,%eax
c010b199:	83 c0 01             	add    $0x1,%eax
c010b19c:	66 a3 ae da 23 c0    	mov    %ax,0xc023daae
c010b1a2:	c7 04 24 0d 00 00 00 	movl   $0xd,(%esp)
c010b1a9:	e8 56 ff ff ff       	call   c010b104 <vid_putchar>
c010b1ae:	e9 96 00 00 00       	jmp    c010b249 <vid_putchar+0x145>
c010b1b3:	80 7d ec 0d          	cmpb   $0xd,-0x14(%ebp)
c010b1b7:	75 0e                	jne    c010b1c7 <vid_putchar+0xc3>
c010b1b9:	66 c7 05 ac da 23 c0 	movw   $0x0,0xc023daac
c010b1c0:	00 00 
c010b1c2:	e9 82 00 00 00       	jmp    c010b249 <vid_putchar+0x145>
c010b1c7:	80 7d ec 09          	cmpb   $0x9,-0x14(%ebp)
c010b1cb:	75 38                	jne    c010b205 <vid_putchar+0x101>
c010b1cd:	0f b7 05 ac da 23 c0 	movzwl 0xc023daac,%eax
c010b1d4:	0f b7 c0             	movzwl %ax,%eax
c010b1d7:	89 c2                	mov    %eax,%edx
c010b1d9:	83 e2 01             	and    $0x1,%edx
c010b1dc:	b8 02 00 00 00       	mov    $0x2,%eax
c010b1e1:	29 d0                	sub    %edx,%eax
c010b1e3:	89 45 f8             	mov    %eax,-0x8(%ebp)
c010b1e6:	eb 0c                	jmp    c010b1f4 <vid_putchar+0xf0>
c010b1e8:	c7 04 24 20 00 00 00 	movl   $0x20,(%esp)
c010b1ef:	e8 10 ff ff ff       	call   c010b104 <vid_putchar>
c010b1f4:	83 7d f8 00          	cmpl   $0x0,-0x8(%ebp)
c010b1f8:	0f 95 c0             	setne  %al
c010b1fb:	83 6d f8 01          	subl   $0x1,-0x8(%ebp)
c010b1ff:	84 c0                	test   %al,%al
c010b201:	75 e5                	jne    c010b1e8 <vid_putchar+0xe4>
c010b203:	eb 44                	jmp    c010b249 <vid_putchar+0x145>
c010b205:	8b 55 fc             	mov    -0x4(%ebp),%edx
c010b208:	0f b6 45 ec          	movzbl -0x14(%ebp),%eax
c010b20c:	88 02                	mov    %al,(%edx)
c010b20e:	83 45 fc 01          	addl   $0x1,-0x4(%ebp)
c010b212:	0f b6 05 b0 da 23 c0 	movzbl 0xc023dab0,%eax
c010b219:	89 c2                	mov    %eax,%edx
c010b21b:	8b 45 fc             	mov    -0x4(%ebp),%eax
c010b21e:	88 10                	mov    %dl,(%eax)
c010b220:	0f b7 05 ac da 23 c0 	movzwl 0xc023daac,%eax
c010b227:	83 c0 01             	add    $0x1,%eax
c010b22a:	66 a3 ac da 23 c0    	mov    %ax,0xc023daac
c010b230:	0f b7 05 ac da 23 c0 	movzwl 0xc023daac,%eax
c010b237:	66 83 f8 4f          	cmp    $0x4f,%ax
c010b23b:	76 0c                	jbe    c010b249 <vid_putchar+0x145>
c010b23d:	c7 04 24 0a 00 00 00 	movl   $0xa,(%esp)
c010b244:	e8 bb fe ff ff       	call   c010b104 <vid_putchar>
c010b249:	c9                   	leave  
c010b24a:	c3                   	ret    

c010b24b <vid_printu>:
c010b24b:	55                   	push   %ebp
c010b24c:	89 e5                	mov    %esp,%ebp
c010b24e:	83 ec 28             	sub    $0x28,%esp
c010b251:	8b 45 0c             	mov    0xc(%ebp),%eax
c010b254:	88 45 fc             	mov    %al,-0x4(%ebp)
c010b257:	0f b6 45 fc          	movzbl -0x4(%ebp),%eax
c010b25b:	3b 45 08             	cmp    0x8(%ebp),%eax
c010b25e:	77 22                	ja     c010b282 <vid_printu+0x37>
c010b260:	0f b6 4d fc          	movzbl -0x4(%ebp),%ecx
c010b264:	0f b6 45 fc          	movzbl -0x4(%ebp),%eax
c010b268:	89 45 f0             	mov    %eax,-0x10(%ebp)
c010b26b:	8b 45 08             	mov    0x8(%ebp),%eax
c010b26e:	ba 00 00 00 00       	mov    $0x0,%edx
c010b273:	f7 75 f0             	divl   -0x10(%ebp)
c010b276:	89 4c 24 04          	mov    %ecx,0x4(%esp)
c010b27a:	89 04 24             	mov    %eax,(%esp)
c010b27d:	e8 c9 ff ff ff       	call   c010b24b <vid_printu>
c010b282:	0f b6 55 fc          	movzbl -0x4(%ebp),%edx
c010b286:	8b 4d 08             	mov    0x8(%ebp),%ecx
c010b289:	89 4d ec             	mov    %ecx,-0x14(%ebp)
c010b28c:	8b 45 ec             	mov    -0x14(%ebp),%eax
c010b28f:	89 d1                	mov    %edx,%ecx
c010b291:	ba 00 00 00 00       	mov    $0x0,%edx
c010b296:	f7 f1                	div    %ecx
c010b298:	89 d0                	mov    %edx,%eax
c010b29a:	0f b6 80 d0 ae 16 c0 	movzbl -0x3fe95130(%eax),%eax
c010b2a1:	0f be c0             	movsbl %al,%eax
c010b2a4:	89 04 24             	mov    %eax,(%esp)
c010b2a7:	e8 58 fe ff ff       	call   c010b104 <vid_putchar>
c010b2ac:	c9                   	leave  
c010b2ad:	c3                   	ret    

c010b2ae <vid_getuwidth>:
c010b2ae:	55                   	push   %ebp
c010b2af:	89 e5                	mov    %esp,%ebp
c010b2b1:	83 ec 20             	sub    $0x20,%esp
c010b2b4:	8b 45 0c             	mov    0xc(%ebp),%eax
c010b2b7:	88 45 ec             	mov    %al,-0x14(%ebp)
c010b2ba:	c6 45 ff 01          	movb   $0x1,-0x1(%ebp)
c010b2be:	eb 25                	jmp    c010b2e5 <vid_getuwidth+0x37>
c010b2c0:	0f b6 45 ec          	movzbl -0x14(%ebp),%eax
c010b2c4:	89 45 e4             	mov    %eax,-0x1c(%ebp)
c010b2c7:	8b 55 08             	mov    0x8(%ebp),%edx
c010b2ca:	89 55 e0             	mov    %edx,-0x20(%ebp)
c010b2cd:	8b 45 e0             	mov    -0x20(%ebp),%eax
c010b2d0:	ba 00 00 00 00       	mov    $0x0,%edx
c010b2d5:	f7 75 e4             	divl   -0x1c(%ebp)
c010b2d8:	89 45 e4             	mov    %eax,-0x1c(%ebp)
c010b2db:	8b 45 e4             	mov    -0x1c(%ebp),%eax
c010b2de:	89 45 08             	mov    %eax,0x8(%ebp)
c010b2e1:	80 45 ff 01          	addb   $0x1,-0x1(%ebp)
c010b2e5:	0f b6 45 ec          	movzbl -0x14(%ebp),%eax
c010b2e9:	3b 45 08             	cmp    0x8(%ebp),%eax
c010b2ec:	76 d2                	jbe    c010b2c0 <vid_getuwidth+0x12>
c010b2ee:	0f b6 45 ff          	movzbl -0x1(%ebp),%eax
c010b2f2:	c9                   	leave  
c010b2f3:	c3                   	ret    

c010b2f4 <vid_puts>:
c010b2f4:	55                   	push   %ebp
c010b2f5:	89 e5                	mov    %esp,%ebp
c010b2f7:	83 ec 18             	sub    $0x18,%esp
c010b2fa:	eb 37                	jmp    c010b333 <vid_puts+0x3f>
c010b2fc:	80 7d ff 1b          	cmpb   $0x1b,-0x1(%ebp)
c010b300:	74 06                	je     c010b308 <vid_puts+0x14>
c010b302:	80 7d ff 1b          	cmpb   $0x1b,-0x1(%ebp)
c010b306:	75 16                	jne    c010b31e <vid_puts+0x2a>
c010b308:	8b 45 08             	mov    0x8(%ebp),%eax
c010b30b:	83 c0 01             	add    $0x1,%eax
c010b30e:	89 45 08             	mov    %eax,0x8(%ebp)
c010b311:	8d 45 08             	lea    0x8(%ebp),%eax
c010b314:	89 04 24             	mov    %eax,(%esp)
c010b317:	e8 d8 03 00 00       	call   c010b6f4 <vid_handleColorCode>
c010b31c:	eb 15                	jmp    c010b333 <vid_puts+0x3f>
c010b31e:	0f be 45 ff          	movsbl -0x1(%ebp),%eax
c010b322:	89 04 24             	mov    %eax,(%esp)
c010b325:	e8 da fd ff ff       	call   c010b104 <vid_putchar>
c010b32a:	8b 45 08             	mov    0x8(%ebp),%eax
c010b32d:	83 c0 01             	add    $0x1,%eax
c010b330:	89 45 08             	mov    %eax,0x8(%ebp)
c010b333:	8b 45 08             	mov    0x8(%ebp),%eax
c010b336:	0f b6 00             	movzbl (%eax),%eax
c010b339:	88 45 ff             	mov    %al,-0x1(%ebp)
c010b33c:	80 7d ff 00          	cmpb   $0x0,-0x1(%ebp)
c010b340:	75 ba                	jne    c010b2fc <vid_puts+0x8>
c010b342:	c9                   	leave  
c010b343:	c3                   	ret    

c010b344 <vid_getswidth>:
c010b344:	55                   	push   %ebp
c010b345:	89 e5                	mov    %esp,%ebp
c010b347:	83 ec 10             	sub    $0x10,%esp
c010b34a:	c6 45 ff 00          	movb   $0x0,-0x1(%ebp)
c010b34e:	eb 04                	jmp    c010b354 <vid_getswidth+0x10>
c010b350:	80 45 ff 01          	addb   $0x1,-0x1(%ebp)
c010b354:	8b 45 08             	mov    0x8(%ebp),%eax
c010b357:	0f b6 00             	movzbl (%eax),%eax
c010b35a:	84 c0                	test   %al,%al
c010b35c:	0f 95 c0             	setne  %al
c010b35f:	83 45 08 01          	addl   $0x1,0x8(%ebp)
c010b363:	84 c0                	test   %al,%al
c010b365:	75 e9                	jne    c010b350 <vid_getswidth+0xc>
c010b367:	0f b6 45 ff          	movzbl -0x1(%ebp),%eax
c010b36b:	c9                   	leave  
c010b36c:	c3                   	ret    

c010b36d <vid_printn>:
c010b36d:	55                   	push   %ebp
c010b36e:	89 e5                	mov    %esp,%ebp
c010b370:	53                   	push   %ebx
c010b371:	83 ec 14             	sub    $0x14,%esp
c010b374:	83 7d 08 00          	cmpl   $0x0,0x8(%ebp)
c010b378:	79 0f                	jns    c010b389 <vid_printn+0x1c>
c010b37a:	c7 04 24 2d 00 00 00 	movl   $0x2d,(%esp)
c010b381:	e8 7e fd ff ff       	call   c010b104 <vid_putchar>
c010b386:	f7 5d 08             	negl   0x8(%ebp)
c010b389:	83 7d 08 09          	cmpl   $0x9,0x8(%ebp)
c010b38d:	7e 25                	jle    c010b3b4 <vid_printn+0x47>
c010b38f:	8b 4d 08             	mov    0x8(%ebp),%ecx
c010b392:	c7 45 f4 67 66 66 66 	movl   $0x66666667,-0xc(%ebp)
c010b399:	8b 45 f4             	mov    -0xc(%ebp),%eax
c010b39c:	f7 e9                	imul   %ecx
c010b39e:	c1 fa 02             	sar    $0x2,%edx
c010b3a1:	89 c8                	mov    %ecx,%eax
c010b3a3:	c1 f8 1f             	sar    $0x1f,%eax
c010b3a6:	89 d1                	mov    %edx,%ecx
c010b3a8:	29 c1                	sub    %eax,%ecx
c010b3aa:	89 c8                	mov    %ecx,%eax
c010b3ac:	89 04 24             	mov    %eax,(%esp)
c010b3af:	e8 b9 ff ff ff       	call   c010b36d <vid_printn>
c010b3b4:	8b 4d 08             	mov    0x8(%ebp),%ecx
c010b3b7:	c7 45 f4 67 66 66 66 	movl   $0x66666667,-0xc(%ebp)
c010b3be:	8b 45 f4             	mov    -0xc(%ebp),%eax
c010b3c1:	f7 e9                	imul   %ecx
c010b3c3:	c1 fa 02             	sar    $0x2,%edx
c010b3c6:	89 c8                	mov    %ecx,%eax
c010b3c8:	c1 f8 1f             	sar    $0x1f,%eax
c010b3cb:	89 d3                	mov    %edx,%ebx
c010b3cd:	29 c3                	sub    %eax,%ebx
c010b3cf:	89 5d f8             	mov    %ebx,-0x8(%ebp)
c010b3d2:	8b 45 f8             	mov    -0x8(%ebp),%eax
c010b3d5:	c1 e0 02             	shl    $0x2,%eax
c010b3d8:	03 45 f8             	add    -0x8(%ebp),%eax
c010b3db:	01 c0                	add    %eax,%eax
c010b3dd:	89 ca                	mov    %ecx,%edx
c010b3df:	29 c2                	sub    %eax,%edx
c010b3e1:	89 55 f8             	mov    %edx,-0x8(%ebp)
c010b3e4:	0f b6 45 f8          	movzbl -0x8(%ebp),%eax
c010b3e8:	83 c0 30             	add    $0x30,%eax
c010b3eb:	0f be c0             	movsbl %al,%eax
c010b3ee:	89 04 24             	mov    %eax,(%esp)
c010b3f1:	e8 0e fd ff ff       	call   c010b104 <vid_putchar>
c010b3f6:	83 c4 14             	add    $0x14,%esp
c010b3f9:	5b                   	pop    %ebx
c010b3fa:	5d                   	pop    %ebp
c010b3fb:	c3                   	ret    

c010b3fc <vid_getnwidth>:
c010b3fc:	55                   	push   %ebp
c010b3fd:	89 e5                	mov    %esp,%ebp
c010b3ff:	83 ec 14             	sub    $0x14,%esp
c010b402:	c6 45 ff 01          	movb   $0x1,-0x1(%ebp)
c010b406:	83 7d 08 00          	cmpl   $0x0,0x8(%ebp)
c010b40a:	79 2d                	jns    c010b439 <vid_getnwidth+0x3d>
c010b40c:	80 45 ff 01          	addb   $0x1,-0x1(%ebp)
c010b410:	f7 5d 08             	negl   0x8(%ebp)
c010b413:	eb 24                	jmp    c010b439 <vid_getnwidth+0x3d>
c010b415:	8b 4d 08             	mov    0x8(%ebp),%ecx
c010b418:	c7 45 ec 67 66 66 66 	movl   $0x66666667,-0x14(%ebp)
c010b41f:	8b 45 ec             	mov    -0x14(%ebp),%eax
c010b422:	f7 e9                	imul   %ecx
c010b424:	c1 fa 02             	sar    $0x2,%edx
c010b427:	89 c8                	mov    %ecx,%eax
c010b429:	c1 f8 1f             	sar    $0x1f,%eax
c010b42c:	89 d1                	mov    %edx,%ecx
c010b42e:	29 c1                	sub    %eax,%ecx
c010b430:	89 c8                	mov    %ecx,%eax
c010b432:	89 45 08             	mov    %eax,0x8(%ebp)
c010b435:	80 45 ff 01          	addb   $0x1,-0x1(%ebp)
c010b439:	83 7d 08 09          	cmpl   $0x9,0x8(%ebp)
c010b43d:	7f d6                	jg     c010b415 <vid_getnwidth+0x19>
c010b43f:	0f b6 45 ff          	movzbl -0x1(%ebp),%eax
c010b443:	c9                   	leave  
c010b444:	c3                   	ret    

c010b445 <vid_printf>:
c010b445:	55                   	push   %ebp
c010b446:	89 e5                	mov    %esp,%ebp
c010b448:	83 ec 18             	sub    $0x18,%esp
c010b44b:	8d 45 0c             	lea    0xc(%ebp),%eax
c010b44e:	89 45 fc             	mov    %eax,-0x4(%ebp)
c010b451:	8b 45 fc             	mov    -0x4(%ebp),%eax
c010b454:	89 44 24 04          	mov    %eax,0x4(%esp)
c010b458:	8b 45 08             	mov    0x8(%ebp),%eax
c010b45b:	89 04 24             	mov    %eax,(%esp)
c010b45e:	e8 02 00 00 00       	call   c010b465 <vid_vprintf>
c010b463:	c9                   	leave  
c010b464:	c3                   	ret    

c010b465 <vid_vprintf>:
c010b465:	55                   	push   %ebp
c010b466:	89 e5                	mov    %esp,%ebp
c010b468:	83 ec 38             	sub    $0x38,%esp
c010b46b:	eb 2f                	jmp    c010b49c <vid_vprintf+0x37>
c010b46d:	80 7d ec 1b          	cmpb   $0x1b,-0x14(%ebp)
c010b471:	74 06                	je     c010b479 <vid_vprintf+0x14>
c010b473:	80 7d ec 1b          	cmpb   $0x1b,-0x14(%ebp)
c010b477:	75 0d                	jne    c010b486 <vid_vprintf+0x21>
c010b479:	8d 45 08             	lea    0x8(%ebp),%eax
c010b47c:	89 04 24             	mov    %eax,(%esp)
c010b47f:	e8 70 02 00 00       	call   c010b6f4 <vid_handleColorCode>
c010b484:	eb 16                	jmp    c010b49c <vid_vprintf+0x37>
c010b486:	80 7d ec 00          	cmpb   $0x0,-0x14(%ebp)
c010b48a:	0f 84 62 02 00 00    	je     c010b6f2 <vid_vprintf+0x28d>
c010b490:	0f be 45 ec          	movsbl -0x14(%ebp),%eax
c010b494:	89 04 24             	mov    %eax,(%esp)
c010b497:	e8 68 fc ff ff       	call   c010b104 <vid_putchar>
c010b49c:	8b 55 08             	mov    0x8(%ebp),%edx
c010b49f:	0f b6 02             	movzbl (%edx),%eax
c010b4a2:	88 45 ec             	mov    %al,-0x14(%ebp)
c010b4a5:	80 7d ec 25          	cmpb   $0x25,-0x14(%ebp)
c010b4a9:	0f 95 c1             	setne  %cl
c010b4ac:	8d 42 01             	lea    0x1(%edx),%eax
c010b4af:	89 45 08             	mov    %eax,0x8(%ebp)
c010b4b2:	84 c9                	test   %cl,%cl
c010b4b4:	75 b7                	jne    c010b46d <vid_vprintf+0x8>
c010b4b6:	c6 45 ee 00          	movb   $0x0,-0x12(%ebp)
c010b4ba:	c6 45 ef 20          	movb   $0x20,-0x11(%ebp)
c010b4be:	8b 45 08             	mov    0x8(%ebp),%eax
c010b4c1:	0f b6 00             	movzbl (%eax),%eax
c010b4c4:	3c 30                	cmp    $0x30,%al
c010b4c6:	74 0a                	je     c010b4d2 <vid_vprintf+0x6d>
c010b4c8:	8b 45 08             	mov    0x8(%ebp),%eax
c010b4cb:	0f b6 00             	movzbl (%eax),%eax
c010b4ce:	3c 20                	cmp    $0x20,%al
c010b4d0:	75 3b                	jne    c010b50d <vid_vprintf+0xa8>
c010b4d2:	8b 45 08             	mov    0x8(%ebp),%eax
c010b4d5:	0f b6 00             	movzbl (%eax),%eax
c010b4d8:	88 45 ef             	mov    %al,-0x11(%ebp)
c010b4db:	8b 45 08             	mov    0x8(%ebp),%eax
c010b4de:	83 c0 01             	add    $0x1,%eax
c010b4e1:	89 45 08             	mov    %eax,0x8(%ebp)
c010b4e4:	eb 27                	jmp    c010b50d <vid_vprintf+0xa8>
c010b4e6:	0f be 55 ee          	movsbl -0x12(%ebp),%edx
c010b4ea:	89 d0                	mov    %edx,%eax
c010b4ec:	c1 e0 02             	shl    $0x2,%eax
c010b4ef:	01 d0                	add    %edx,%eax
c010b4f1:	01 c0                	add    %eax,%eax
c010b4f3:	89 c2                	mov    %eax,%edx
c010b4f5:	8b 45 08             	mov    0x8(%ebp),%eax
c010b4f8:	0f b6 00             	movzbl (%eax),%eax
c010b4fb:	8d 04 02             	lea    (%edx,%eax,1),%eax
c010b4fe:	83 e8 30             	sub    $0x30,%eax
c010b501:	88 45 ee             	mov    %al,-0x12(%ebp)
c010b504:	8b 45 08             	mov    0x8(%ebp),%eax
c010b507:	83 c0 01             	add    $0x1,%eax
c010b50a:	89 45 08             	mov    %eax,0x8(%ebp)
c010b50d:	8b 45 08             	mov    0x8(%ebp),%eax
c010b510:	0f b6 00             	movzbl (%eax),%eax
c010b513:	3c 2f                	cmp    $0x2f,%al
c010b515:	7e 0a                	jle    c010b521 <vid_vprintf+0xbc>
c010b517:	8b 45 08             	mov    0x8(%ebp),%eax
c010b51a:	0f b6 00             	movzbl (%eax),%eax
c010b51d:	3c 39                	cmp    $0x39,%al
c010b51f:	7e c5                	jle    c010b4e6 <vid_vprintf+0x81>
c010b521:	8b 55 08             	mov    0x8(%ebp),%edx
c010b524:	0f b6 02             	movzbl (%edx),%eax
c010b527:	88 45 ec             	mov    %al,-0x14(%ebp)
c010b52a:	0f be 4d ec          	movsbl -0x14(%ebp),%ecx
c010b52e:	8d 42 01             	lea    0x1(%edx),%eax
c010b531:	89 45 08             	mov    %eax,0x8(%ebp)
c010b534:	83 e9 58             	sub    $0x58,%ecx
c010b537:	89 4d d8             	mov    %ecx,-0x28(%ebp)
c010b53a:	83 7d d8 20          	cmpl   $0x20,-0x28(%ebp)
c010b53e:	0f 87 9d 01 00 00    	ja     c010b6e1 <vid_vprintf+0x27c>
c010b544:	8b 55 d8             	mov    -0x28(%ebp),%edx
c010b547:	8b 04 95 38 dd 16 c0 	mov    -0x3fe922c8(,%edx,4),%eax
c010b54e:	ff e0                	jmp    *%eax
c010b550:	8b 55 0c             	mov    0xc(%ebp),%edx
c010b553:	8d 42 04             	lea    0x4(%edx),%eax
c010b556:	89 45 0c             	mov    %eax,0xc(%ebp)
c010b559:	89 d0                	mov    %edx,%eax
c010b55b:	8b 00                	mov    (%eax),%eax
c010b55d:	89 45 f4             	mov    %eax,-0xc(%ebp)
c010b560:	80 7d ee 00          	cmpb   $0x0,-0x12(%ebp)
c010b564:	7e 31                	jle    c010b597 <vid_vprintf+0x132>
c010b566:	8b 45 f4             	mov    -0xc(%ebp),%eax
c010b569:	89 04 24             	mov    %eax,(%esp)
c010b56c:	e8 8b fe ff ff       	call   c010b3fc <vid_getnwidth>
c010b571:	88 45 fe             	mov    %al,-0x2(%ebp)
c010b574:	eb 0c                	jmp    c010b582 <vid_vprintf+0x11d>
c010b576:	0f be 45 ef          	movsbl -0x11(%ebp),%eax
c010b57a:	89 04 24             	mov    %eax,(%esp)
c010b57d:	e8 82 fb ff ff       	call   c010b104 <vid_putchar>
c010b582:	0f b6 45 fe          	movzbl -0x2(%ebp),%eax
c010b586:	0f be 55 ee          	movsbl -0x12(%ebp),%edx
c010b58a:	39 d0                	cmp    %edx,%eax
c010b58c:	0f 9c c0             	setl   %al
c010b58f:	80 45 fe 01          	addb   $0x1,-0x2(%ebp)
c010b593:	84 c0                	test   %al,%al
c010b595:	75 df                	jne    c010b576 <vid_vprintf+0x111>
c010b597:	8b 45 f4             	mov    -0xc(%ebp),%eax
c010b59a:	89 04 24             	mov    %eax,(%esp)
c010b59d:	e8 cb fd ff ff       	call   c010b36d <vid_printn>
c010b5a2:	e9 f5 fe ff ff       	jmp    c010b49c <vid_vprintf+0x37>
c010b5a7:	8b 55 0c             	mov    0xc(%ebp),%edx
c010b5aa:	8d 42 04             	lea    0x4(%edx),%eax
c010b5ad:	89 45 0c             	mov    %eax,0xc(%ebp)
c010b5b0:	89 d0                	mov    %edx,%eax
c010b5b2:	8b 00                	mov    (%eax),%eax
c010b5b4:	89 45 f8             	mov    %eax,-0x8(%ebp)
c010b5b7:	80 7d ec 6f          	cmpb   $0x6f,-0x14(%ebp)
c010b5bb:	74 2c                	je     c010b5e9 <vid_vprintf+0x184>
c010b5bd:	80 7d ec 78          	cmpb   $0x78,-0x14(%ebp)
c010b5c1:	74 19                	je     c010b5dc <vid_vprintf+0x177>
c010b5c3:	80 7d ec 62          	cmpb   $0x62,-0x14(%ebp)
c010b5c7:	75 06                	jne    c010b5cf <vid_vprintf+0x16a>
c010b5c9:	c6 45 df 02          	movb   $0x2,-0x21(%ebp)
c010b5cd:	eb 04                	jmp    c010b5d3 <vid_vprintf+0x16e>
c010b5cf:	c6 45 df 0a          	movb   $0xa,-0x21(%ebp)
c010b5d3:	0f b6 45 df          	movzbl -0x21(%ebp),%eax
c010b5d7:	88 45 de             	mov    %al,-0x22(%ebp)
c010b5da:	eb 04                	jmp    c010b5e0 <vid_vprintf+0x17b>
c010b5dc:	c6 45 de 10          	movb   $0x10,-0x22(%ebp)
c010b5e0:	0f b6 55 de          	movzbl -0x22(%ebp),%edx
c010b5e4:	88 55 dd             	mov    %dl,-0x23(%ebp)
c010b5e7:	eb 04                	jmp    c010b5ed <vid_vprintf+0x188>
c010b5e9:	c6 45 dd 08          	movb   $0x8,-0x23(%ebp)
c010b5ed:	0f b6 45 dd          	movzbl -0x23(%ebp),%eax
c010b5f1:	88 45 ff             	mov    %al,-0x1(%ebp)
c010b5f4:	80 7d ee 00          	cmpb   $0x0,-0x12(%ebp)
c010b5f8:	7e 39                	jle    c010b633 <vid_vprintf+0x1ce>
c010b5fa:	0f b6 45 ff          	movzbl -0x1(%ebp),%eax
c010b5fe:	89 44 24 04          	mov    %eax,0x4(%esp)
c010b602:	8b 45 f8             	mov    -0x8(%ebp),%eax
c010b605:	89 04 24             	mov    %eax,(%esp)
c010b608:	e8 a1 fc ff ff       	call   c010b2ae <vid_getuwidth>
c010b60d:	88 45 fe             	mov    %al,-0x2(%ebp)
c010b610:	eb 0c                	jmp    c010b61e <vid_vprintf+0x1b9>
c010b612:	0f be 45 ef          	movsbl -0x11(%ebp),%eax
c010b616:	89 04 24             	mov    %eax,(%esp)
c010b619:	e8 e6 fa ff ff       	call   c010b104 <vid_putchar>
c010b61e:	0f b6 45 fe          	movzbl -0x2(%ebp),%eax
c010b622:	0f be 55 ee          	movsbl -0x12(%ebp),%edx
c010b626:	39 d0                	cmp    %edx,%eax
c010b628:	0f 9c c0             	setl   %al
c010b62b:	80 45 fe 01          	addb   $0x1,-0x2(%ebp)
c010b62f:	84 c0                	test   %al,%al
c010b631:	75 df                	jne    c010b612 <vid_vprintf+0x1ad>
c010b633:	80 7d ec 78          	cmpb   $0x78,-0x14(%ebp)
c010b637:	75 18                	jne    c010b651 <vid_vprintf+0x1ec>
c010b639:	0f b6 45 ff          	movzbl -0x1(%ebp),%eax
c010b63d:	89 44 24 04          	mov    %eax,0x4(%esp)
c010b641:	8b 45 f8             	mov    -0x8(%ebp),%eax
c010b644:	89 04 24             	mov    %eax,(%esp)
c010b647:	e8 ab 01 00 00       	call   c010b7f7 <vid_printuSmall>
c010b64c:	e9 4b fe ff ff       	jmp    c010b49c <vid_vprintf+0x37>
c010b651:	0f b6 45 ff          	movzbl -0x1(%ebp),%eax
c010b655:	89 44 24 04          	mov    %eax,0x4(%esp)
c010b659:	8b 45 f8             	mov    -0x8(%ebp),%eax
c010b65c:	89 04 24             	mov    %eax,(%esp)
c010b65f:	e8 e7 fb ff ff       	call   c010b24b <vid_printu>
c010b664:	e9 33 fe ff ff       	jmp    c010b49c <vid_vprintf+0x37>
c010b669:	8b 55 0c             	mov    0xc(%ebp),%edx
c010b66c:	8d 42 04             	lea    0x4(%edx),%eax
c010b66f:	89 45 0c             	mov    %eax,0xc(%ebp)
c010b672:	89 d0                	mov    %edx,%eax
c010b674:	8b 00                	mov    (%eax),%eax
c010b676:	89 45 f0             	mov    %eax,-0x10(%ebp)
c010b679:	80 7d ee 00          	cmpb   $0x0,-0x12(%ebp)
c010b67d:	7e 31                	jle    c010b6b0 <vid_vprintf+0x24b>
c010b67f:	8b 45 f0             	mov    -0x10(%ebp),%eax
c010b682:	89 04 24             	mov    %eax,(%esp)
c010b685:	e8 ba fc ff ff       	call   c010b344 <vid_getswidth>
c010b68a:	88 45 fe             	mov    %al,-0x2(%ebp)
c010b68d:	eb 0c                	jmp    c010b69b <vid_vprintf+0x236>
c010b68f:	0f be 45 ef          	movsbl -0x11(%ebp),%eax
c010b693:	89 04 24             	mov    %eax,(%esp)
c010b696:	e8 69 fa ff ff       	call   c010b104 <vid_putchar>
c010b69b:	0f b6 45 fe          	movzbl -0x2(%ebp),%eax
c010b69f:	0f be 55 ee          	movsbl -0x12(%ebp),%edx
c010b6a3:	39 d0                	cmp    %edx,%eax
c010b6a5:	0f 9c c0             	setl   %al
c010b6a8:	80 45 fe 01          	addb   $0x1,-0x2(%ebp)
c010b6ac:	84 c0                	test   %al,%al
c010b6ae:	75 df                	jne    c010b68f <vid_vprintf+0x22a>
c010b6b0:	8b 45 f0             	mov    -0x10(%ebp),%eax
c010b6b3:	89 04 24             	mov    %eax,(%esp)
c010b6b6:	e8 39 fc ff ff       	call   c010b2f4 <vid_puts>
c010b6bb:	e9 dc fd ff ff       	jmp    c010b49c <vid_vprintf+0x37>
c010b6c0:	8b 55 0c             	mov    0xc(%ebp),%edx
c010b6c3:	8d 42 04             	lea    0x4(%edx),%eax
c010b6c6:	89 45 0c             	mov    %eax,0xc(%ebp)
c010b6c9:	89 d0                	mov    %edx,%eax
c010b6cb:	8b 00                	mov    (%eax),%eax
c010b6cd:	88 45 ed             	mov    %al,-0x13(%ebp)
c010b6d0:	0f be 45 ed          	movsbl -0x13(%ebp),%eax
c010b6d4:	89 04 24             	mov    %eax,(%esp)
c010b6d7:	e8 28 fa ff ff       	call   c010b104 <vid_putchar>
c010b6dc:	e9 bb fd ff ff       	jmp    c010b49c <vid_vprintf+0x37>
c010b6e1:	0f be 45 ec          	movsbl -0x14(%ebp),%eax
c010b6e5:	89 04 24             	mov    %eax,(%esp)
c010b6e8:	e8 17 fa ff ff       	call   c010b104 <vid_putchar>
c010b6ed:	e9 aa fd ff ff       	jmp    c010b49c <vid_vprintf+0x37>
c010b6f2:	c9                   	leave  
c010b6f3:	c3                   	ret    

c010b6f4 <vid_handleColorCode>:
c010b6f4:	55                   	push   %ebp
c010b6f5:	89 e5                	mov    %esp,%ebp
c010b6f7:	83 ec 20             	sub    $0x20,%esp
c010b6fa:	8b 45 08             	mov    0x8(%ebp),%eax
c010b6fd:	8b 00                	mov    (%eax),%eax
c010b6ff:	89 45 f8             	mov    %eax,-0x8(%ebp)
c010b702:	8b 45 f8             	mov    -0x8(%ebp),%eax
c010b705:	0f b6 00             	movzbl (%eax),%eax
c010b708:	88 45 fe             	mov    %al,-0x2(%ebp)
c010b70b:	8b 45 f8             	mov    -0x8(%ebp),%eax
c010b70e:	83 c0 01             	add    $0x1,%eax
c010b711:	0f b6 00             	movzbl (%eax),%eax
c010b714:	88 45 ff             	mov    %al,-0x1(%ebp)
c010b717:	0f b6 45 fe          	movzbl -0x2(%ebp),%eax
c010b71b:	89 45 e4             	mov    %eax,-0x1c(%ebp)
c010b71e:	83 7d e4 66          	cmpl   $0x66,-0x1c(%ebp)
c010b722:	74 28                	je     c010b74c <vid_handleColorCode+0x58>
c010b724:	83 7d e4 72          	cmpl   $0x72,-0x1c(%ebp)
c010b728:	74 08                	je     c010b732 <vid_handleColorCode+0x3e>
c010b72a:	83 7d e4 62          	cmpl   $0x62,-0x1c(%ebp)
c010b72e:	74 3f                	je     c010b76f <vid_handleColorCode+0x7b>
c010b730:	eb 5e                	jmp    c010b790 <vid_handleColorCode+0x9c>
c010b732:	c7 04 24 07 00 00 00 	movl   $0x7,(%esp)
c010b739:	e8 60 f8 ff ff       	call   c010af9e <vid_setFGColor>
c010b73e:	c7 04 24 00 00 00 00 	movl   $0x0,(%esp)
c010b745:	e8 72 f8 ff ff       	call   c010afbc <vid_setBGColor>
c010b74a:	eb 44                	jmp    c010b790 <vid_handleColorCode+0x9c>
c010b74c:	80 7d ff 08          	cmpb   $0x8,-0x1(%ebp)
c010b750:	77 09                	ja     c010b75b <vid_handleColorCode+0x67>
c010b752:	0f b6 45 ff          	movzbl -0x1(%ebp),%eax
c010b756:	89 45 e8             	mov    %eax,-0x18(%ebp)
c010b759:	eb 07                	jmp    c010b762 <vid_handleColorCode+0x6e>
c010b75b:	c7 45 e8 09 00 00 00 	movl   $0x9,-0x18(%ebp)
c010b762:	8b 45 e8             	mov    -0x18(%ebp),%eax
c010b765:	89 04 24             	mov    %eax,(%esp)
c010b768:	e8 31 f8 ff ff       	call   c010af9e <vid_setFGColor>
c010b76d:	eb 21                	jmp    c010b790 <vid_handleColorCode+0x9c>
c010b76f:	80 7d ff 08          	cmpb   $0x8,-0x1(%ebp)
c010b773:	77 09                	ja     c010b77e <vid_handleColorCode+0x8a>
c010b775:	0f b6 45 ff          	movzbl -0x1(%ebp),%eax
c010b779:	89 45 ec             	mov    %eax,-0x14(%ebp)
c010b77c:	eb 07                	jmp    c010b785 <vid_handleColorCode+0x91>
c010b77e:	c7 45 ec 09 00 00 00 	movl   $0x9,-0x14(%ebp)
c010b785:	8b 45 ec             	mov    -0x14(%ebp),%eax
c010b788:	89 04 24             	mov    %eax,(%esp)
c010b78b:	e8 2c f8 ff ff       	call   c010afbc <vid_setBGColor>
c010b790:	8b 45 08             	mov    0x8(%ebp),%eax
c010b793:	8b 00                	mov    (%eax),%eax
c010b795:	8d 50 02             	lea    0x2(%eax),%edx
c010b798:	8b 45 08             	mov    0x8(%ebp),%eax
c010b79b:	89 10                	mov    %edx,(%eax)
c010b79d:	c9                   	leave  
c010b79e:	c3                   	ret    

c010b79f <vid_removeBIOSCursor>:
c010b79f:	55                   	push   %ebp
c010b7a0:	89 e5                	mov    %esp,%ebp
c010b7a2:	83 ec 08             	sub    $0x8,%esp
c010b7a5:	c7 44 24 04 0e 00 00 	movl   $0xe,0x4(%esp)
c010b7ac:	00 
c010b7ad:	c7 04 24 d4 03 00 00 	movl   $0x3d4,(%esp)
c010b7b4:	e8 ff 48 ff ff       	call   c01000b8 <outb>
c010b7b9:	c7 44 24 04 07 00 00 	movl   $0x7,0x4(%esp)
c010b7c0:	00 
c010b7c1:	c7 04 24 d5 03 00 00 	movl   $0x3d5,(%esp)
c010b7c8:	e8 eb 48 ff ff       	call   c01000b8 <outb>
c010b7cd:	c7 44 24 04 0f 00 00 	movl   $0xf,0x4(%esp)
c010b7d4:	00 
c010b7d5:	c7 04 24 d4 03 00 00 	movl   $0x3d4,(%esp)
c010b7dc:	e8 d7 48 ff ff       	call   c01000b8 <outb>
c010b7e1:	c7 44 24 04 d0 00 00 	movl   $0xd0,0x4(%esp)
c010b7e8:	00 
c010b7e9:	c7 04 24 d5 03 00 00 	movl   $0x3d5,(%esp)
c010b7f0:	e8 c3 48 ff ff       	call   c01000b8 <outb>
c010b7f5:	c9                   	leave  
c010b7f6:	c3                   	ret    

c010b7f7 <vid_printuSmall>:
c010b7f7:	55                   	push   %ebp
c010b7f8:	89 e5                	mov    %esp,%ebp
c010b7fa:	83 ec 28             	sub    $0x28,%esp
c010b7fd:	8b 45 0c             	mov    0xc(%ebp),%eax
c010b800:	88 45 fc             	mov    %al,-0x4(%ebp)
c010b803:	0f b6 45 fc          	movzbl -0x4(%ebp),%eax
c010b807:	3b 45 08             	cmp    0x8(%ebp),%eax
c010b80a:	77 22                	ja     c010b82e <vid_printuSmall+0x37>
c010b80c:	0f b6 4d fc          	movzbl -0x4(%ebp),%ecx
c010b810:	0f b6 45 fc          	movzbl -0x4(%ebp),%eax
c010b814:	89 45 f0             	mov    %eax,-0x10(%ebp)
c010b817:	8b 45 08             	mov    0x8(%ebp),%eax
c010b81a:	ba 00 00 00 00       	mov    $0x0,%edx
c010b81f:	f7 75 f0             	divl   -0x10(%ebp)
c010b822:	89 4c 24 04          	mov    %ecx,0x4(%esp)
c010b826:	89 04 24             	mov    %eax,(%esp)
c010b829:	e8 c9 ff ff ff       	call   c010b7f7 <vid_printuSmall>
c010b82e:	0f b6 55 fc          	movzbl -0x4(%ebp),%edx
c010b832:	8b 4d 08             	mov    0x8(%ebp),%ecx
c010b835:	89 4d ec             	mov    %ecx,-0x14(%ebp)
c010b838:	8b 45 ec             	mov    -0x14(%ebp),%eax
c010b83b:	89 d1                	mov    %edx,%ecx
c010b83d:	ba 00 00 00 00       	mov    $0x0,%edx
c010b842:	f7 f1                	div    %ecx
c010b844:	89 d0                	mov    %edx,%eax
c010b846:	0f b6 80 e1 ae 16 c0 	movzbl -0x3fe9511f(%eax),%eax
c010b84d:	0f be c0             	movsbl %al,%eax
c010b850:	89 04 24             	mov    %eax,(%esp)
c010b853:	e8 ac f8 ff ff       	call   c010b104 <vid_putchar>
c010b858:	c9                   	leave  
c010b859:	c3                   	ret    
	...

c010b85c <sll_create>:
c010b85c:	55                   	push   %ebp
c010b85d:	89 e5                	mov    %esp,%ebp
c010b85f:	83 ec 18             	sub    $0x18,%esp
c010b862:	c7 04 24 0c 00 00 00 	movl   $0xc,(%esp)
c010b869:	e8 06 64 ff ff       	call   c0101c74 <kheap_alloc>
c010b86e:	89 45 fc             	mov    %eax,-0x4(%ebp)
c010b871:	83 7d fc 00          	cmpl   $0x0,-0x4(%ebp)
c010b875:	75 09                	jne    c010b880 <sll_create+0x24>
c010b877:	c7 45 ec 00 00 00 00 	movl   $0x0,-0x14(%ebp)
c010b87e:	eb 23                	jmp    c010b8a3 <sll_create+0x47>
c010b880:	8b 45 fc             	mov    -0x4(%ebp),%eax
c010b883:	c7 00 00 00 00 00    	movl   $0x0,(%eax)
c010b889:	8b 45 fc             	mov    -0x4(%ebp),%eax
c010b88c:	c7 40 04 00 00 00 00 	movl   $0x0,0x4(%eax)
c010b893:	8b 45 fc             	mov    -0x4(%ebp),%eax
c010b896:	c7 40 08 00 00 00 00 	movl   $0x0,0x8(%eax)
c010b89d:	8b 45 fc             	mov    -0x4(%ebp),%eax
c010b8a0:	89 45 ec             	mov    %eax,-0x14(%ebp)
c010b8a3:	8b 45 ec             	mov    -0x14(%ebp),%eax
c010b8a6:	c9                   	leave  
c010b8a7:	c3                   	ret    

c010b8a8 <sll_destroy>:
c010b8a8:	55                   	push   %ebp
c010b8a9:	89 e5                	mov    %esp,%ebp
c010b8ab:	83 ec 28             	sub    $0x28,%esp
c010b8ae:	8b 45 08             	mov    0x8(%ebp),%eax
c010b8b1:	89 45 f4             	mov    %eax,-0xc(%ebp)
c010b8b4:	8b 45 f4             	mov    -0xc(%ebp),%eax
c010b8b7:	8b 00                	mov    (%eax),%eax
c010b8b9:	89 45 fc             	mov    %eax,-0x4(%ebp)
c010b8bc:	83 7d 08 00          	cmpl   $0x0,0x8(%ebp)
c010b8c0:	75 53                	jne    c010b915 <sll_destroy+0x6d>
c010b8c2:	c7 44 24 0c 43 00 00 	movl   $0x43,0xc(%esp)
c010b8c9:	00 
c010b8ca:	c7 44 24 08 bc dd 16 	movl   $0xc016ddbc,0x8(%esp)
c010b8d1:	c0 
c010b8d2:	c7 44 24 04 c8 dd 16 	movl   $0xc016ddc8,0x4(%esp)
c010b8d9:	c0 
c010b8da:	c7 04 24 dc dd 16 c0 	movl   $0xc016dddc,(%esp)
c010b8e1:	e8 fa c0 ff ff       	call   c01079e0 <panic>
c010b8e6:	eb 2d                	jmp    c010b915 <sll_destroy+0x6d>
c010b8e8:	8b 45 fc             	mov    -0x4(%ebp),%eax
c010b8eb:	8b 00                	mov    (%eax),%eax
c010b8ed:	89 45 f8             	mov    %eax,-0x8(%ebp)
c010b8f0:	83 7d 0c 00          	cmpl   $0x0,0xc(%ebp)
c010b8f4:	74 0e                	je     c010b904 <sll_destroy+0x5c>
c010b8f6:	8b 45 fc             	mov    -0x4(%ebp),%eax
c010b8f9:	8b 40 04             	mov    0x4(%eax),%eax
c010b8fc:	89 04 24             	mov    %eax,(%esp)
c010b8ff:	e8 c7 64 ff ff       	call   c0101dcb <kheap_free>
c010b904:	8b 45 fc             	mov    -0x4(%ebp),%eax
c010b907:	89 04 24             	mov    %eax,(%esp)
c010b90a:	e8 bc 64 ff ff       	call   c0101dcb <kheap_free>
c010b90f:	8b 45 f8             	mov    -0x8(%ebp),%eax
c010b912:	89 45 fc             	mov    %eax,-0x4(%ebp)
c010b915:	83 7d fc 00          	cmpl   $0x0,-0x4(%ebp)
c010b919:	75 cd                	jne    c010b8e8 <sll_destroy+0x40>
c010b91b:	8b 45 08             	mov    0x8(%ebp),%eax
c010b91e:	89 04 24             	mov    %eax,(%esp)
c010b921:	e8 a5 64 ff ff       	call   c0101dcb <kheap_free>
c010b926:	c9                   	leave  
c010b927:	c3                   	ret    

c010b928 <sll_begin>:
c010b928:	55                   	push   %ebp
c010b929:	89 e5                	mov    %esp,%ebp
c010b92b:	83 ec 08             	sub    $0x8,%esp
c010b92e:	c7 44 24 04 00 00 00 	movl   $0x0,0x4(%esp)
c010b935:	00 
c010b936:	8b 45 08             	mov    0x8(%ebp),%eax
c010b939:	89 04 24             	mov    %eax,(%esp)
c010b93c:	e8 ff 04 00 00       	call   c010be40 <sll_getNode>
c010b941:	c9                   	leave  
c010b942:	c3                   	ret    

c010b943 <sll_nodeAt>:
c010b943:	55                   	push   %ebp
c010b944:	89 e5                	mov    %esp,%ebp
c010b946:	83 ec 08             	sub    $0x8,%esp
c010b949:	8b 45 0c             	mov    0xc(%ebp),%eax
c010b94c:	89 44 24 04          	mov    %eax,0x4(%esp)
c010b950:	8b 45 08             	mov    0x8(%ebp),%eax
c010b953:	89 04 24             	mov    %eax,(%esp)
c010b956:	e8 e5 04 00 00       	call   c010be40 <sll_getNode>
c010b95b:	c9                   	leave  
c010b95c:	c3                   	ret    

c010b95d <sll_length>:
c010b95d:	55                   	push   %ebp
c010b95e:	89 e5                	mov    %esp,%ebp
c010b960:	83 ec 28             	sub    $0x28,%esp
c010b963:	8b 45 08             	mov    0x8(%ebp),%eax
c010b966:	89 45 fc             	mov    %eax,-0x4(%ebp)
c010b969:	83 7d 08 00          	cmpl   $0x0,0x8(%ebp)
c010b96d:	75 24                	jne    c010b993 <sll_length+0x36>
c010b96f:	c7 44 24 0c 5a 00 00 	movl   $0x5a,0xc(%esp)
c010b976:	00 
c010b977:	c7 44 24 08 0c de 16 	movl   $0xc016de0c,0x8(%esp)
c010b97e:	c0 
c010b97f:	c7 44 24 04 c8 dd 16 	movl   $0xc016ddc8,0x4(%esp)
c010b986:	c0 
c010b987:	c7 04 24 dc dd 16 c0 	movl   $0xc016dddc,(%esp)
c010b98e:	e8 4d c0 ff ff       	call   c01079e0 <panic>
c010b993:	8b 45 fc             	mov    -0x4(%ebp),%eax
c010b996:	8b 40 08             	mov    0x8(%eax),%eax
c010b999:	c9                   	leave  
c010b99a:	c3                   	ret    

c010b99b <sll_indexOf>:
c010b99b:	55                   	push   %ebp
c010b99c:	89 e5                	mov    %esp,%ebp
c010b99e:	83 ec 14             	sub    $0x14,%esp
c010b9a1:	8b 45 08             	mov    0x8(%ebp),%eax
c010b9a4:	89 45 f4             	mov    %eax,-0xc(%ebp)
c010b9a7:	8b 45 f4             	mov    -0xc(%ebp),%eax
c010b9aa:	8b 00                	mov    (%eax),%eax
c010b9ac:	89 45 f8             	mov    %eax,-0x8(%ebp)
c010b9af:	c7 45 fc 00 00 00 00 	movl   $0x0,-0x4(%ebp)
c010b9b6:	eb 1f                	jmp    c010b9d7 <sll_indexOf+0x3c>
c010b9b8:	8b 45 f8             	mov    -0x8(%ebp),%eax
c010b9bb:	8b 40 04             	mov    0x4(%eax),%eax
c010b9be:	3b 45 0c             	cmp    0xc(%ebp),%eax
c010b9c1:	75 08                	jne    c010b9cb <sll_indexOf+0x30>
c010b9c3:	8b 45 fc             	mov    -0x4(%ebp),%eax
c010b9c6:	89 45 ec             	mov    %eax,-0x14(%ebp)
c010b9c9:	eb 19                	jmp    c010b9e4 <sll_indexOf+0x49>
c010b9cb:	8b 45 f8             	mov    -0x8(%ebp),%eax
c010b9ce:	8b 00                	mov    (%eax),%eax
c010b9d0:	89 45 f8             	mov    %eax,-0x8(%ebp)
c010b9d3:	83 45 fc 01          	addl   $0x1,-0x4(%ebp)
c010b9d7:	83 7d f8 00          	cmpl   $0x0,-0x8(%ebp)
c010b9db:	75 db                	jne    c010b9b8 <sll_indexOf+0x1d>
c010b9dd:	c7 45 ec ff ff ff ff 	movl   $0xffffffff,-0x14(%ebp)
c010b9e4:	8b 45 ec             	mov    -0x14(%ebp),%eax
c010b9e7:	c9                   	leave  
c010b9e8:	c3                   	ret    

c010b9e9 <sll_nodeWith>:
c010b9e9:	55                   	push   %ebp
c010b9ea:	89 e5                	mov    %esp,%ebp
c010b9ec:	83 ec 14             	sub    $0x14,%esp
c010b9ef:	8b 45 08             	mov    0x8(%ebp),%eax
c010b9f2:	89 45 f8             	mov    %eax,-0x8(%ebp)
c010b9f5:	8b 45 f8             	mov    -0x8(%ebp),%eax
c010b9f8:	8b 00                	mov    (%eax),%eax
c010b9fa:	89 45 fc             	mov    %eax,-0x4(%ebp)
c010b9fd:	eb 1b                	jmp    c010ba1a <sll_nodeWith+0x31>
c010b9ff:	8b 45 fc             	mov    -0x4(%ebp),%eax
c010ba02:	8b 40 04             	mov    0x4(%eax),%eax
c010ba05:	3b 45 0c             	cmp    0xc(%ebp),%eax
c010ba08:	75 08                	jne    c010ba12 <sll_nodeWith+0x29>
c010ba0a:	8b 45 fc             	mov    -0x4(%ebp),%eax
c010ba0d:	89 45 ec             	mov    %eax,-0x14(%ebp)
c010ba10:	eb 15                	jmp    c010ba27 <sll_nodeWith+0x3e>
c010ba12:	8b 45 fc             	mov    -0x4(%ebp),%eax
c010ba15:	8b 00                	mov    (%eax),%eax
c010ba17:	89 45 fc             	mov    %eax,-0x4(%ebp)
c010ba1a:	83 7d fc 00          	cmpl   $0x0,-0x4(%ebp)
c010ba1e:	75 df                	jne    c010b9ff <sll_nodeWith+0x16>
c010ba20:	c7 45 ec 00 00 00 00 	movl   $0x0,-0x14(%ebp)
c010ba27:	8b 45 ec             	mov    -0x14(%ebp),%eax
c010ba2a:	c9                   	leave  
c010ba2b:	c3                   	ret    

c010ba2c <sll_get>:
c010ba2c:	55                   	push   %ebp
c010ba2d:	89 e5                	mov    %esp,%ebp
c010ba2f:	83 ec 08             	sub    $0x8,%esp
c010ba32:	8b 45 0c             	mov    0xc(%ebp),%eax
c010ba35:	89 44 24 04          	mov    %eax,0x4(%esp)
c010ba39:	8b 45 08             	mov    0x8(%ebp),%eax
c010ba3c:	89 04 24             	mov    %eax,(%esp)
c010ba3f:	e8 fc 03 00 00       	call   c010be40 <sll_getNode>
c010ba44:	8b 40 04             	mov    0x4(%eax),%eax
c010ba47:	c9                   	leave  
c010ba48:	c3                   	ret    

c010ba49 <sll_set>:
c010ba49:	55                   	push   %ebp
c010ba4a:	89 e5                	mov    %esp,%ebp
c010ba4c:	83 ec 28             	sub    $0x28,%esp
c010ba4f:	83 7d 0c 00          	cmpl   $0x0,0xc(%ebp)
c010ba53:	75 24                	jne    c010ba79 <sll_set+0x30>
c010ba55:	c7 44 24 0c 7b 00 00 	movl   $0x7b,0xc(%esp)
c010ba5c:	00 
c010ba5d:	c7 44 24 08 17 de 16 	movl   $0xc016de17,0x8(%esp)
c010ba64:	c0 
c010ba65:	c7 44 24 04 c8 dd 16 	movl   $0xc016ddc8,0x4(%esp)
c010ba6c:	c0 
c010ba6d:	c7 04 24 20 de 16 c0 	movl   $0xc016de20,(%esp)
c010ba74:	e8 67 bf ff ff       	call   c01079e0 <panic>
c010ba79:	8b 45 10             	mov    0x10(%ebp),%eax
c010ba7c:	89 44 24 04          	mov    %eax,0x4(%esp)
c010ba80:	8b 45 08             	mov    0x8(%ebp),%eax
c010ba83:	89 04 24             	mov    %eax,(%esp)
c010ba86:	e8 b5 03 00 00       	call   c010be40 <sll_getNode>
c010ba8b:	89 45 fc             	mov    %eax,-0x4(%ebp)
c010ba8e:	8b 55 fc             	mov    -0x4(%ebp),%edx
c010ba91:	8b 45 0c             	mov    0xc(%ebp),%eax
c010ba94:	89 42 04             	mov    %eax,0x4(%edx)
c010ba97:	c9                   	leave  
c010ba98:	c3                   	ret    

c010ba99 <sll_append>:
c010ba99:	55                   	push   %ebp
c010ba9a:	89 e5                	mov    %esp,%ebp
c010ba9c:	83 ec 28             	sub    $0x28,%esp
c010ba9f:	8b 45 08             	mov    0x8(%ebp),%eax
c010baa2:	89 45 fc             	mov    %eax,-0x4(%ebp)
c010baa5:	8b 45 fc             	mov    -0x4(%ebp),%eax
c010baa8:	8b 40 08             	mov    0x8(%eax),%eax
c010baab:	89 44 24 08          	mov    %eax,0x8(%esp)
c010baaf:	8b 45 0c             	mov    0xc(%ebp),%eax
c010bab2:	89 44 24 04          	mov    %eax,0x4(%esp)
c010bab6:	8b 45 08             	mov    0x8(%ebp),%eax
c010bab9:	89 04 24             	mov    %eax,(%esp)
c010babc:	e8 02 00 00 00       	call   c010bac3 <sll_insert>
c010bac1:	c9                   	leave  
c010bac2:	c3                   	ret    

c010bac3 <sll_insert>:
c010bac3:	55                   	push   %ebp
c010bac4:	89 e5                	mov    %esp,%ebp
c010bac6:	83 ec 28             	sub    $0x28,%esp
c010bac9:	8b 45 08             	mov    0x8(%ebp),%eax
c010bacc:	89 45 f0             	mov    %eax,-0x10(%ebp)
c010bacf:	8b 45 f0             	mov    -0x10(%ebp),%eax
c010bad2:	8b 00                	mov    (%eax),%eax
c010bad4:	89 45 f8             	mov    %eax,-0x8(%ebp)
c010bad7:	c7 45 fc 00 00 00 00 	movl   $0x0,-0x4(%ebp)
c010bade:	83 7d 08 00          	cmpl   $0x0,0x8(%ebp)
c010bae2:	75 24                	jne    c010bb08 <sll_insert+0x45>
c010bae4:	c7 44 24 0c 89 00 00 	movl   $0x89,0xc(%esp)
c010baeb:	00 
c010baec:	c7 44 24 08 50 de 16 	movl   $0xc016de50,0x8(%esp)
c010baf3:	c0 
c010baf4:	c7 44 24 04 c8 dd 16 	movl   $0xc016ddc8,0x4(%esp)
c010bafb:	c0 
c010bafc:	c7 04 24 dc dd 16 c0 	movl   $0xc016dddc,(%esp)
c010bb03:	e8 d8 be ff ff       	call   c01079e0 <panic>
c010bb08:	83 7d 0c 00          	cmpl   $0x0,0xc(%ebp)
c010bb0c:	75 24                	jne    c010bb32 <sll_insert+0x6f>
c010bb0e:	c7 44 24 0c 8a 00 00 	movl   $0x8a,0xc(%esp)
c010bb15:	00 
c010bb16:	c7 44 24 08 50 de 16 	movl   $0xc016de50,0x8(%esp)
c010bb1d:	c0 
c010bb1e:	c7 44 24 04 c8 dd 16 	movl   $0xc016ddc8,0x4(%esp)
c010bb25:	c0 
c010bb26:	c7 04 24 20 de 16 c0 	movl   $0xc016de20,(%esp)
c010bb2d:	e8 ae be ff ff       	call   c01079e0 <panic>
c010bb32:	8b 45 f0             	mov    -0x10(%ebp),%eax
c010bb35:	8b 40 08             	mov    0x8(%eax),%eax
c010bb38:	3b 45 10             	cmp    0x10(%ebp),%eax
c010bb3b:	75 20                	jne    c010bb5d <sll_insert+0x9a>
c010bb3d:	c7 45 f8 00 00 00 00 	movl   $0x0,-0x8(%ebp)
c010bb44:	8b 45 f0             	mov    -0x10(%ebp),%eax
c010bb47:	8b 40 04             	mov    0x4(%eax),%eax
c010bb4a:	89 45 fc             	mov    %eax,-0x4(%ebp)
c010bb4d:	eb 1d                	jmp    c010bb6c <sll_insert+0xa9>
c010bb4f:	8b 45 f8             	mov    -0x8(%ebp),%eax
c010bb52:	89 45 fc             	mov    %eax,-0x4(%ebp)
c010bb55:	8b 45 f8             	mov    -0x8(%ebp),%eax
c010bb58:	8b 00                	mov    (%eax),%eax
c010bb5a:	89 45 f8             	mov    %eax,-0x8(%ebp)
c010bb5d:	83 7d 10 00          	cmpl   $0x0,0x10(%ebp)
c010bb61:	0f 95 c0             	setne  %al
c010bb64:	83 6d 10 01          	subl   $0x1,0x10(%ebp)
c010bb68:	84 c0                	test   %al,%al
c010bb6a:	75 e3                	jne    c010bb4f <sll_insert+0x8c>
c010bb6c:	c7 04 24 08 00 00 00 	movl   $0x8,(%esp)
c010bb73:	e8 fc 60 ff ff       	call   c0101c74 <kheap_alloc>
c010bb78:	89 45 f4             	mov    %eax,-0xc(%ebp)
c010bb7b:	83 7d f4 00          	cmpl   $0x0,-0xc(%ebp)
c010bb7f:	75 09                	jne    c010bb8a <sll_insert+0xc7>
c010bb81:	c7 45 ec 00 00 00 00 	movl   $0x0,-0x14(%ebp)
c010bb88:	eb 59                	jmp    c010bbe3 <sll_insert+0x120>
c010bb8a:	8b 55 f4             	mov    -0xc(%ebp),%edx
c010bb8d:	8b 45 0c             	mov    0xc(%ebp),%eax
c010bb90:	89 42 04             	mov    %eax,0x4(%edx)
c010bb93:	83 7d fc 00          	cmpl   $0x0,-0x4(%ebp)
c010bb97:	74 0a                	je     c010bba3 <sll_insert+0xe0>
c010bb99:	8b 55 fc             	mov    -0x4(%ebp),%edx
c010bb9c:	8b 45 f4             	mov    -0xc(%ebp),%eax
c010bb9f:	89 02                	mov    %eax,(%edx)
c010bba1:	eb 08                	jmp    c010bbab <sll_insert+0xe8>
c010bba3:	8b 55 f0             	mov    -0x10(%ebp),%edx
c010bba6:	8b 45 f4             	mov    -0xc(%ebp),%eax
c010bba9:	89 02                	mov    %eax,(%edx)
c010bbab:	83 7d f8 00          	cmpl   $0x0,-0x8(%ebp)
c010bbaf:	74 0a                	je     c010bbbb <sll_insert+0xf8>
c010bbb1:	8b 55 f4             	mov    -0xc(%ebp),%edx
c010bbb4:	8b 45 f8             	mov    -0x8(%ebp),%eax
c010bbb7:	89 02                	mov    %eax,(%edx)
c010bbb9:	eb 12                	jmp    c010bbcd <sll_insert+0x10a>
c010bbbb:	8b 45 f0             	mov    -0x10(%ebp),%eax
c010bbbe:	8b 55 f4             	mov    -0xc(%ebp),%edx
c010bbc1:	89 50 04             	mov    %edx,0x4(%eax)
c010bbc4:	8b 45 f4             	mov    -0xc(%ebp),%eax
c010bbc7:	c7 00 00 00 00 00    	movl   $0x0,(%eax)
c010bbcd:	8b 45 f0             	mov    -0x10(%ebp),%eax
c010bbd0:	8b 40 08             	mov    0x8(%eax),%eax
c010bbd3:	8d 50 01             	lea    0x1(%eax),%edx
c010bbd6:	8b 45 f0             	mov    -0x10(%ebp),%eax
c010bbd9:	89 50 08             	mov    %edx,0x8(%eax)
c010bbdc:	c7 45 ec 01 00 00 00 	movl   $0x1,-0x14(%ebp)
c010bbe3:	8b 45 ec             	mov    -0x14(%ebp),%eax
c010bbe6:	c9                   	leave  
c010bbe7:	c3                   	ret    

c010bbe8 <sll_removeNode>:
c010bbe8:	55                   	push   %ebp
c010bbe9:	89 e5                	mov    %esp,%ebp
c010bbeb:	83 ec 28             	sub    $0x28,%esp
c010bbee:	8b 45 08             	mov    0x8(%ebp),%eax
c010bbf1:	89 45 f4             	mov    %eax,-0xc(%ebp)
c010bbf4:	8b 45 0c             	mov    0xc(%ebp),%eax
c010bbf7:	89 45 f8             	mov    %eax,-0x8(%ebp)
c010bbfa:	8b 45 10             	mov    0x10(%ebp),%eax
c010bbfd:	89 45 fc             	mov    %eax,-0x4(%ebp)
c010bc00:	83 7d 08 00          	cmpl   $0x0,0x8(%ebp)
c010bc04:	75 24                	jne    c010bc2a <sll_removeNode+0x42>
c010bc06:	c7 44 24 0c b2 00 00 	movl   $0xb2,0xc(%esp)
c010bc0d:	00 
c010bc0e:	c7 44 24 08 5b de 16 	movl   $0xc016de5b,0x8(%esp)
c010bc15:	c0 
c010bc16:	c7 44 24 04 c8 dd 16 	movl   $0xc016ddc8,0x4(%esp)
c010bc1d:	c0 
c010bc1e:	c7 04 24 dc dd 16 c0 	movl   $0xc016dddc,(%esp)
c010bc25:	e8 b6 bd ff ff       	call   c01079e0 <panic>
c010bc2a:	83 7d 0c 00          	cmpl   $0x0,0xc(%ebp)
c010bc2e:	75 24                	jne    c010bc54 <sll_removeNode+0x6c>
c010bc30:	c7 44 24 0c b3 00 00 	movl   $0xb3,0xc(%esp)
c010bc37:	00 
c010bc38:	c7 44 24 08 5b de 16 	movl   $0xc016de5b,0x8(%esp)
c010bc3f:	c0 
c010bc40:	c7 44 24 04 c8 dd 16 	movl   $0xc016ddc8,0x4(%esp)
c010bc47:	c0 
c010bc48:	c7 04 24 6c de 16 c0 	movl   $0xc016de6c,(%esp)
c010bc4f:	e8 8c bd ff ff       	call   c01079e0 <panic>
c010bc54:	83 7d fc 00          	cmpl   $0x0,-0x4(%ebp)
c010bc58:	74 2e                	je     c010bc88 <sll_removeNode+0xa0>
c010bc5a:	8b 45 fc             	mov    -0x4(%ebp),%eax
c010bc5d:	8b 00                	mov    (%eax),%eax
c010bc5f:	3b 45 f8             	cmp    -0x8(%ebp),%eax
c010bc62:	74 24                	je     c010bc88 <sll_removeNode+0xa0>
c010bc64:	c7 44 24 0c b4 00 00 	movl   $0xb4,0xc(%esp)
c010bc6b:	00 
c010bc6c:	c7 44 24 08 5b de 16 	movl   $0xc016de5b,0x8(%esp)
c010bc73:	c0 
c010bc74:	c7 44 24 04 c8 dd 16 	movl   $0xc016ddc8,0x4(%esp)
c010bc7b:	c0 
c010bc7c:	c7 04 24 9c de 16 c0 	movl   $0xc016de9c,(%esp)
c010bc83:	e8 58 bd ff ff       	call   c01079e0 <panic>
c010bc88:	83 7d fc 00          	cmpl   $0x0,-0x4(%ebp)
c010bc8c:	74 0c                	je     c010bc9a <sll_removeNode+0xb2>
c010bc8e:	8b 45 f8             	mov    -0x8(%ebp),%eax
c010bc91:	8b 10                	mov    (%eax),%edx
c010bc93:	8b 45 fc             	mov    -0x4(%ebp),%eax
c010bc96:	89 10                	mov    %edx,(%eax)
c010bc98:	eb 0a                	jmp    c010bca4 <sll_removeNode+0xbc>
c010bc9a:	8b 45 f8             	mov    -0x8(%ebp),%eax
c010bc9d:	8b 10                	mov    (%eax),%edx
c010bc9f:	8b 45 f4             	mov    -0xc(%ebp),%eax
c010bca2:	89 10                	mov    %edx,(%eax)
c010bca4:	8b 45 f8             	mov    -0x8(%ebp),%eax
c010bca7:	8b 00                	mov    (%eax),%eax
c010bca9:	85 c0                	test   %eax,%eax
c010bcab:	75 09                	jne    c010bcb6 <sll_removeNode+0xce>
c010bcad:	8b 55 f4             	mov    -0xc(%ebp),%edx
c010bcb0:	8b 45 fc             	mov    -0x4(%ebp),%eax
c010bcb3:	89 42 04             	mov    %eax,0x4(%edx)
c010bcb6:	8b 45 f4             	mov    -0xc(%ebp),%eax
c010bcb9:	8b 40 08             	mov    0x8(%eax),%eax
c010bcbc:	8d 50 ff             	lea    -0x1(%eax),%edx
c010bcbf:	8b 45 f4             	mov    -0xc(%ebp),%eax
c010bcc2:	89 50 08             	mov    %edx,0x8(%eax)
c010bcc5:	8b 45 f8             	mov    -0x8(%ebp),%eax
c010bcc8:	89 04 24             	mov    %eax,(%esp)
c010bccb:	e8 fb 60 ff ff       	call   c0101dcb <kheap_free>
c010bcd0:	c9                   	leave  
c010bcd1:	c3                   	ret    

c010bcd2 <sll_removeFirst>:
c010bcd2:	55                   	push   %ebp
c010bcd3:	89 e5                	mov    %esp,%ebp
c010bcd5:	83 ec 28             	sub    $0x28,%esp
c010bcd8:	8b 45 08             	mov    0x8(%ebp),%eax
c010bcdb:	89 45 f4             	mov    %eax,-0xc(%ebp)
c010bcde:	8b 45 f4             	mov    -0xc(%ebp),%eax
c010bce1:	8b 00                	mov    (%eax),%eax
c010bce3:	89 45 f8             	mov    %eax,-0x8(%ebp)
c010bce6:	c7 45 fc 00 00 00 00 	movl   $0x0,-0x4(%ebp)
c010bced:	83 7d 08 00          	cmpl   $0x0,0x8(%ebp)
c010bcf1:	75 24                	jne    c010bd17 <sll_removeFirst+0x45>
c010bcf3:	c7 44 24 0c c7 00 00 	movl   $0xc7,0xc(%esp)
c010bcfa:	00 
c010bcfb:	c7 44 24 08 ea de 16 	movl   $0xc016deea,0x8(%esp)
c010bd02:	c0 
c010bd03:	c7 44 24 04 c8 dd 16 	movl   $0xc016ddc8,0x4(%esp)
c010bd0a:	c0 
c010bd0b:	c7 04 24 dc dd 16 c0 	movl   $0xc016dddc,(%esp)
c010bd12:	e8 c9 bc ff ff       	call   c01079e0 <panic>
c010bd17:	83 7d 0c 00          	cmpl   $0x0,0xc(%ebp)
c010bd1b:	74 21                	je     c010bd3e <sll_removeFirst+0x6c>
c010bd1d:	eb 19                	jmp    c010bd38 <sll_removeFirst+0x66>
c010bd1f:	8b 45 f8             	mov    -0x8(%ebp),%eax
c010bd22:	8b 40 04             	mov    0x4(%eax),%eax
c010bd25:	3b 45 0c             	cmp    0xc(%ebp),%eax
c010bd28:	74 14                	je     c010bd3e <sll_removeFirst+0x6c>
c010bd2a:	8b 45 f8             	mov    -0x8(%ebp),%eax
c010bd2d:	89 45 fc             	mov    %eax,-0x4(%ebp)
c010bd30:	8b 45 f8             	mov    -0x8(%ebp),%eax
c010bd33:	8b 00                	mov    (%eax),%eax
c010bd35:	89 45 f8             	mov    %eax,-0x8(%ebp)
c010bd38:	83 7d f8 00          	cmpl   $0x0,-0x8(%ebp)
c010bd3c:	75 e1                	jne    c010bd1f <sll_removeFirst+0x4d>
c010bd3e:	83 7d f8 00          	cmpl   $0x0,-0x8(%ebp)
c010bd42:	75 2b                	jne    c010bd6f <sll_removeFirst+0x9d>
c010bd44:	8b 45 0c             	mov    0xc(%ebp),%eax
c010bd47:	89 44 24 10          	mov    %eax,0x10(%esp)
c010bd4b:	c7 44 24 0c d3 00 00 	movl   $0xd3,0xc(%esp)
c010bd52:	00 
c010bd53:	c7 44 24 08 ea de 16 	movl   $0xc016deea,0x8(%esp)
c010bd5a:	c0 
c010bd5b:	c7 44 24 04 c8 dd 16 	movl   $0xc016ddc8,0x4(%esp)
c010bd62:	c0 
c010bd63:	c7 04 24 fc de 16 c0 	movl   $0xc016defc,(%esp)
c010bd6a:	e8 71 bc ff ff       	call   c01079e0 <panic>
c010bd6f:	8b 45 fc             	mov    -0x4(%ebp),%eax
c010bd72:	8b 55 f8             	mov    -0x8(%ebp),%edx
c010bd75:	89 44 24 08          	mov    %eax,0x8(%esp)
c010bd79:	89 54 24 04          	mov    %edx,0x4(%esp)
c010bd7d:	8b 45 08             	mov    0x8(%ebp),%eax
c010bd80:	89 04 24             	mov    %eax,(%esp)
c010bd83:	e8 60 fe ff ff       	call   c010bbe8 <sll_removeNode>
c010bd88:	c9                   	leave  
c010bd89:	c3                   	ret    

c010bd8a <sll_removeIndex>:
c010bd8a:	55                   	push   %ebp
c010bd8b:	89 e5                	mov    %esp,%ebp
c010bd8d:	83 ec 28             	sub    $0x28,%esp
c010bd90:	8b 45 08             	mov    0x8(%ebp),%eax
c010bd93:	89 45 f0             	mov    %eax,-0x10(%ebp)
c010bd96:	8b 45 f0             	mov    -0x10(%ebp),%eax
c010bd99:	8b 00                	mov    (%eax),%eax
c010bd9b:	89 45 f4             	mov    %eax,-0xc(%ebp)
c010bd9e:	c7 45 f8 00 00 00 00 	movl   $0x0,-0x8(%ebp)
c010bda5:	8b 45 0c             	mov    0xc(%ebp),%eax
c010bda8:	89 45 fc             	mov    %eax,-0x4(%ebp)
c010bdab:	83 7d 08 00          	cmpl   $0x0,0x8(%ebp)
c010bdaf:	75 34                	jne    c010bde5 <sll_removeIndex+0x5b>
c010bdb1:	c7 44 24 0c dd 00 00 	movl   $0xdd,0xc(%esp)
c010bdb8:	00 
c010bdb9:	c7 44 24 08 39 df 16 	movl   $0xc016df39,0x8(%esp)
c010bdc0:	c0 
c010bdc1:	c7 44 24 04 c8 dd 16 	movl   $0xc016ddc8,0x4(%esp)
c010bdc8:	c0 
c010bdc9:	c7 04 24 dc dd 16 c0 	movl   $0xc016dddc,(%esp)
c010bdd0:	e8 0b bc ff ff       	call   c01079e0 <panic>
c010bdd5:	eb 0e                	jmp    c010bde5 <sll_removeIndex+0x5b>
c010bdd7:	8b 45 f4             	mov    -0xc(%ebp),%eax
c010bdda:	89 45 f8             	mov    %eax,-0x8(%ebp)
c010bddd:	8b 45 f4             	mov    -0xc(%ebp),%eax
c010bde0:	8b 00                	mov    (%eax),%eax
c010bde2:	89 45 f4             	mov    %eax,-0xc(%ebp)
c010bde5:	83 7d 0c 00          	cmpl   $0x0,0xc(%ebp)
c010bde9:	0f 95 c0             	setne  %al
c010bdec:	83 6d 0c 01          	subl   $0x1,0xc(%ebp)
c010bdf0:	84 c0                	test   %al,%al
c010bdf2:	75 e3                	jne    c010bdd7 <sll_removeIndex+0x4d>
c010bdf4:	83 7d f4 00          	cmpl   $0x0,-0xc(%ebp)
c010bdf8:	75 2b                	jne    c010be25 <sll_removeIndex+0x9b>
c010bdfa:	8b 45 fc             	mov    -0x4(%ebp),%eax
c010bdfd:	89 44 24 10          	mov    %eax,0x10(%esp)
c010be01:	c7 44 24 0c e6 00 00 	movl   $0xe6,0xc(%esp)
c010be08:	00 
c010be09:	c7 44 24 08 39 df 16 	movl   $0xc016df39,0x8(%esp)
c010be10:	c0 
c010be11:	c7 44 24 04 c8 dd 16 	movl   $0xc016ddc8,0x4(%esp)
c010be18:	c0 
c010be19:	c7 04 24 4c df 16 c0 	movl   $0xc016df4c,(%esp)
c010be20:	e8 bb bb ff ff       	call   c01079e0 <panic>
c010be25:	8b 45 f8             	mov    -0x8(%ebp),%eax
c010be28:	8b 55 f4             	mov    -0xc(%ebp),%edx
c010be2b:	89 44 24 08          	mov    %eax,0x8(%esp)
c010be2f:	89 54 24 04          	mov    %edx,0x4(%esp)
c010be33:	8b 45 08             	mov    0x8(%ebp),%eax
c010be36:	89 04 24             	mov    %eax,(%esp)
c010be39:	e8 aa fd ff ff       	call   c010bbe8 <sll_removeNode>
c010be3e:	c9                   	leave  
c010be3f:	c3                   	ret    

c010be40 <sll_getNode>:
c010be40:	55                   	push   %ebp
c010be41:	89 e5                	mov    %esp,%ebp
c010be43:	83 ec 28             	sub    $0x28,%esp
c010be46:	8b 45 08             	mov    0x8(%ebp),%eax
c010be49:	89 45 f8             	mov    %eax,-0x8(%ebp)
c010be4c:	83 7d 08 00          	cmpl   $0x0,0x8(%ebp)
c010be50:	75 24                	jne    c010be76 <sll_getNode+0x36>
c010be52:	c7 44 24 0c ef 00 00 	movl   $0xef,0xc(%esp)
c010be59:	00 
c010be5a:	c7 44 24 08 88 df 16 	movl   $0xc016df88,0x8(%esp)
c010be61:	c0 
c010be62:	c7 44 24 04 c8 dd 16 	movl   $0xc016ddc8,0x4(%esp)
c010be69:	c0 
c010be6a:	c7 04 24 dc dd 16 c0 	movl   $0xc016dddc,(%esp)
c010be71:	e8 6a bb ff ff       	call   c01079e0 <panic>
c010be76:	8b 45 f8             	mov    -0x8(%ebp),%eax
c010be79:	8b 40 08             	mov    0x8(%eax),%eax
c010be7c:	3b 45 0c             	cmp    0xc(%ebp),%eax
c010be7f:	73 2b                	jae    c010beac <sll_getNode+0x6c>
c010be81:	8b 45 0c             	mov    0xc(%ebp),%eax
c010be84:	89 44 24 10          	mov    %eax,0x10(%esp)
c010be88:	c7 44 24 0c f0 00 00 	movl   $0xf0,0xc(%esp)
c010be8f:	00 
c010be90:	c7 44 24 08 88 df 16 	movl   $0xc016df88,0x8(%esp)
c010be97:	c0 
c010be98:	c7 44 24 04 c8 dd 16 	movl   $0xc016ddc8,0x4(%esp)
c010be9f:	c0 
c010bea0:	c7 04 24 94 df 16 c0 	movl   $0xc016df94,(%esp)
c010bea7:	e8 34 bb ff ff       	call   c01079e0 <panic>
c010beac:	8b 45 f8             	mov    -0x8(%ebp),%eax
c010beaf:	8b 40 08             	mov    0x8(%eax),%eax
c010beb2:	83 e8 01             	sub    $0x1,%eax
c010beb5:	3b 45 0c             	cmp    0xc(%ebp),%eax
c010beb8:	75 0b                	jne    c010bec5 <sll_getNode+0x85>
c010beba:	8b 45 f8             	mov    -0x8(%ebp),%eax
c010bebd:	8b 40 04             	mov    0x4(%eax),%eax
c010bec0:	89 45 ec             	mov    %eax,-0x14(%ebp)
c010bec3:	eb 27                	jmp    c010beec <sll_getNode+0xac>
c010bec5:	8b 45 f8             	mov    -0x8(%ebp),%eax
c010bec8:	8b 00                	mov    (%eax),%eax
c010beca:	89 45 fc             	mov    %eax,-0x4(%ebp)
c010becd:	eb 08                	jmp    c010bed7 <sll_getNode+0x97>
c010becf:	8b 45 fc             	mov    -0x4(%ebp),%eax
c010bed2:	8b 00                	mov    (%eax),%eax
c010bed4:	89 45 fc             	mov    %eax,-0x4(%ebp)
c010bed7:	83 7d 0c 00          	cmpl   $0x0,0xc(%ebp)
c010bedb:	0f 95 c0             	setne  %al
c010bede:	83 6d 0c 01          	subl   $0x1,0xc(%ebp)
c010bee2:	84 c0                	test   %al,%al
c010bee4:	75 e9                	jne    c010becf <sll_getNode+0x8f>
c010bee6:	8b 45 fc             	mov    -0x4(%ebp),%eax
c010bee9:	89 45 ec             	mov    %eax,-0x14(%ebp)
c010beec:	8b 45 ec             	mov    -0x14(%ebp),%eax
c010beef:	c9                   	leave  
c010bef0:	c3                   	ret    

c010bef1 <sll_dbg_print>:
c010bef1:	55                   	push   %ebp
c010bef2:	89 e5                	mov    %esp,%ebp
c010bef4:	83 ec 28             	sub    $0x28,%esp
c010bef7:	8b 45 08             	mov    0x8(%ebp),%eax
c010befa:	89 45 f8             	mov    %eax,-0x8(%ebp)
c010befd:	8b 45 f8             	mov    -0x8(%ebp),%eax
c010bf00:	8b 00                	mov    (%eax),%eax
c010bf02:	89 45 fc             	mov    %eax,-0x4(%ebp)
c010bf05:	83 7d 08 00          	cmpl   $0x0,0x8(%ebp)
c010bf09:	75 24                	jne    c010bf2f <sll_dbg_print+0x3e>
c010bf0b:	c7 44 24 0c 05 01 00 	movl   $0x105,0xc(%esp)
c010bf12:	00 
c010bf13:	c7 44 24 08 d3 df 16 	movl   $0xc016dfd3,0x8(%esp)
c010bf1a:	c0 
c010bf1b:	c7 44 24 04 c8 dd 16 	movl   $0xc016ddc8,0x4(%esp)
c010bf22:	c0 
c010bf23:	c7 04 24 dc dd 16 c0 	movl   $0xc016dddc,(%esp)
c010bf2a:	e8 b1 ba ff ff       	call   c01079e0 <panic>
c010bf2f:	8b 45 08             	mov    0x8(%ebp),%eax
c010bf32:	89 44 24 04          	mov    %eax,0x4(%esp)
c010bf36:	c7 04 24 e1 df 16 c0 	movl   $0xc016dfe1,(%esp)
c010bf3d:	e8 03 f5 ff ff       	call   c010b445 <vid_printf>
c010bf42:	eb 2e                	jmp    c010bf72 <sll_dbg_print+0x81>
c010bf44:	8b 45 fc             	mov    -0x4(%ebp),%eax
c010bf47:	8b 10                	mov    (%eax),%edx
c010bf49:	8b 45 fc             	mov    -0x4(%ebp),%eax
c010bf4c:	8b 40 04             	mov    0x4(%eax),%eax
c010bf4f:	89 54 24 0c          	mov    %edx,0xc(%esp)
c010bf53:	89 44 24 08          	mov    %eax,0x8(%esp)
c010bf57:	8b 45 fc             	mov    -0x4(%ebp),%eax
c010bf5a:	89 44 24 04          	mov    %eax,0x4(%esp)
c010bf5e:	c7 04 24 f5 df 16 c0 	movl   $0xc016dff5,(%esp)
c010bf65:	e8 db f4 ff ff       	call   c010b445 <vid_printf>
c010bf6a:	8b 45 fc             	mov    -0x4(%ebp),%eax
c010bf6d:	8b 00                	mov    (%eax),%eax
c010bf6f:	89 45 fc             	mov    %eax,-0x4(%ebp)
c010bf72:	83 7d fc 00          	cmpl   $0x0,-0x4(%ebp)
c010bf76:	75 cc                	jne    c010bf44 <sll_dbg_print+0x53>
c010bf78:	c9                   	leave  
c010bf79:	c3                   	ret    
	...

c010bf7c <atoi>:
c010bf7c:	55                   	push   %ebp
c010bf7d:	89 e5                	mov    %esp,%ebp
c010bf7f:	83 ec 28             	sub    $0x28,%esp
c010bf82:	c7 45 f4 00 00 00 00 	movl   $0x0,-0xc(%ebp)
c010bf89:	c7 45 f8 00 00 00 00 	movl   $0x0,-0x8(%ebp)
c010bf90:	83 7d 08 00          	cmpl   $0x0,0x8(%ebp)
c010bf94:	75 2a                	jne    c010bfc0 <atoi+0x44>
c010bf96:	c7 44 24 0c 19 00 00 	movl   $0x19,0xc(%esp)
c010bf9d:	00 
c010bf9e:	c7 44 24 08 14 e0 16 	movl   $0xc016e014,0x8(%esp)
c010bfa5:	c0 
c010bfa6:	c7 44 24 04 19 e0 16 	movl   $0xc016e019,0x4(%esp)
c010bfad:	c0 
c010bfae:	c7 04 24 30 e0 16 c0 	movl   $0xc016e030,(%esp)
c010bfb5:	e8 26 ba ff ff       	call   c01079e0 <panic>
c010bfba:	eb 04                	jmp    c010bfc0 <atoi+0x44>
c010bfbc:	83 45 08 01          	addl   $0x1,0x8(%ebp)
c010bfc0:	8b 45 08             	mov    0x8(%ebp),%eax
c010bfc3:	0f b6 00             	movzbl (%eax),%eax
c010bfc6:	0f be c0             	movsbl %al,%eax
c010bfc9:	89 04 24             	mov    %eax,(%esp)
c010bfcc:	e8 dd 0c 00 00       	call   c010ccae <isspace>
c010bfd1:	85 c0                	test   %eax,%eax
c010bfd3:	75 e7                	jne    c010bfbc <atoi+0x40>
c010bfd5:	8b 45 08             	mov    0x8(%ebp),%eax
c010bfd8:	0f b6 00             	movzbl (%eax),%eax
c010bfdb:	3c 2d                	cmp    $0x2d,%al
c010bfdd:	75 2c                	jne    c010c00b <atoi+0x8f>
c010bfdf:	c7 45 f8 01 00 00 00 	movl   $0x1,-0x8(%ebp)
c010bfe6:	83 45 08 01          	addl   $0x1,0x8(%ebp)
c010bfea:	eb 1f                	jmp    c010c00b <atoi+0x8f>
c010bfec:	8b 55 f4             	mov    -0xc(%ebp),%edx
c010bfef:	89 d0                	mov    %edx,%eax
c010bff1:	c1 e0 02             	shl    $0x2,%eax
c010bff4:	01 d0                	add    %edx,%eax
c010bff6:	01 c0                	add    %eax,%eax
c010bff8:	89 c2                	mov    %eax,%edx
c010bffa:	0f be 45 ff          	movsbl -0x1(%ebp),%eax
c010bffe:	8d 04 02             	lea    (%edx,%eax,1),%eax
c010c001:	83 e8 30             	sub    $0x30,%eax
c010c004:	89 45 f4             	mov    %eax,-0xc(%ebp)
c010c007:	83 45 08 01          	addl   $0x1,0x8(%ebp)
c010c00b:	8b 45 08             	mov    0x8(%ebp),%eax
c010c00e:	0f b6 00             	movzbl (%eax),%eax
c010c011:	88 45 ff             	mov    %al,-0x1(%ebp)
c010c014:	80 7d ff 2f          	cmpb   $0x2f,-0x1(%ebp)
c010c018:	7e 06                	jle    c010c020 <atoi+0xa4>
c010c01a:	80 7d ff 39          	cmpb   $0x39,-0x1(%ebp)
c010c01e:	7e cc                	jle    c010bfec <atoi+0x70>
c010c020:	83 7d f8 00          	cmpl   $0x0,-0x8(%ebp)
c010c024:	74 03                	je     c010c029 <atoi+0xad>
c010c026:	f7 5d f4             	negl   -0xc(%ebp)
c010c029:	8b 45 f4             	mov    -0xc(%ebp),%eax
c010c02c:	c9                   	leave  
c010c02d:	c3                   	ret    

c010c02e <itoa>:
c010c02e:	55                   	push   %ebp
c010c02f:	89 e5                	mov    %esp,%ebp
c010c031:	53                   	push   %ebx
c010c032:	83 ec 34             	sub    $0x34,%esp
c010c035:	8b 45 08             	mov    0x8(%ebp),%eax
c010c038:	89 45 ec             	mov    %eax,-0x14(%ebp)
c010c03b:	8b 45 08             	mov    0x8(%ebp),%eax
c010c03e:	89 45 f0             	mov    %eax,-0x10(%ebp)
c010c041:	83 7d 08 00          	cmpl   $0x0,0x8(%ebp)
c010c045:	75 24                	jne    c010c06b <itoa+0x3d>
c010c047:	c7 44 24 0c 31 00 00 	movl   $0x31,0xc(%esp)
c010c04e:	00 
c010c04f:	c7 44 24 08 5f e0 16 	movl   $0xc016e05f,0x8(%esp)
c010c056:	c0 
c010c057:	c7 44 24 04 19 e0 16 	movl   $0xc016e019,0x4(%esp)
c010c05e:	c0 
c010c05f:	c7 04 24 64 e0 16 c0 	movl   $0xc016e064,(%esp)
c010c066:	e8 75 b9 ff ff       	call   c01079e0 <panic>
c010c06b:	83 7d 0c 00          	cmpl   $0x0,0xc(%ebp)
c010c06f:	79 12                	jns    c010c083 <itoa+0x55>
c010c071:	8b 45 ec             	mov    -0x14(%ebp),%eax
c010c074:	c6 00 2d             	movb   $0x2d,(%eax)
c010c077:	83 45 ec 01          	addl   $0x1,-0x14(%ebp)
c010c07b:	8b 45 ec             	mov    -0x14(%ebp),%eax
c010c07e:	89 45 f0             	mov    %eax,-0x10(%ebp)
c010c081:	eb 7d                	jmp    c010c100 <itoa+0xd2>
c010c083:	83 7d 0c 00          	cmpl   $0x0,0xc(%ebp)
c010c087:	75 0c                	jne    c010c095 <itoa+0x67>
c010c089:	8b 45 ec             	mov    -0x14(%ebp),%eax
c010c08c:	c6 00 30             	movb   $0x30,(%eax)
c010c08f:	83 45 ec 01          	addl   $0x1,-0x14(%ebp)
c010c093:	eb 6b                	jmp    c010c100 <itoa+0xd2>
c010c095:	f7 5d 0c             	negl   0xc(%ebp)
c010c098:	eb 66                	jmp    c010c100 <itoa+0xd2>
c010c09a:	8b 4d 0c             	mov    0xc(%ebp),%ecx
c010c09d:	c7 45 e4 67 66 66 66 	movl   $0x66666667,-0x1c(%ebp)
c010c0a4:	8b 45 e4             	mov    -0x1c(%ebp),%eax
c010c0a7:	f7 e9                	imul   %ecx
c010c0a9:	c1 fa 02             	sar    $0x2,%edx
c010c0ac:	89 c8                	mov    %ecx,%eax
c010c0ae:	c1 f8 1f             	sar    $0x1f,%eax
c010c0b1:	89 d3                	mov    %edx,%ebx
c010c0b3:	29 c3                	sub    %eax,%ebx
c010c0b5:	89 5d e8             	mov    %ebx,-0x18(%ebp)
c010c0b8:	8b 45 e8             	mov    -0x18(%ebp),%eax
c010c0bb:	c1 e0 02             	shl    $0x2,%eax
c010c0be:	03 45 e8             	add    -0x18(%ebp),%eax
c010c0c1:	01 c0                	add    %eax,%eax
c010c0c3:	89 ca                	mov    %ecx,%edx
c010c0c5:	29 c2                	sub    %eax,%edx
c010c0c7:	89 55 e8             	mov    %edx,-0x18(%ebp)
c010c0ca:	0f b6 55 e8          	movzbl -0x18(%ebp),%edx
c010c0ce:	b8 30 00 00 00       	mov    $0x30,%eax
c010c0d3:	28 d0                	sub    %dl,%al
c010c0d5:	89 c2                	mov    %eax,%edx
c010c0d7:	8b 45 ec             	mov    -0x14(%ebp),%eax
c010c0da:	88 10                	mov    %dl,(%eax)
c010c0dc:	83 45 ec 01          	addl   $0x1,-0x14(%ebp)
c010c0e0:	8b 4d 0c             	mov    0xc(%ebp),%ecx
c010c0e3:	c7 45 e4 67 66 66 66 	movl   $0x66666667,-0x1c(%ebp)
c010c0ea:	8b 45 e4             	mov    -0x1c(%ebp),%eax
c010c0ed:	f7 e9                	imul   %ecx
c010c0ef:	c1 fa 02             	sar    $0x2,%edx
c010c0f2:	89 c8                	mov    %ecx,%eax
c010c0f4:	c1 f8 1f             	sar    $0x1f,%eax
c010c0f7:	89 d1                	mov    %edx,%ecx
c010c0f9:	29 c1                	sub    %eax,%ecx
c010c0fb:	89 c8                	mov    %ecx,%eax
c010c0fd:	89 45 0c             	mov    %eax,0xc(%ebp)
c010c100:	83 7d 0c 00          	cmpl   $0x0,0xc(%ebp)
c010c104:	78 94                	js     c010c09a <itoa+0x6c>
c010c106:	8b 45 ec             	mov    -0x14(%ebp),%eax
c010c109:	c6 00 00             	movb   $0x0,(%eax)
c010c10c:	8b 45 ec             	mov    -0x14(%ebp),%eax
c010c10f:	83 e8 01             	sub    $0x1,%eax
c010c112:	89 45 f4             	mov    %eax,-0xc(%ebp)
c010c115:	eb 25                	jmp    c010c13c <itoa+0x10e>
c010c117:	8b 45 f0             	mov    -0x10(%ebp),%eax
c010c11a:	0f b6 00             	movzbl (%eax),%eax
c010c11d:	88 45 fb             	mov    %al,-0x5(%ebp)
c010c120:	8b 45 f4             	mov    -0xc(%ebp),%eax
c010c123:	0f b6 10             	movzbl (%eax),%edx
c010c126:	8b 45 f0             	mov    -0x10(%ebp),%eax
c010c129:	88 10                	mov    %dl,(%eax)
c010c12b:	83 45 f0 01          	addl   $0x1,-0x10(%ebp)
c010c12f:	8b 55 f4             	mov    -0xc(%ebp),%edx
c010c132:	0f b6 45 fb          	movzbl -0x5(%ebp),%eax
c010c136:	88 02                	mov    %al,(%edx)
c010c138:	83 6d f4 01          	subl   $0x1,-0xc(%ebp)
c010c13c:	8b 45 f0             	mov    -0x10(%ebp),%eax
c010c13f:	3b 45 f4             	cmp    -0xc(%ebp),%eax
c010c142:	72 d3                	jb     c010c117 <itoa+0xe9>
c010c144:	83 c4 34             	add    $0x34,%esp
c010c147:	5b                   	pop    %ebx
c010c148:	5d                   	pop    %ebp
c010c149:	c3                   	ret    

c010c14a <memchr>:
c010c14a:	55                   	push   %ebp
c010c14b:	89 e5                	mov    %esp,%ebp
c010c14d:	83 ec 14             	sub    $0x14,%esp
c010c150:	8b 45 08             	mov    0x8(%ebp),%eax
c010c153:	89 45 fc             	mov    %eax,-0x4(%ebp)
c010c156:	eb 1a                	jmp    c010c172 <memchr+0x28>
c010c158:	8b 45 fc             	mov    -0x4(%ebp),%eax
c010c15b:	0f b6 00             	movzbl (%eax),%eax
c010c15e:	0f be c0             	movsbl %al,%eax
c010c161:	3b 45 0c             	cmp    0xc(%ebp),%eax
c010c164:	75 08                	jne    c010c16e <memchr+0x24>
c010c166:	8b 45 fc             	mov    -0x4(%ebp),%eax
c010c169:	89 45 ec             	mov    %eax,-0x14(%ebp)
c010c16c:	eb 24                	jmp    c010c192 <memchr+0x48>
c010c16e:	83 45 fc 01          	addl   $0x1,-0x4(%ebp)
c010c172:	8b 45 fc             	mov    -0x4(%ebp),%eax
c010c175:	0f b6 00             	movzbl (%eax),%eax
c010c178:	84 c0                	test   %al,%al
c010c17a:	74 0f                	je     c010c18b <memchr+0x41>
c010c17c:	83 7d 10 00          	cmpl   $0x0,0x10(%ebp)
c010c180:	0f 95 c0             	setne  %al
c010c183:	83 6d 10 01          	subl   $0x1,0x10(%ebp)
c010c187:	84 c0                	test   %al,%al
c010c189:	75 cd                	jne    c010c158 <memchr+0xe>
c010c18b:	c7 45 ec 00 00 00 00 	movl   $0x0,-0x14(%ebp)
c010c192:	8b 45 ec             	mov    -0x14(%ebp),%eax
c010c195:	c9                   	leave  
c010c196:	c3                   	ret    

c010c197 <memcpy>:
c010c197:	55                   	push   %ebp
c010c198:	89 e5                	mov    %esp,%ebp
c010c19a:	83 ec 20             	sub    $0x20,%esp
c010c19d:	8b 45 10             	mov    0x10(%ebp),%eax
c010c1a0:	83 e0 03             	and    $0x3,%eax
c010c1a3:	89 45 e8             	mov    %eax,-0x18(%ebp)
c010c1a6:	8b 55 e8             	mov    -0x18(%ebp),%edx
c010c1a9:	8b 45 10             	mov    0x10(%ebp),%eax
c010c1ac:	29 d0                	sub    %edx,%eax
c010c1ae:	c1 e8 02             	shr    $0x2,%eax
c010c1b1:	89 45 ec             	mov    %eax,-0x14(%ebp)
c010c1b4:	8b 45 08             	mov    0x8(%ebp),%eax
c010c1b7:	89 45 f0             	mov    %eax,-0x10(%ebp)
c010c1ba:	8b 45 0c             	mov    0xc(%ebp),%eax
c010c1bd:	89 45 f4             	mov    %eax,-0xc(%ebp)
c010c1c0:	eb 12                	jmp    c010c1d4 <memcpy+0x3d>
c010c1c2:	8b 45 f4             	mov    -0xc(%ebp),%eax
c010c1c5:	8b 10                	mov    (%eax),%edx
c010c1c7:	8b 45 f0             	mov    -0x10(%ebp),%eax
c010c1ca:	89 10                	mov    %edx,(%eax)
c010c1cc:	83 45 f0 04          	addl   $0x4,-0x10(%ebp)
c010c1d0:	83 45 f4 04          	addl   $0x4,-0xc(%ebp)
c010c1d4:	83 7d ec 00          	cmpl   $0x0,-0x14(%ebp)
c010c1d8:	0f 95 c0             	setne  %al
c010c1db:	83 6d ec 01          	subl   $0x1,-0x14(%ebp)
c010c1df:	84 c0                	test   %al,%al
c010c1e1:	75 df                	jne    c010c1c2 <memcpy+0x2b>
c010c1e3:	8b 45 f0             	mov    -0x10(%ebp),%eax
c010c1e6:	89 45 f8             	mov    %eax,-0x8(%ebp)
c010c1e9:	8b 45 f4             	mov    -0xc(%ebp),%eax
c010c1ec:	89 45 fc             	mov    %eax,-0x4(%ebp)
c010c1ef:	eb 13                	jmp    c010c204 <memcpy+0x6d>
c010c1f1:	8b 45 fc             	mov    -0x4(%ebp),%eax
c010c1f4:	0f b6 10             	movzbl (%eax),%edx
c010c1f7:	8b 45 f8             	mov    -0x8(%ebp),%eax
c010c1fa:	88 10                	mov    %dl,(%eax)
c010c1fc:	83 45 f8 01          	addl   $0x1,-0x8(%ebp)
c010c200:	83 45 fc 01          	addl   $0x1,-0x4(%ebp)
c010c204:	83 7d e8 00          	cmpl   $0x0,-0x18(%ebp)
c010c208:	0f 95 c0             	setne  %al
c010c20b:	83 6d e8 01          	subl   $0x1,-0x18(%ebp)
c010c20f:	84 c0                	test   %al,%al
c010c211:	75 de                	jne    c010c1f1 <memcpy+0x5a>
c010c213:	8b 45 08             	mov    0x8(%ebp),%eax
c010c216:	c9                   	leave  
c010c217:	c3                   	ret    

c010c218 <memcmp>:
c010c218:	55                   	push   %ebp
c010c219:	89 e5                	mov    %esp,%ebp
c010c21b:	83 ec 18             	sub    $0x18,%esp
c010c21e:	8b 45 08             	mov    0x8(%ebp),%eax
c010c221:	89 45 f8             	mov    %eax,-0x8(%ebp)
c010c224:	8b 45 0c             	mov    0xc(%ebp),%eax
c010c227:	89 45 fc             	mov    %eax,-0x4(%ebp)
c010c22a:	eb 4b                	jmp    c010c277 <memcmp+0x5f>
c010c22c:	8b 45 f8             	mov    -0x8(%ebp),%eax
c010c22f:	0f b6 10             	movzbl (%eax),%edx
c010c232:	8b 45 fc             	mov    -0x4(%ebp),%eax
c010c235:	0f b6 00             	movzbl (%eax),%eax
c010c238:	38 c2                	cmp    %al,%dl
c010c23a:	0f 95 c0             	setne  %al
c010c23d:	83 45 f8 01          	addl   $0x1,-0x8(%ebp)
c010c241:	83 45 fc 01          	addl   $0x1,-0x4(%ebp)
c010c245:	84 c0                	test   %al,%al
c010c247:	74 2e                	je     c010c277 <memcmp+0x5f>
c010c249:	8b 45 f8             	mov    -0x8(%ebp),%eax
c010c24c:	83 e8 01             	sub    $0x1,%eax
c010c24f:	0f b6 10             	movzbl (%eax),%edx
c010c252:	8b 45 fc             	mov    -0x4(%ebp),%eax
c010c255:	83 e8 01             	sub    $0x1,%eax
c010c258:	0f b6 00             	movzbl (%eax),%eax
c010c25b:	38 c2                	cmp    %al,%dl
c010c25d:	73 09                	jae    c010c268 <memcmp+0x50>
c010c25f:	c7 45 ec ff ff ff ff 	movl   $0xffffffff,-0x14(%ebp)
c010c266:	eb 07                	jmp    c010c26f <memcmp+0x57>
c010c268:	c7 45 ec 01 00 00 00 	movl   $0x1,-0x14(%ebp)
c010c26f:	8b 45 ec             	mov    -0x14(%ebp),%eax
c010c272:	89 45 e8             	mov    %eax,-0x18(%ebp)
c010c275:	eb 16                	jmp    c010c28d <memcmp+0x75>
c010c277:	83 7d 10 00          	cmpl   $0x0,0x10(%ebp)
c010c27b:	0f 95 c0             	setne  %al
c010c27e:	83 6d 10 01          	subl   $0x1,0x10(%ebp)
c010c282:	84 c0                	test   %al,%al
c010c284:	75 a6                	jne    c010c22c <memcmp+0x14>
c010c286:	c7 45 e8 00 00 00 00 	movl   $0x0,-0x18(%ebp)
c010c28d:	8b 45 e8             	mov    -0x18(%ebp),%eax
c010c290:	c9                   	leave  
c010c291:	c3                   	ret    

c010c292 <memset>:
c010c292:	55                   	push   %ebp
c010c293:	89 e5                	mov    %esp,%ebp
c010c295:	83 ec 10             	sub    $0x10,%esp
c010c298:	8b 45 10             	mov    0x10(%ebp),%eax
c010c29b:	83 e0 03             	and    $0x3,%eax
c010c29e:	89 45 f0             	mov    %eax,-0x10(%ebp)
c010c2a1:	8b 55 f0             	mov    -0x10(%ebp),%edx
c010c2a4:	8b 45 10             	mov    0x10(%ebp),%eax
c010c2a7:	29 d0                	sub    %edx,%eax
c010c2a9:	c1 e8 02             	shr    $0x2,%eax
c010c2ac:	89 45 f4             	mov    %eax,-0xc(%ebp)
c010c2af:	8b 45 08             	mov    0x8(%ebp),%eax
c010c2b2:	89 45 f8             	mov    %eax,-0x8(%ebp)
c010c2b5:	eb 0c                	jmp    c010c2c3 <memset+0x31>
c010c2b7:	8b 55 f8             	mov    -0x8(%ebp),%edx
c010c2ba:	8b 45 0c             	mov    0xc(%ebp),%eax
c010c2bd:	89 02                	mov    %eax,(%edx)
c010c2bf:	83 45 f8 04          	addl   $0x4,-0x8(%ebp)
c010c2c3:	83 7d f4 00          	cmpl   $0x0,-0xc(%ebp)
c010c2c7:	0f 95 c0             	setne  %al
c010c2ca:	83 6d f4 01          	subl   $0x1,-0xc(%ebp)
c010c2ce:	84 c0                	test   %al,%al
c010c2d0:	75 e5                	jne    c010c2b7 <memset+0x25>
c010c2d2:	8b 45 f8             	mov    -0x8(%ebp),%eax
c010c2d5:	89 45 fc             	mov    %eax,-0x4(%ebp)
c010c2d8:	eb 0e                	jmp    c010c2e8 <memset+0x56>
c010c2da:	8b 45 0c             	mov    0xc(%ebp),%eax
c010c2dd:	89 c2                	mov    %eax,%edx
c010c2df:	8b 45 fc             	mov    -0x4(%ebp),%eax
c010c2e2:	88 10                	mov    %dl,(%eax)
c010c2e4:	83 45 fc 01          	addl   $0x1,-0x4(%ebp)
c010c2e8:	83 7d f0 00          	cmpl   $0x0,-0x10(%ebp)
c010c2ec:	0f 95 c0             	setne  %al
c010c2ef:	83 6d f0 01          	subl   $0x1,-0x10(%ebp)
c010c2f3:	84 c0                	test   %al,%al
c010c2f5:	75 e3                	jne    c010c2da <memset+0x48>
c010c2f7:	c9                   	leave  
c010c2f8:	c3                   	ret    

c010c2f9 <memmove>:
c010c2f9:	55                   	push   %ebp
c010c2fa:	89 e5                	mov    %esp,%ebp
c010c2fc:	83 ec 14             	sub    $0x14,%esp
c010c2ff:	8b 55 08             	mov    0x8(%ebp),%edx
c010c302:	8b 45 0c             	mov    0xc(%ebp),%eax
c010c305:	39 c2                	cmp    %eax,%edx
c010c307:	75 0b                	jne    c010c314 <memmove+0x1b>
c010c309:	8b 45 08             	mov    0x8(%ebp),%eax
c010c30c:	89 45 ec             	mov    %eax,-0x14(%ebp)
c010c30f:	e9 84 00 00 00       	jmp    c010c398 <memmove+0x9f>
c010c314:	8b 55 08             	mov    0x8(%ebp),%edx
c010c317:	8b 45 0c             	mov    0xc(%ebp),%eax
c010c31a:	39 c2                	cmp    %eax,%edx
c010c31c:	76 44                	jbe    c010c362 <memmove+0x69>
c010c31e:	8b 55 0c             	mov    0xc(%ebp),%edx
c010c321:	8b 45 10             	mov    0x10(%ebp),%eax
c010c324:	83 e8 01             	sub    $0x1,%eax
c010c327:	8d 04 02             	lea    (%edx,%eax,1),%eax
c010c32a:	89 45 f8             	mov    %eax,-0x8(%ebp)
c010c32d:	8b 55 08             	mov    0x8(%ebp),%edx
c010c330:	8b 45 10             	mov    0x10(%ebp),%eax
c010c333:	83 e8 01             	sub    $0x1,%eax
c010c336:	8d 04 02             	lea    (%edx,%eax,1),%eax
c010c339:	89 45 fc             	mov    %eax,-0x4(%ebp)
c010c33c:	eb 13                	jmp    c010c351 <memmove+0x58>
c010c33e:	8b 45 f8             	mov    -0x8(%ebp),%eax
c010c341:	0f b6 10             	movzbl (%eax),%edx
c010c344:	8b 45 fc             	mov    -0x4(%ebp),%eax
c010c347:	88 10                	mov    %dl,(%eax)
c010c349:	83 6d fc 01          	subl   $0x1,-0x4(%ebp)
c010c34d:	83 6d f8 01          	subl   $0x1,-0x8(%ebp)
c010c351:	83 7d 10 00          	cmpl   $0x0,0x10(%ebp)
c010c355:	0f 95 c0             	setne  %al
c010c358:	83 6d 10 01          	subl   $0x1,0x10(%ebp)
c010c35c:	84 c0                	test   %al,%al
c010c35e:	75 de                	jne    c010c33e <memmove+0x45>
c010c360:	eb 30                	jmp    c010c392 <memmove+0x99>
c010c362:	8b 45 0c             	mov    0xc(%ebp),%eax
c010c365:	89 45 f8             	mov    %eax,-0x8(%ebp)
c010c368:	8b 45 08             	mov    0x8(%ebp),%eax
c010c36b:	89 45 fc             	mov    %eax,-0x4(%ebp)
c010c36e:	eb 13                	jmp    c010c383 <memmove+0x8a>
c010c370:	8b 45 f8             	mov    -0x8(%ebp),%eax
c010c373:	0f b6 10             	movzbl (%eax),%edx
c010c376:	8b 45 fc             	mov    -0x4(%ebp),%eax
c010c379:	88 10                	mov    %dl,(%eax)
c010c37b:	83 45 fc 01          	addl   $0x1,-0x4(%ebp)
c010c37f:	83 45 f8 01          	addl   $0x1,-0x8(%ebp)
c010c383:	83 7d 10 00          	cmpl   $0x0,0x10(%ebp)
c010c387:	0f 95 c0             	setne  %al
c010c38a:	83 6d 10 01          	subl   $0x1,0x10(%ebp)
c010c38e:	84 c0                	test   %al,%al
c010c390:	75 de                	jne    c010c370 <memmove+0x77>
c010c392:	8b 45 08             	mov    0x8(%ebp),%eax
c010c395:	89 45 ec             	mov    %eax,-0x14(%ebp)
c010c398:	8b 45 ec             	mov    -0x14(%ebp),%eax
c010c39b:	c9                   	leave  
c010c39c:	c3                   	ret    

c010c39d <strcpy>:
c010c39d:	55                   	push   %ebp
c010c39e:	89 e5                	mov    %esp,%ebp
c010c3a0:	83 ec 28             	sub    $0x28,%esp
c010c3a3:	8b 45 08             	mov    0x8(%ebp),%eax
c010c3a6:	89 45 fc             	mov    %eax,-0x4(%ebp)
c010c3a9:	83 7d 0c 00          	cmpl   $0x0,0xc(%ebp)
c010c3ad:	75 24                	jne    c010c3d3 <strcpy+0x36>
c010c3af:	c7 44 24 0c a2 00 00 	movl   $0xa2,0xc(%esp)
c010c3b6:	00 
c010c3b7:	c7 44 24 08 96 e0 16 	movl   $0xc016e096,0x8(%esp)
c010c3be:	c0 
c010c3bf:	c7 44 24 04 19 e0 16 	movl   $0xc016e019,0x4(%esp)
c010c3c6:	c0 
c010c3c7:	c7 04 24 a0 e0 16 c0 	movl   $0xc016e0a0,(%esp)
c010c3ce:	e8 0d b6 ff ff       	call   c01079e0 <panic>
c010c3d3:	83 7d 08 00          	cmpl   $0x0,0x8(%ebp)
c010c3d7:	75 39                	jne    c010c412 <strcpy+0x75>
c010c3d9:	c7 44 24 0c a3 00 00 	movl   $0xa3,0xc(%esp)
c010c3e0:	00 
c010c3e1:	c7 44 24 08 96 e0 16 	movl   $0xc016e096,0x8(%esp)
c010c3e8:	c0 
c010c3e9:	c7 44 24 04 19 e0 16 	movl   $0xc016e019,0x4(%esp)
c010c3f0:	c0 
c010c3f1:	c7 04 24 d0 e0 16 c0 	movl   $0xc016e0d0,(%esp)
c010c3f8:	e8 e3 b5 ff ff       	call   c01079e0 <panic>
c010c3fd:	eb 13                	jmp    c010c412 <strcpy+0x75>
c010c3ff:	8b 45 0c             	mov    0xc(%ebp),%eax
c010c402:	0f b6 10             	movzbl (%eax),%edx
c010c405:	8b 45 08             	mov    0x8(%ebp),%eax
c010c408:	88 10                	mov    %dl,(%eax)
c010c40a:	83 45 08 01          	addl   $0x1,0x8(%ebp)
c010c40e:	83 45 0c 01          	addl   $0x1,0xc(%ebp)
c010c412:	8b 45 0c             	mov    0xc(%ebp),%eax
c010c415:	0f b6 00             	movzbl (%eax),%eax
c010c418:	84 c0                	test   %al,%al
c010c41a:	75 e3                	jne    c010c3ff <strcpy+0x62>
c010c41c:	8b 45 08             	mov    0x8(%ebp),%eax
c010c41f:	c6 00 00             	movb   $0x0,(%eax)
c010c422:	8b 45 fc             	mov    -0x4(%ebp),%eax
c010c425:	c9                   	leave  
c010c426:	c3                   	ret    

c010c427 <strncpy>:
c010c427:	55                   	push   %ebp
c010c428:	89 e5                	mov    %esp,%ebp
c010c42a:	83 ec 28             	sub    $0x28,%esp
c010c42d:	8b 45 08             	mov    0x8(%ebp),%eax
c010c430:	89 45 fc             	mov    %eax,-0x4(%ebp)
c010c433:	83 7d 0c 00          	cmpl   $0x0,0xc(%ebp)
c010c437:	75 24                	jne    c010c45d <strncpy+0x36>
c010c439:	c7 44 24 0c af 00 00 	movl   $0xaf,0xc(%esp)
c010c440:	00 
c010c441:	c7 44 24 08 fe e0 16 	movl   $0xc016e0fe,0x8(%esp)
c010c448:	c0 
c010c449:	c7 44 24 04 19 e0 16 	movl   $0xc016e019,0x4(%esp)
c010c450:	c0 
c010c451:	c7 04 24 a0 e0 16 c0 	movl   $0xc016e0a0,(%esp)
c010c458:	e8 83 b5 ff ff       	call   c01079e0 <panic>
c010c45d:	83 7d 08 00          	cmpl   $0x0,0x8(%ebp)
c010c461:	75 3d                	jne    c010c4a0 <strncpy+0x79>
c010c463:	c7 44 24 0c b0 00 00 	movl   $0xb0,0xc(%esp)
c010c46a:	00 
c010c46b:	c7 44 24 08 fe e0 16 	movl   $0xc016e0fe,0x8(%esp)
c010c472:	c0 
c010c473:	c7 44 24 04 19 e0 16 	movl   $0xc016e019,0x4(%esp)
c010c47a:	c0 
c010c47b:	c7 04 24 d0 e0 16 c0 	movl   $0xc016e0d0,(%esp)
c010c482:	e8 59 b5 ff ff       	call   c01079e0 <panic>
c010c487:	eb 17                	jmp    c010c4a0 <strncpy+0x79>
c010c489:	8b 45 0c             	mov    0xc(%ebp),%eax
c010c48c:	0f b6 10             	movzbl (%eax),%edx
c010c48f:	8b 45 08             	mov    0x8(%ebp),%eax
c010c492:	88 10                	mov    %dl,(%eax)
c010c494:	83 45 08 01          	addl   $0x1,0x8(%ebp)
c010c498:	83 45 0c 01          	addl   $0x1,0xc(%ebp)
c010c49c:	83 6d 10 01          	subl   $0x1,0x10(%ebp)
c010c4a0:	8b 45 0c             	mov    0xc(%ebp),%eax
c010c4a3:	0f b6 00             	movzbl (%eax),%eax
c010c4a6:	84 c0                	test   %al,%al
c010c4a8:	74 06                	je     c010c4b0 <strncpy+0x89>
c010c4aa:	83 7d 10 00          	cmpl   $0x0,0x10(%ebp)
c010c4ae:	75 d9                	jne    c010c489 <strncpy+0x62>
c010c4b0:	8b 45 08             	mov    0x8(%ebp),%eax
c010c4b3:	c6 00 00             	movb   $0x0,(%eax)
c010c4b6:	83 45 08 01          	addl   $0x1,0x8(%ebp)
c010c4ba:	83 7d 10 00          	cmpl   $0x0,0x10(%ebp)
c010c4be:	0f 95 c0             	setne  %al
c010c4c1:	83 6d 10 01          	subl   $0x1,0x10(%ebp)
c010c4c5:	84 c0                	test   %al,%al
c010c4c7:	75 e7                	jne    c010c4b0 <strncpy+0x89>
c010c4c9:	8b 45 fc             	mov    -0x4(%ebp),%eax
c010c4cc:	c9                   	leave  
c010c4cd:	c3                   	ret    

c010c4ce <strcat>:
c010c4ce:	55                   	push   %ebp
c010c4cf:	89 e5                	mov    %esp,%ebp
c010c4d1:	83 ec 28             	sub    $0x28,%esp
c010c4d4:	8b 45 08             	mov    0x8(%ebp),%eax
c010c4d7:	89 45 fc             	mov    %eax,-0x4(%ebp)
c010c4da:	83 7d 08 00          	cmpl   $0x0,0x8(%ebp)
c010c4de:	75 24                	jne    c010c504 <strcat+0x36>
c010c4e0:	c7 44 24 0c c2 00 00 	movl   $0xc2,0xc(%esp)
c010c4e7:	00 
c010c4e8:	c7 44 24 08 06 e1 16 	movl   $0xc016e106,0x8(%esp)
c010c4ef:	c0 
c010c4f0:	c7 44 24 04 19 e0 16 	movl   $0xc016e019,0x4(%esp)
c010c4f7:	c0 
c010c4f8:	c7 04 24 10 e1 16 c0 	movl   $0xc016e110,(%esp)
c010c4ff:	e8 dc b4 ff ff       	call   c01079e0 <panic>
c010c504:	83 7d 0c 00          	cmpl   $0x0,0xc(%ebp)
c010c508:	75 2a                	jne    c010c534 <strcat+0x66>
c010c50a:	c7 44 24 0c c3 00 00 	movl   $0xc3,0xc(%esp)
c010c511:	00 
c010c512:	c7 44 24 08 06 e1 16 	movl   $0xc016e106,0x8(%esp)
c010c519:	c0 
c010c51a:	c7 44 24 04 19 e0 16 	movl   $0xc016e019,0x4(%esp)
c010c521:	c0 
c010c522:	c7 04 24 40 e1 16 c0 	movl   $0xc016e140,(%esp)
c010c529:	e8 b2 b4 ff ff       	call   c01079e0 <panic>
c010c52e:	eb 04                	jmp    c010c534 <strcat+0x66>
c010c530:	83 45 08 01          	addl   $0x1,0x8(%ebp)
c010c534:	8b 45 08             	mov    0x8(%ebp),%eax
c010c537:	0f b6 00             	movzbl (%eax),%eax
c010c53a:	84 c0                	test   %al,%al
c010c53c:	75 f2                	jne    c010c530 <strcat+0x62>
c010c53e:	eb 13                	jmp    c010c553 <strcat+0x85>
c010c540:	8b 45 0c             	mov    0xc(%ebp),%eax
c010c543:	0f b6 10             	movzbl (%eax),%edx
c010c546:	8b 45 08             	mov    0x8(%ebp),%eax
c010c549:	88 10                	mov    %dl,(%eax)
c010c54b:	83 45 08 01          	addl   $0x1,0x8(%ebp)
c010c54f:	83 45 0c 01          	addl   $0x1,0xc(%ebp)
c010c553:	8b 45 0c             	mov    0xc(%ebp),%eax
c010c556:	0f b6 00             	movzbl (%eax),%eax
c010c559:	84 c0                	test   %al,%al
c010c55b:	75 e3                	jne    c010c540 <strcat+0x72>
c010c55d:	8b 45 fc             	mov    -0x4(%ebp),%eax
c010c560:	c9                   	leave  
c010c561:	c3                   	ret    

c010c562 <strncat>:
c010c562:	55                   	push   %ebp
c010c563:	89 e5                	mov    %esp,%ebp
c010c565:	83 ec 28             	sub    $0x28,%esp
c010c568:	8b 45 08             	mov    0x8(%ebp),%eax
c010c56b:	89 45 fc             	mov    %eax,-0x4(%ebp)
c010c56e:	83 7d 08 00          	cmpl   $0x0,0x8(%ebp)
c010c572:	75 24                	jne    c010c598 <strncat+0x36>
c010c574:	c7 44 24 0c d1 00 00 	movl   $0xd1,0xc(%esp)
c010c57b:	00 
c010c57c:	c7 44 24 08 70 e1 16 	movl   $0xc016e170,0x8(%esp)
c010c583:	c0 
c010c584:	c7 44 24 04 19 e0 16 	movl   $0xc016e019,0x4(%esp)
c010c58b:	c0 
c010c58c:	c7 04 24 10 e1 16 c0 	movl   $0xc016e110,(%esp)
c010c593:	e8 48 b4 ff ff       	call   c01079e0 <panic>
c010c598:	83 7d 0c 00          	cmpl   $0x0,0xc(%ebp)
c010c59c:	75 2a                	jne    c010c5c8 <strncat+0x66>
c010c59e:	c7 44 24 0c d2 00 00 	movl   $0xd2,0xc(%esp)
c010c5a5:	00 
c010c5a6:	c7 44 24 08 70 e1 16 	movl   $0xc016e170,0x8(%esp)
c010c5ad:	c0 
c010c5ae:	c7 44 24 04 19 e0 16 	movl   $0xc016e019,0x4(%esp)
c010c5b5:	c0 
c010c5b6:	c7 04 24 40 e1 16 c0 	movl   $0xc016e140,(%esp)
c010c5bd:	e8 1e b4 ff ff       	call   c01079e0 <panic>
c010c5c2:	eb 04                	jmp    c010c5c8 <strncat+0x66>
c010c5c4:	83 45 08 01          	addl   $0x1,0x8(%ebp)
c010c5c8:	8b 45 08             	mov    0x8(%ebp),%eax
c010c5cb:	0f b6 00             	movzbl (%eax),%eax
c010c5ce:	84 c0                	test   %al,%al
c010c5d0:	75 f2                	jne    c010c5c4 <strncat+0x62>
c010c5d2:	eb 13                	jmp    c010c5e7 <strncat+0x85>
c010c5d4:	8b 45 0c             	mov    0xc(%ebp),%eax
c010c5d7:	0f b6 10             	movzbl (%eax),%edx
c010c5da:	8b 45 08             	mov    0x8(%ebp),%eax
c010c5dd:	88 10                	mov    %dl,(%eax)
c010c5df:	83 45 08 01          	addl   $0x1,0x8(%ebp)
c010c5e3:	83 45 0c 01          	addl   $0x1,0xc(%ebp)
c010c5e7:	8b 45 0c             	mov    0xc(%ebp),%eax
c010c5ea:	0f b6 00             	movzbl (%eax),%eax
c010c5ed:	84 c0                	test   %al,%al
c010c5ef:	74 0f                	je     c010c600 <strncat+0x9e>
c010c5f1:	83 7d 10 00          	cmpl   $0x0,0x10(%ebp)
c010c5f5:	0f 95 c0             	setne  %al
c010c5f8:	83 6d 10 01          	subl   $0x1,0x10(%ebp)
c010c5fc:	84 c0                	test   %al,%al
c010c5fe:	75 d4                	jne    c010c5d4 <strncat+0x72>
c010c600:	8b 45 08             	mov    0x8(%ebp),%eax
c010c603:	c6 00 00             	movb   $0x0,(%eax)
c010c606:	8b 45 fc             	mov    -0x4(%ebp),%eax
c010c609:	c9                   	leave  
c010c60a:	c3                   	ret    

c010c60b <strcmp>:
c010c60b:	55                   	push   %ebp
c010c60c:	89 e5                	mov    %esp,%ebp
c010c60e:	83 ec 28             	sub    $0x28,%esp
c010c611:	8b 45 08             	mov    0x8(%ebp),%eax
c010c614:	0f b6 00             	movzbl (%eax),%eax
c010c617:	88 45 fe             	mov    %al,-0x2(%ebp)
c010c61a:	8b 45 0c             	mov    0xc(%ebp),%eax
c010c61d:	0f b6 00             	movzbl (%eax),%eax
c010c620:	88 45 ff             	mov    %al,-0x1(%ebp)
c010c623:	83 7d 08 00          	cmpl   $0x0,0x8(%ebp)
c010c627:	75 24                	jne    c010c64d <strcmp+0x42>
c010c629:	c7 44 24 0c e2 00 00 	movl   $0xe2,0xc(%esp)
c010c630:	00 
c010c631:	c7 44 24 08 78 e1 16 	movl   $0xc016e178,0x8(%esp)
c010c638:	c0 
c010c639:	c7 44 24 04 19 e0 16 	movl   $0xc016e019,0x4(%esp)
c010c640:	c0 
c010c641:	c7 04 24 10 e1 16 c0 	movl   $0xc016e110,(%esp)
c010c648:	e8 93 b3 ff ff       	call   c01079e0 <panic>
c010c64d:	83 7d 0c 00          	cmpl   $0x0,0xc(%ebp)
c010c651:	75 64                	jne    c010c6b7 <strcmp+0xac>
c010c653:	c7 44 24 0c e3 00 00 	movl   $0xe3,0xc(%esp)
c010c65a:	00 
c010c65b:	c7 44 24 08 78 e1 16 	movl   $0xc016e178,0x8(%esp)
c010c662:	c0 
c010c663:	c7 44 24 04 19 e0 16 	movl   $0xc016e019,0x4(%esp)
c010c66a:	c0 
c010c66b:	c7 04 24 40 e1 16 c0 	movl   $0xc016e140,(%esp)
c010c672:	e8 69 b3 ff ff       	call   c01079e0 <panic>
c010c677:	eb 3e                	jmp    c010c6b7 <strcmp+0xac>
c010c679:	0f b6 45 fe          	movzbl -0x2(%ebp),%eax
c010c67d:	3a 45 ff             	cmp    -0x1(%ebp),%al
c010c680:	74 1b                	je     c010c69d <strcmp+0x92>
c010c682:	0f b6 45 fe          	movzbl -0x2(%ebp),%eax
c010c686:	3a 45 ff             	cmp    -0x1(%ebp),%al
c010c689:	7e 09                	jle    c010c694 <strcmp+0x89>
c010c68b:	c7 45 ec 01 00 00 00 	movl   $0x1,-0x14(%ebp)
c010c692:	eb 60                	jmp    c010c6f4 <strcmp+0xe9>
c010c694:	c7 45 ec ff ff ff ff 	movl   $0xffffffff,-0x14(%ebp)
c010c69b:	eb 57                	jmp    c010c6f4 <strcmp+0xe9>
c010c69d:	83 45 08 01          	addl   $0x1,0x8(%ebp)
c010c6a1:	8b 45 08             	mov    0x8(%ebp),%eax
c010c6a4:	0f b6 00             	movzbl (%eax),%eax
c010c6a7:	88 45 fe             	mov    %al,-0x2(%ebp)
c010c6aa:	83 45 0c 01          	addl   $0x1,0xc(%ebp)
c010c6ae:	8b 45 0c             	mov    0xc(%ebp),%eax
c010c6b1:	0f b6 00             	movzbl (%eax),%eax
c010c6b4:	88 45 ff             	mov    %al,-0x1(%ebp)
c010c6b7:	80 7d fe 00          	cmpb   $0x0,-0x2(%ebp)
c010c6bb:	74 06                	je     c010c6c3 <strcmp+0xb8>
c010c6bd:	80 7d ff 00          	cmpb   $0x0,-0x1(%ebp)
c010c6c1:	75 b6                	jne    c010c679 <strcmp+0x6e>
c010c6c3:	80 7d fe 00          	cmpb   $0x0,-0x2(%ebp)
c010c6c7:	75 0f                	jne    c010c6d8 <strcmp+0xcd>
c010c6c9:	80 7d ff 00          	cmpb   $0x0,-0x1(%ebp)
c010c6cd:	75 09                	jne    c010c6d8 <strcmp+0xcd>
c010c6cf:	c7 45 ec 00 00 00 00 	movl   $0x0,-0x14(%ebp)
c010c6d6:	eb 1c                	jmp    c010c6f4 <strcmp+0xe9>
c010c6d8:	80 7d fe 00          	cmpb   $0x0,-0x2(%ebp)
c010c6dc:	75 0f                	jne    c010c6ed <strcmp+0xe2>
c010c6de:	80 7d ff 00          	cmpb   $0x0,-0x1(%ebp)
c010c6e2:	74 09                	je     c010c6ed <strcmp+0xe2>
c010c6e4:	c7 45 ec ff ff ff ff 	movl   $0xffffffff,-0x14(%ebp)
c010c6eb:	eb 07                	jmp    c010c6f4 <strcmp+0xe9>
c010c6ed:	c7 45 ec 01 00 00 00 	movl   $0x1,-0x14(%ebp)
c010c6f4:	8b 45 ec             	mov    -0x14(%ebp),%eax
c010c6f7:	c9                   	leave  
c010c6f8:	c3                   	ret    

c010c6f9 <strncmp>:
c010c6f9:	55                   	push   %ebp
c010c6fa:	89 e5                	mov    %esp,%ebp
c010c6fc:	83 ec 18             	sub    $0x18,%esp
c010c6ff:	83 7d 08 00          	cmpl   $0x0,0x8(%ebp)
c010c703:	75 24                	jne    c010c729 <strncmp+0x30>
c010c705:	c7 44 24 0c f8 00 00 	movl   $0xf8,0xc(%esp)
c010c70c:	00 
c010c70d:	c7 44 24 08 7f e1 16 	movl   $0xc016e17f,0x8(%esp)
c010c714:	c0 
c010c715:	c7 44 24 04 19 e0 16 	movl   $0xc016e019,0x4(%esp)
c010c71c:	c0 
c010c71d:	c7 04 24 10 e1 16 c0 	movl   $0xc016e110,(%esp)
c010c724:	e8 b7 b2 ff ff       	call   c01079e0 <panic>
c010c729:	83 7d 0c 00          	cmpl   $0x0,0xc(%ebp)
c010c72d:	75 71                	jne    c010c7a0 <strncmp+0xa7>
c010c72f:	c7 44 24 0c f9 00 00 	movl   $0xf9,0xc(%esp)
c010c736:	00 
c010c737:	c7 44 24 08 7f e1 16 	movl   $0xc016e17f,0x8(%esp)
c010c73e:	c0 
c010c73f:	c7 44 24 04 19 e0 16 	movl   $0xc016e019,0x4(%esp)
c010c746:	c0 
c010c747:	c7 04 24 40 e1 16 c0 	movl   $0xc016e140,(%esp)
c010c74e:	e8 8d b2 ff ff       	call   c01079e0 <panic>
c010c753:	eb 4b                	jmp    c010c7a0 <strncmp+0xa7>
c010c755:	8b 45 08             	mov    0x8(%ebp),%eax
c010c758:	0f b6 10             	movzbl (%eax),%edx
c010c75b:	8b 45 0c             	mov    0xc(%ebp),%eax
c010c75e:	0f b6 00             	movzbl (%eax),%eax
c010c761:	38 c2                	cmp    %al,%dl
c010c763:	0f 95 c0             	setne  %al
c010c766:	83 45 08 01          	addl   $0x1,0x8(%ebp)
c010c76a:	83 45 0c 01          	addl   $0x1,0xc(%ebp)
c010c76e:	84 c0                	test   %al,%al
c010c770:	74 2e                	je     c010c7a0 <strncmp+0xa7>
c010c772:	8b 45 08             	mov    0x8(%ebp),%eax
c010c775:	83 e8 01             	sub    $0x1,%eax
c010c778:	0f b6 10             	movzbl (%eax),%edx
c010c77b:	8b 45 0c             	mov    0xc(%ebp),%eax
c010c77e:	83 e8 01             	sub    $0x1,%eax
c010c781:	0f b6 00             	movzbl (%eax),%eax
c010c784:	38 c2                	cmp    %al,%dl
c010c786:	7d 09                	jge    c010c791 <strncmp+0x98>
c010c788:	c7 45 fc ff ff ff ff 	movl   $0xffffffff,-0x4(%ebp)
c010c78f:	eb 07                	jmp    c010c798 <strncmp+0x9f>
c010c791:	c7 45 fc 01 00 00 00 	movl   $0x1,-0x4(%ebp)
c010c798:	8b 45 fc             	mov    -0x4(%ebp),%eax
c010c79b:	89 45 f8             	mov    %eax,-0x8(%ebp)
c010c79e:	eb 16                	jmp    c010c7b6 <strncmp+0xbd>
c010c7a0:	83 7d 10 00          	cmpl   $0x0,0x10(%ebp)
c010c7a4:	0f 95 c0             	setne  %al
c010c7a7:	83 6d 10 01          	subl   $0x1,0x10(%ebp)
c010c7ab:	84 c0                	test   %al,%al
c010c7ad:	75 a6                	jne    c010c755 <strncmp+0x5c>
c010c7af:	c7 45 f8 00 00 00 00 	movl   $0x0,-0x8(%ebp)
c010c7b6:	8b 45 f8             	mov    -0x8(%ebp),%eax
c010c7b9:	c9                   	leave  
c010c7ba:	c3                   	ret    

c010c7bb <strchr>:
c010c7bb:	55                   	push   %ebp
c010c7bc:	89 e5                	mov    %esp,%ebp
c010c7be:	83 ec 18             	sub    $0x18,%esp
c010c7c1:	83 7d 08 00          	cmpl   $0x0,0x8(%ebp)
c010c7c5:	75 48                	jne    c010c80f <strchr+0x54>
c010c7c7:	c7 44 24 0c 03 01 00 	movl   $0x103,0xc(%esp)
c010c7ce:	00 
c010c7cf:	c7 44 24 08 87 e1 16 	movl   $0xc016e187,0x8(%esp)
c010c7d6:	c0 
c010c7d7:	c7 44 24 04 19 e0 16 	movl   $0xc016e019,0x4(%esp)
c010c7de:	c0 
c010c7df:	c7 04 24 30 e0 16 c0 	movl   $0xc016e030,(%esp)
c010c7e6:	e8 f5 b1 ff ff       	call   c01079e0 <panic>
c010c7eb:	eb 22                	jmp    c010c80f <strchr+0x54>
c010c7ed:	8b 45 08             	mov    0x8(%ebp),%eax
c010c7f0:	0f b6 00             	movzbl (%eax),%eax
c010c7f3:	0f be c0             	movsbl %al,%eax
c010c7f6:	3b 45 0c             	cmp    0xc(%ebp),%eax
c010c7f9:	0f 94 c0             	sete   %al
c010c7fc:	83 45 08 01          	addl   $0x1,0x8(%ebp)
c010c800:	84 c0                	test   %al,%al
c010c802:	74 0b                	je     c010c80f <strchr+0x54>
c010c804:	8b 45 08             	mov    0x8(%ebp),%eax
c010c807:	83 e8 01             	sub    $0x1,%eax
c010c80a:	89 45 fc             	mov    %eax,-0x4(%ebp)
c010c80d:	eb 11                	jmp    c010c820 <strchr+0x65>
c010c80f:	8b 45 08             	mov    0x8(%ebp),%eax
c010c812:	0f b6 00             	movzbl (%eax),%eax
c010c815:	84 c0                	test   %al,%al
c010c817:	75 d4                	jne    c010c7ed <strchr+0x32>
c010c819:	c7 45 fc 00 00 00 00 	movl   $0x0,-0x4(%ebp)
c010c820:	8b 45 fc             	mov    -0x4(%ebp),%eax
c010c823:	c9                   	leave  
c010c824:	c3                   	ret    

c010c825 <strchri>:
c010c825:	55                   	push   %ebp
c010c826:	89 e5                	mov    %esp,%ebp
c010c828:	83 ec 28             	sub    $0x28,%esp
c010c82b:	8b 45 08             	mov    0x8(%ebp),%eax
c010c82e:	89 45 fc             	mov    %eax,-0x4(%ebp)
c010c831:	83 7d 08 00          	cmpl   $0x0,0x8(%ebp)
c010c835:	75 4d                	jne    c010c884 <strchri+0x5f>
c010c837:	c7 44 24 0c 0f 01 00 	movl   $0x10f,0xc(%esp)
c010c83e:	00 
c010c83f:	c7 44 24 08 8e e1 16 	movl   $0xc016e18e,0x8(%esp)
c010c846:	c0 
c010c847:	c7 44 24 04 19 e0 16 	movl   $0xc016e019,0x4(%esp)
c010c84e:	c0 
c010c84f:	c7 04 24 30 e0 16 c0 	movl   $0xc016e030,(%esp)
c010c856:	e8 85 b1 ff ff       	call   c01079e0 <panic>
c010c85b:	eb 27                	jmp    c010c884 <strchri+0x5f>
c010c85d:	8b 45 08             	mov    0x8(%ebp),%eax
c010c860:	0f b6 00             	movzbl (%eax),%eax
c010c863:	0f be c0             	movsbl %al,%eax
c010c866:	3b 45 0c             	cmp    0xc(%ebp),%eax
c010c869:	0f 94 c0             	sete   %al
c010c86c:	83 45 08 01          	addl   $0x1,0x8(%ebp)
c010c870:	84 c0                	test   %al,%al
c010c872:	74 10                	je     c010c884 <strchri+0x5f>
c010c874:	8b 45 08             	mov    0x8(%ebp),%eax
c010c877:	8b 55 fc             	mov    -0x4(%ebp),%edx
c010c87a:	29 d0                	sub    %edx,%eax
c010c87c:	83 e8 01             	sub    $0x1,%eax
c010c87f:	89 45 ec             	mov    %eax,-0x14(%ebp)
c010c882:	eb 17                	jmp    c010c89b <strchri+0x76>
c010c884:	8b 45 08             	mov    0x8(%ebp),%eax
c010c887:	0f b6 00             	movzbl (%eax),%eax
c010c88a:	84 c0                	test   %al,%al
c010c88c:	75 cf                	jne    c010c85d <strchri+0x38>
c010c88e:	8b 55 08             	mov    0x8(%ebp),%edx
c010c891:	8b 45 fc             	mov    -0x4(%ebp),%eax
c010c894:	89 d1                	mov    %edx,%ecx
c010c896:	29 c1                	sub    %eax,%ecx
c010c898:	89 4d ec             	mov    %ecx,-0x14(%ebp)
c010c89b:	8b 45 ec             	mov    -0x14(%ebp),%eax
c010c89e:	c9                   	leave  
c010c89f:	c3                   	ret    

c010c8a0 <strrchr>:
c010c8a0:	55                   	push   %ebp
c010c8a1:	89 e5                	mov    %esp,%ebp
c010c8a3:	83 ec 28             	sub    $0x28,%esp
c010c8a6:	c7 45 fc 00 00 00 00 	movl   $0x0,-0x4(%ebp)
c010c8ad:	83 7d 08 00          	cmpl   $0x0,0x8(%ebp)
c010c8b1:	75 46                	jne    c010c8f9 <strrchr+0x59>
c010c8b3:	c7 44 24 0c 1b 01 00 	movl   $0x11b,0xc(%esp)
c010c8ba:	00 
c010c8bb:	c7 44 24 08 96 e1 16 	movl   $0xc016e196,0x8(%esp)
c010c8c2:	c0 
c010c8c3:	c7 44 24 04 19 e0 16 	movl   $0xc016e019,0x4(%esp)
c010c8ca:	c0 
c010c8cb:	c7 04 24 30 e0 16 c0 	movl   $0xc016e030,(%esp)
c010c8d2:	e8 09 b1 ff ff       	call   c01079e0 <panic>
c010c8d7:	eb 20                	jmp    c010c8f9 <strrchr+0x59>
c010c8d9:	8b 45 08             	mov    0x8(%ebp),%eax
c010c8dc:	0f b6 00             	movzbl (%eax),%eax
c010c8df:	0f be c0             	movsbl %al,%eax
c010c8e2:	3b 45 0c             	cmp    0xc(%ebp),%eax
c010c8e5:	0f 94 c0             	sete   %al
c010c8e8:	83 45 08 01          	addl   $0x1,0x8(%ebp)
c010c8ec:	84 c0                	test   %al,%al
c010c8ee:	74 09                	je     c010c8f9 <strrchr+0x59>
c010c8f0:	8b 45 08             	mov    0x8(%ebp),%eax
c010c8f3:	83 e8 01             	sub    $0x1,%eax
c010c8f6:	89 45 fc             	mov    %eax,-0x4(%ebp)
c010c8f9:	8b 45 08             	mov    0x8(%ebp),%eax
c010c8fc:	0f b6 00             	movzbl (%eax),%eax
c010c8ff:	84 c0                	test   %al,%al
c010c901:	75 d6                	jne    c010c8d9 <strrchr+0x39>
c010c903:	8b 45 fc             	mov    -0x4(%ebp),%eax
c010c906:	c9                   	leave  
c010c907:	c3                   	ret    

c010c908 <strstr>:
c010c908:	55                   	push   %ebp
c010c909:	89 e5                	mov    %esp,%ebp
c010c90b:	83 ec 28             	sub    $0x28,%esp
c010c90e:	c7 45 f8 00 00 00 00 	movl   $0x0,-0x8(%ebp)
c010c915:	83 7d 08 00          	cmpl   $0x0,0x8(%ebp)
c010c919:	75 24                	jne    c010c93f <strstr+0x37>
c010c91b:	c7 44 24 0c 28 01 00 	movl   $0x128,0xc(%esp)
c010c922:	00 
c010c923:	c7 44 24 08 9e e1 16 	movl   $0xc016e19e,0x8(%esp)
c010c92a:	c0 
c010c92b:	c7 44 24 04 19 e0 16 	movl   $0xc016e019,0x4(%esp)
c010c932:	c0 
c010c933:	c7 04 24 10 e1 16 c0 	movl   $0xc016e110,(%esp)
c010c93a:	e8 a1 b0 ff ff       	call   c01079e0 <panic>
c010c93f:	83 7d 0c 00          	cmpl   $0x0,0xc(%ebp)
c010c943:	75 24                	jne    c010c969 <strstr+0x61>
c010c945:	c7 44 24 0c 29 01 00 	movl   $0x129,0xc(%esp)
c010c94c:	00 
c010c94d:	c7 44 24 08 9e e1 16 	movl   $0xc016e19e,0x8(%esp)
c010c954:	c0 
c010c955:	c7 44 24 04 19 e0 16 	movl   $0xc016e019,0x4(%esp)
c010c95c:	c0 
c010c95d:	c7 04 24 40 e1 16 c0 	movl   $0xc016e140,(%esp)
c010c964:	e8 77 b0 ff ff       	call   c01079e0 <panic>
c010c969:	8b 45 0c             	mov    0xc(%ebp),%eax
c010c96c:	0f b6 00             	movzbl (%eax),%eax
c010c96f:	84 c0                	test   %al,%al
c010c971:	75 68                	jne    c010c9db <strstr+0xd3>
c010c973:	c7 45 ec 00 00 00 00 	movl   $0x0,-0x14(%ebp)
c010c97a:	eb 70                	jmp    c010c9ec <strstr+0xe4>
c010c97c:	8b 45 08             	mov    0x8(%ebp),%eax
c010c97f:	0f b6 10             	movzbl (%eax),%edx
c010c982:	8b 45 0c             	mov    0xc(%ebp),%eax
c010c985:	0f b6 00             	movzbl (%eax),%eax
c010c988:	38 c2                	cmp    %al,%dl
c010c98a:	0f 94 c0             	sete   %al
c010c98d:	83 45 08 01          	addl   $0x1,0x8(%ebp)
c010c991:	84 c0                	test   %al,%al
c010c993:	74 46                	je     c010c9db <strstr+0xd3>
c010c995:	83 6d 08 01          	subl   $0x1,0x8(%ebp)
c010c999:	8b 45 08             	mov    0x8(%ebp),%eax
c010c99c:	89 45 f8             	mov    %eax,-0x8(%ebp)
c010c99f:	8b 45 0c             	mov    0xc(%ebp),%eax
c010c9a2:	89 45 fc             	mov    %eax,-0x4(%ebp)
c010c9a5:	eb 08                	jmp    c010c9af <strstr+0xa7>
c010c9a7:	83 45 08 01          	addl   $0x1,0x8(%ebp)
c010c9ab:	83 45 fc 01          	addl   $0x1,-0x4(%ebp)
c010c9af:	8b 45 fc             	mov    -0x4(%ebp),%eax
c010c9b2:	0f b6 00             	movzbl (%eax),%eax
c010c9b5:	84 c0                	test   %al,%al
c010c9b7:	74 10                	je     c010c9c9 <strstr+0xc1>
c010c9b9:	8b 45 08             	mov    0x8(%ebp),%eax
c010c9bc:	0f b6 10             	movzbl (%eax),%edx
c010c9bf:	8b 45 fc             	mov    -0x4(%ebp),%eax
c010c9c2:	0f b6 00             	movzbl (%eax),%eax
c010c9c5:	38 c2                	cmp    %al,%dl
c010c9c7:	74 de                	je     c010c9a7 <strstr+0x9f>
c010c9c9:	8b 45 fc             	mov    -0x4(%ebp),%eax
c010c9cc:	0f b6 00             	movzbl (%eax),%eax
c010c9cf:	84 c0                	test   %al,%al
c010c9d1:	75 08                	jne    c010c9db <strstr+0xd3>
c010c9d3:	8b 45 f8             	mov    -0x8(%ebp),%eax
c010c9d6:	89 45 ec             	mov    %eax,-0x14(%ebp)
c010c9d9:	eb 11                	jmp    c010c9ec <strstr+0xe4>
c010c9db:	8b 45 08             	mov    0x8(%ebp),%eax
c010c9de:	0f b6 00             	movzbl (%eax),%eax
c010c9e1:	84 c0                	test   %al,%al
c010c9e3:	75 97                	jne    c010c97c <strstr+0x74>
c010c9e5:	c7 45 ec 00 00 00 00 	movl   $0x0,-0x14(%ebp)
c010c9ec:	8b 45 ec             	mov    -0x14(%ebp),%eax
c010c9ef:	c9                   	leave  
c010c9f0:	c3                   	ret    

c010c9f1 <strcspn>:
c010c9f1:	55                   	push   %ebp
c010c9f2:	89 e5                	mov    %esp,%ebp
c010c9f4:	83 ec 28             	sub    $0x28,%esp
c010c9f7:	c7 45 fc 00 00 00 00 	movl   $0x0,-0x4(%ebp)
c010c9fe:	83 7d 08 00          	cmpl   $0x0,0x8(%ebp)
c010ca02:	75 24                	jne    c010ca28 <strcspn+0x37>
c010ca04:	c7 44 24 0c 43 01 00 	movl   $0x143,0xc(%esp)
c010ca0b:	00 
c010ca0c:	c7 44 24 08 a5 e1 16 	movl   $0xc016e1a5,0x8(%esp)
c010ca13:	c0 
c010ca14:	c7 44 24 04 19 e0 16 	movl   $0xc016e019,0x4(%esp)
c010ca1b:	c0 
c010ca1c:	c7 04 24 10 e1 16 c0 	movl   $0xc016e110,(%esp)
c010ca23:	e8 b8 af ff ff       	call   c01079e0 <panic>
c010ca28:	83 7d 0c 00          	cmpl   $0x0,0xc(%ebp)
c010ca2c:	75 52                	jne    c010ca80 <strcspn+0x8f>
c010ca2e:	c7 44 24 0c 44 01 00 	movl   $0x144,0xc(%esp)
c010ca35:	00 
c010ca36:	c7 44 24 08 a5 e1 16 	movl   $0xc016e1a5,0x8(%esp)
c010ca3d:	c0 
c010ca3e:	c7 44 24 04 19 e0 16 	movl   $0xc016e019,0x4(%esp)
c010ca45:	c0 
c010ca46:	c7 04 24 40 e1 16 c0 	movl   $0xc016e140,(%esp)
c010ca4d:	e8 8e af ff ff       	call   c01079e0 <panic>
c010ca52:	eb 2c                	jmp    c010ca80 <strcspn+0x8f>
c010ca54:	8b 45 08             	mov    0x8(%ebp),%eax
c010ca57:	0f b6 00             	movzbl (%eax),%eax
c010ca5a:	0f be c0             	movsbl %al,%eax
c010ca5d:	83 45 08 01          	addl   $0x1,0x8(%ebp)
c010ca61:	89 44 24 04          	mov    %eax,0x4(%esp)
c010ca65:	8b 45 0c             	mov    0xc(%ebp),%eax
c010ca68:	89 04 24             	mov    %eax,(%esp)
c010ca6b:	e8 4b fd ff ff       	call   c010c7bb <strchr>
c010ca70:	85 c0                	test   %eax,%eax
c010ca72:	74 08                	je     c010ca7c <strcspn+0x8b>
c010ca74:	8b 45 fc             	mov    -0x4(%ebp),%eax
c010ca77:	89 45 ec             	mov    %eax,-0x14(%ebp)
c010ca7a:	eb 14                	jmp    c010ca90 <strcspn+0x9f>
c010ca7c:	83 45 fc 01          	addl   $0x1,-0x4(%ebp)
c010ca80:	8b 45 08             	mov    0x8(%ebp),%eax
c010ca83:	0f b6 00             	movzbl (%eax),%eax
c010ca86:	84 c0                	test   %al,%al
c010ca88:	75 ca                	jne    c010ca54 <strcspn+0x63>
c010ca8a:	8b 45 fc             	mov    -0x4(%ebp),%eax
c010ca8d:	89 45 ec             	mov    %eax,-0x14(%ebp)
c010ca90:	8b 45 ec             	mov    -0x14(%ebp),%eax
c010ca93:	c9                   	leave  
c010ca94:	c3                   	ret    

c010ca95 <strcut>:
c010ca95:	55                   	push   %ebp
c010ca96:	89 e5                	mov    %esp,%ebp
c010ca98:	83 ec 28             	sub    $0x28,%esp
c010ca9b:	8b 45 08             	mov    0x8(%ebp),%eax
c010ca9e:	89 45 fc             	mov    %eax,-0x4(%ebp)
c010caa1:	83 7d 08 00          	cmpl   $0x0,0x8(%ebp)
c010caa5:	75 24                	jne    c010cacb <strcut+0x36>
c010caa7:	c7 44 24 0c 51 01 00 	movl   $0x151,0xc(%esp)
c010caae:	00 
c010caaf:	c7 44 24 08 ad e1 16 	movl   $0xc016e1ad,0x8(%esp)
c010cab6:	c0 
c010cab7:	c7 44 24 04 19 e0 16 	movl   $0xc016e019,0x4(%esp)
c010cabe:	c0 
c010cabf:	c7 04 24 30 e0 16 c0 	movl   $0xc016e030,(%esp)
c010cac6:	e8 15 af ff ff       	call   c01079e0 <panic>
c010cacb:	83 7d 0c 00          	cmpl   $0x0,0xc(%ebp)
c010cacf:	74 33                	je     c010cb04 <strcut+0x6f>
c010cad1:	8b 45 0c             	mov    0xc(%ebp),%eax
c010cad4:	01 45 08             	add    %eax,0x8(%ebp)
c010cad7:	eb 16                	jmp    c010caef <strcut+0x5a>
c010cad9:	8b 45 0c             	mov    0xc(%ebp),%eax
c010cadc:	f7 d8                	neg    %eax
c010cade:	89 c2                	mov    %eax,%edx
c010cae0:	03 55 08             	add    0x8(%ebp),%edx
c010cae3:	8b 45 08             	mov    0x8(%ebp),%eax
c010cae6:	0f b6 00             	movzbl (%eax),%eax
c010cae9:	88 02                	mov    %al,(%edx)
c010caeb:	83 45 08 01          	addl   $0x1,0x8(%ebp)
c010caef:	8b 45 08             	mov    0x8(%ebp),%eax
c010caf2:	0f b6 00             	movzbl (%eax),%eax
c010caf5:	84 c0                	test   %al,%al
c010caf7:	75 e0                	jne    c010cad9 <strcut+0x44>
c010caf9:	8b 45 0c             	mov    0xc(%ebp),%eax
c010cafc:	f7 d8                	neg    %eax
c010cafe:	03 45 08             	add    0x8(%ebp),%eax
c010cb01:	c6 00 00             	movb   $0x0,(%eax)
c010cb04:	8b 45 fc             	mov    -0x4(%ebp),%eax
c010cb07:	c9                   	leave  
c010cb08:	c3                   	ret    

c010cb09 <strlen>:
c010cb09:	55                   	push   %ebp
c010cb0a:	89 e5                	mov    %esp,%ebp
c010cb0c:	83 ec 28             	sub    $0x28,%esp
c010cb0f:	c7 45 fc 00 00 00 00 	movl   $0x0,-0x4(%ebp)
c010cb16:	83 7d 08 00          	cmpl   $0x0,0x8(%ebp)
c010cb1a:	75 2a                	jne    c010cb46 <strlen+0x3d>
c010cb1c:	c7 44 24 0c 61 01 00 	movl   $0x161,0xc(%esp)
c010cb23:	00 
c010cb24:	c7 44 24 08 b4 e1 16 	movl   $0xc016e1b4,0x8(%esp)
c010cb2b:	c0 
c010cb2c:	c7 44 24 04 19 e0 16 	movl   $0xc016e019,0x4(%esp)
c010cb33:	c0 
c010cb34:	c7 04 24 30 e0 16 c0 	movl   $0xc016e030,(%esp)
c010cb3b:	e8 a0 ae ff ff       	call   c01079e0 <panic>
c010cb40:	eb 04                	jmp    c010cb46 <strlen+0x3d>
c010cb42:	83 45 fc 01          	addl   $0x1,-0x4(%ebp)
c010cb46:	8b 45 08             	mov    0x8(%ebp),%eax
c010cb49:	0f b6 00             	movzbl (%eax),%eax
c010cb4c:	84 c0                	test   %al,%al
c010cb4e:	0f 95 c0             	setne  %al
c010cb51:	83 45 08 01          	addl   $0x1,0x8(%ebp)
c010cb55:	84 c0                	test   %al,%al
c010cb57:	75 e9                	jne    c010cb42 <strlen+0x39>
c010cb59:	8b 45 fc             	mov    -0x4(%ebp),%eax
c010cb5c:	c9                   	leave  
c010cb5d:	c3                   	ret    

c010cb5e <tolower>:
c010cb5e:	55                   	push   %ebp
c010cb5f:	89 e5                	mov    %esp,%ebp
c010cb61:	83 ec 04             	sub    $0x4,%esp
c010cb64:	83 7d 08 40          	cmpl   $0x40,0x8(%ebp)
c010cb68:	7e 11                	jle    c010cb7b <tolower+0x1d>
c010cb6a:	83 7d 08 5a          	cmpl   $0x5a,0x8(%ebp)
c010cb6e:	7f 0b                	jg     c010cb7b <tolower+0x1d>
c010cb70:	8b 45 08             	mov    0x8(%ebp),%eax
c010cb73:	83 c0 20             	add    $0x20,%eax
c010cb76:	89 45 fc             	mov    %eax,-0x4(%ebp)
c010cb79:	eb 06                	jmp    c010cb81 <tolower+0x23>
c010cb7b:	8b 45 08             	mov    0x8(%ebp),%eax
c010cb7e:	89 45 fc             	mov    %eax,-0x4(%ebp)
c010cb81:	8b 45 fc             	mov    -0x4(%ebp),%eax
c010cb84:	c9                   	leave  
c010cb85:	c3                   	ret    

c010cb86 <toupper>:
c010cb86:	55                   	push   %ebp
c010cb87:	89 e5                	mov    %esp,%ebp
c010cb89:	83 ec 04             	sub    $0x4,%esp
c010cb8c:	83 7d 08 60          	cmpl   $0x60,0x8(%ebp)
c010cb90:	7e 11                	jle    c010cba3 <toupper+0x1d>
c010cb92:	83 7d 08 7a          	cmpl   $0x7a,0x8(%ebp)
c010cb96:	7f 0b                	jg     c010cba3 <toupper+0x1d>
c010cb98:	8b 45 08             	mov    0x8(%ebp),%eax
c010cb9b:	83 e8 20             	sub    $0x20,%eax
c010cb9e:	89 45 fc             	mov    %eax,-0x4(%ebp)
c010cba1:	eb 06                	jmp    c010cba9 <toupper+0x23>
c010cba3:	8b 45 08             	mov    0x8(%ebp),%eax
c010cba6:	89 45 fc             	mov    %eax,-0x4(%ebp)
c010cba9:	8b 45 fc             	mov    -0x4(%ebp),%eax
c010cbac:	c9                   	leave  
c010cbad:	c3                   	ret    

c010cbae <isalnumstr>:
c010cbae:	55                   	push   %ebp
c010cbaf:	89 e5                	mov    %esp,%ebp
c010cbb1:	83 ec 08             	sub    $0x8,%esp
c010cbb4:	eb 22                	jmp    c010cbd8 <isalnumstr+0x2a>
c010cbb6:	8b 45 08             	mov    0x8(%ebp),%eax
c010cbb9:	0f b6 00             	movzbl (%eax),%eax
c010cbbc:	0f be c0             	movsbl %al,%eax
c010cbbf:	83 45 08 01          	addl   $0x1,0x8(%ebp)
c010cbc3:	89 04 24             	mov    %eax,(%esp)
c010cbc6:	e8 23 00 00 00       	call   c010cbee <isalnum>
c010cbcb:	85 c0                	test   %eax,%eax
c010cbcd:	75 09                	jne    c010cbd8 <isalnumstr+0x2a>
c010cbcf:	c7 45 fc 00 00 00 00 	movl   $0x0,-0x4(%ebp)
c010cbd6:	eb 11                	jmp    c010cbe9 <isalnumstr+0x3b>
c010cbd8:	8b 45 08             	mov    0x8(%ebp),%eax
c010cbdb:	0f b6 00             	movzbl (%eax),%eax
c010cbde:	84 c0                	test   %al,%al
c010cbe0:	75 d4                	jne    c010cbb6 <isalnumstr+0x8>
c010cbe2:	c7 45 fc 01 00 00 00 	movl   $0x1,-0x4(%ebp)
c010cbe9:	8b 45 fc             	mov    -0x4(%ebp),%eax
c010cbec:	c9                   	leave  
c010cbed:	c3                   	ret    

c010cbee <isalnum>:
c010cbee:	55                   	push   %ebp
c010cbef:	89 e5                	mov    %esp,%ebp
c010cbf1:	83 ec 04             	sub    $0x4,%esp
c010cbf4:	83 7d 08 60          	cmpl   $0x60,0x8(%ebp)
c010cbf8:	7e 06                	jle    c010cc00 <isalnum+0x12>
c010cbfa:	83 7d 08 7a          	cmpl   $0x7a,0x8(%ebp)
c010cbfe:	7e 18                	jle    c010cc18 <isalnum+0x2a>
c010cc00:	83 7d 08 40          	cmpl   $0x40,0x8(%ebp)
c010cc04:	7e 06                	jle    c010cc0c <isalnum+0x1e>
c010cc06:	83 7d 08 5a          	cmpl   $0x5a,0x8(%ebp)
c010cc0a:	7e 0c                	jle    c010cc18 <isalnum+0x2a>
c010cc0c:	83 7d 08 2f          	cmpl   $0x2f,0x8(%ebp)
c010cc10:	7e 0f                	jle    c010cc21 <isalnum+0x33>
c010cc12:	83 7d 08 39          	cmpl   $0x39,0x8(%ebp)
c010cc16:	7f 09                	jg     c010cc21 <isalnum+0x33>
c010cc18:	c7 45 fc 01 00 00 00 	movl   $0x1,-0x4(%ebp)
c010cc1f:	eb 07                	jmp    c010cc28 <isalnum+0x3a>
c010cc21:	c7 45 fc 00 00 00 00 	movl   $0x0,-0x4(%ebp)
c010cc28:	8b 45 fc             	mov    -0x4(%ebp),%eax
c010cc2b:	c9                   	leave  
c010cc2c:	c3                   	ret    

c010cc2d <isalpha>:
c010cc2d:	55                   	push   %ebp
c010cc2e:	89 e5                	mov    %esp,%ebp
c010cc30:	83 ec 04             	sub    $0x4,%esp
c010cc33:	83 7d 08 60          	cmpl   $0x60,0x8(%ebp)
c010cc37:	7e 06                	jle    c010cc3f <isalpha+0x12>
c010cc39:	83 7d 08 7a          	cmpl   $0x7a,0x8(%ebp)
c010cc3d:	7e 0c                	jle    c010cc4b <isalpha+0x1e>
c010cc3f:	83 7d 08 40          	cmpl   $0x40,0x8(%ebp)
c010cc43:	7e 0f                	jle    c010cc54 <isalpha+0x27>
c010cc45:	83 7d 08 5a          	cmpl   $0x5a,0x8(%ebp)
c010cc49:	7f 09                	jg     c010cc54 <isalpha+0x27>
c010cc4b:	c7 45 fc 01 00 00 00 	movl   $0x1,-0x4(%ebp)
c010cc52:	eb 07                	jmp    c010cc5b <isalpha+0x2e>
c010cc54:	c7 45 fc 00 00 00 00 	movl   $0x0,-0x4(%ebp)
c010cc5b:	8b 45 fc             	mov    -0x4(%ebp),%eax
c010cc5e:	c9                   	leave  
c010cc5f:	c3                   	ret    

c010cc60 <isdigit>:
c010cc60:	55                   	push   %ebp
c010cc61:	89 e5                	mov    %esp,%ebp
c010cc63:	83 ec 04             	sub    $0x4,%esp
c010cc66:	83 7d 08 2f          	cmpl   $0x2f,0x8(%ebp)
c010cc6a:	7e 0f                	jle    c010cc7b <isdigit+0x1b>
c010cc6c:	83 7d 08 39          	cmpl   $0x39,0x8(%ebp)
c010cc70:	7f 09                	jg     c010cc7b <isdigit+0x1b>
c010cc72:	c7 45 fc 01 00 00 00 	movl   $0x1,-0x4(%ebp)
c010cc79:	eb 07                	jmp    c010cc82 <isdigit+0x22>
c010cc7b:	c7 45 fc 00 00 00 00 	movl   $0x0,-0x4(%ebp)
c010cc82:	8b 45 fc             	mov    -0x4(%ebp),%eax
c010cc85:	c9                   	leave  
c010cc86:	c3                   	ret    

c010cc87 <islower>:
c010cc87:	55                   	push   %ebp
c010cc88:	89 e5                	mov    %esp,%ebp
c010cc8a:	83 ec 04             	sub    $0x4,%esp
c010cc8d:	83 7d 08 60          	cmpl   $0x60,0x8(%ebp)
c010cc91:	7e 0f                	jle    c010cca2 <islower+0x1b>
c010cc93:	83 7d 08 7a          	cmpl   $0x7a,0x8(%ebp)
c010cc97:	7f 09                	jg     c010cca2 <islower+0x1b>
c010cc99:	c7 45 fc 01 00 00 00 	movl   $0x1,-0x4(%ebp)
c010cca0:	eb 07                	jmp    c010cca9 <islower+0x22>
c010cca2:	c7 45 fc 00 00 00 00 	movl   $0x0,-0x4(%ebp)
c010cca9:	8b 45 fc             	mov    -0x4(%ebp),%eax
c010ccac:	c9                   	leave  
c010ccad:	c3                   	ret    

c010ccae <isspace>:
c010ccae:	55                   	push   %ebp
c010ccaf:	89 e5                	mov    %esp,%ebp
c010ccb1:	83 ec 04             	sub    $0x4,%esp
c010ccb4:	83 7d 08 20          	cmpl   $0x20,0x8(%ebp)
c010ccb8:	74 1e                	je     c010ccd8 <isspace+0x2a>
c010ccba:	83 7d 08 0d          	cmpl   $0xd,0x8(%ebp)
c010ccbe:	74 18                	je     c010ccd8 <isspace+0x2a>
c010ccc0:	83 7d 08 0a          	cmpl   $0xa,0x8(%ebp)
c010ccc4:	74 12                	je     c010ccd8 <isspace+0x2a>
c010ccc6:	83 7d 08 09          	cmpl   $0x9,0x8(%ebp)
c010ccca:	74 0c                	je     c010ccd8 <isspace+0x2a>
c010cccc:	83 7d 08 0c          	cmpl   $0xc,0x8(%ebp)
c010ccd0:	74 06                	je     c010ccd8 <isspace+0x2a>
c010ccd2:	83 7d 08 0b          	cmpl   $0xb,0x8(%ebp)
c010ccd6:	75 09                	jne    c010cce1 <isspace+0x33>
c010ccd8:	c7 45 fc 01 00 00 00 	movl   $0x1,-0x4(%ebp)
c010ccdf:	eb 07                	jmp    c010cce8 <isspace+0x3a>
c010cce1:	c7 45 fc 00 00 00 00 	movl   $0x0,-0x4(%ebp)
c010cce8:	8b 45 fc             	mov    -0x4(%ebp),%eax
c010cceb:	c9                   	leave  
c010ccec:	c3                   	ret    

c010cced <isupper>:
c010cced:	55                   	push   %ebp
c010ccee:	89 e5                	mov    %esp,%ebp
c010ccf0:	83 ec 04             	sub    $0x4,%esp
c010ccf3:	83 7d 08 40          	cmpl   $0x40,0x8(%ebp)
c010ccf7:	7e 0f                	jle    c010cd08 <isupper+0x1b>
c010ccf9:	83 7d 08 5a          	cmpl   $0x5a,0x8(%ebp)
c010ccfd:	7f 09                	jg     c010cd08 <isupper+0x1b>
c010ccff:	c7 45 fc 01 00 00 00 	movl   $0x1,-0x4(%ebp)
c010cd06:	eb 07                	jmp    c010cd0f <isupper+0x22>
c010cd08:	c7 45 fc 00 00 00 00 	movl   $0x0,-0x4(%ebp)
c010cd0f:	8b 45 fc             	mov    -0x4(%ebp),%eax
c010cd12:	c9                   	leave  
c010cd13:	c3                   	ret    

c010cd14 <test_noPrint>:
c010cd14:	55                   	push   %ebp
c010cd15:	89 e5                	mov    %esp,%ebp
c010cd17:	5d                   	pop    %ebp
c010cd18:	c3                   	ret    

c010cd19 <test_vnoPrint>:
c010cd19:	55                   	push   %ebp
c010cd1a:	89 e5                	mov    %esp,%ebp
c010cd1c:	5d                   	pop    %ebp
c010cd1d:	c3                   	ret    

c010cd1e <test_caseStart>:
c010cd1e:	55                   	push   %ebp
c010cd1f:	89 e5                	mov    %esp,%ebp
c010cd21:	83 ec 18             	sub    $0x18,%esp
c010cd24:	8d 45 0c             	lea    0xc(%ebp),%eax
c010cd27:	89 45 fc             	mov    %eax,-0x4(%ebp)
c010cd2a:	8b 45 fc             	mov    -0x4(%ebp),%eax
c010cd2d:	89 44 24 04          	mov    %eax,0x4(%esp)
c010cd31:	8b 45 08             	mov    0x8(%ebp),%eax
c010cd34:	89 04 24             	mov    %eax,(%esp)
c010cd37:	e8 02 00 00 00       	call   c010cd3e <test_caseStartv>
c010cd3c:	c9                   	leave  
c010cd3d:	c3                   	ret    

c010cd3e <test_caseStartv>:
c010cd3e:	55                   	push   %ebp
c010cd3f:	89 e5                	mov    %esp,%ebp
c010cd41:	83 ec 08             	sub    $0x8,%esp
c010cd44:	a1 c4 da 23 c0       	mov    0xc023dac4,%eax
c010cd49:	89 c2                	mov    %eax,%edx
c010cd4b:	83 c0 01             	add    $0x1,%eax
c010cd4e:	a3 c4 da 23 c0       	mov    %eax,0xc023dac4
c010cd53:	89 54 24 04          	mov    %edx,0x4(%esp)
c010cd57:	c7 04 24 bc e1 16 c0 	movl   $0xc016e1bc,(%esp)
c010cd5e:	e8 e2 e6 ff ff       	call   c010b445 <vid_printf>
c010cd63:	8b 45 0c             	mov    0xc(%ebp),%eax
c010cd66:	89 44 24 04          	mov    %eax,0x4(%esp)
c010cd6a:	8b 45 08             	mov    0x8(%ebp),%eax
c010cd6d:	89 04 24             	mov    %eax,(%esp)
c010cd70:	e8 f0 e6 ff ff       	call   c010b465 <vid_vprintf>
c010cd75:	c7 04 24 ce e1 16 c0 	movl   $0xc016e1ce,(%esp)
c010cd7c:	e8 c4 e6 ff ff       	call   c010b445 <vid_printf>
c010cd81:	c7 05 e0 da 23 c0 00 	movl   $0x0,0xc023dae0
c010cd88:	00 00 00 
c010cd8b:	c9                   	leave  
c010cd8c:	c3                   	ret    

c010cd8d <test_caseSucceded>:
c010cd8d:	55                   	push   %ebp
c010cd8e:	89 e5                	mov    %esp,%ebp
c010cd90:	83 ec 08             	sub    $0x8,%esp
c010cd93:	c7 44 24 04 d3 e1 16 	movl   $0xc016e1d3,0x4(%esp)
c010cd9a:	c0 
c010cd9b:	c7 04 24 db e1 16 c0 	movl   $0xc016e1db,(%esp)
c010cda2:	e8 9e e6 ff ff       	call   c010b445 <vid_printf>
c010cda7:	a1 d0 da 23 c0       	mov    0xc023dad0,%eax
c010cdac:	83 c0 01             	add    $0x1,%eax
c010cdaf:	a3 d0 da 23 c0       	mov    %eax,0xc023dad0
c010cdb4:	a1 d8 da 23 c0       	mov    0xc023dad8,%eax
c010cdb9:	83 c0 01             	add    $0x1,%eax
c010cdbc:	a3 d8 da 23 c0       	mov    %eax,0xc023dad8
c010cdc1:	c9                   	leave  
c010cdc2:	c3                   	ret    

c010cdc3 <test_assertTrue>:
c010cdc3:	55                   	push   %ebp
c010cdc4:	89 e5                	mov    %esp,%ebp
c010cdc6:	83 ec 18             	sub    $0x18,%esp
c010cdc9:	a1 e0 da 23 c0       	mov    0xc023dae0,%eax
c010cdce:	83 c0 01             	add    $0x1,%eax
c010cdd1:	a3 e0 da 23 c0       	mov    %eax,0xc023dae0
c010cdd6:	83 7d 08 00          	cmpl   $0x0,0x8(%ebp)
c010cdda:	75 1e                	jne    c010cdfa <test_assertTrue+0x37>
c010cddc:	a1 e0 da 23 c0       	mov    0xc023dae0,%eax
c010cde1:	89 44 24 04          	mov    %eax,0x4(%esp)
c010cde5:	c7 04 24 f0 e1 16 c0 	movl   $0xc016e1f0,(%esp)
c010cdec:	e8 90 02 00 00       	call   c010d081 <test_caseFailed>
c010cdf1:	c7 45 fc 00 00 00 00 	movl   $0x0,-0x4(%ebp)
c010cdf8:	eb 1c                	jmp    c010ce16 <test_assertTrue+0x53>
c010cdfa:	a1 e0 da 23 c0       	mov    0xc023dae0,%eax
c010cdff:	89 44 24 04          	mov    %eax,0x4(%esp)
c010ce03:	c7 04 24 19 e2 16 c0 	movl   $0xc016e219,(%esp)
c010ce0a:	e8 36 e6 ff ff       	call   c010b445 <vid_printf>
c010ce0f:	c7 45 fc 01 00 00 00 	movl   $0x1,-0x4(%ebp)
c010ce16:	8b 45 fc             	mov    -0x4(%ebp),%eax
c010ce19:	c9                   	leave  
c010ce1a:	c3                   	ret    

c010ce1b <test_assertFalse>:
c010ce1b:	55                   	push   %ebp
c010ce1c:	89 e5                	mov    %esp,%ebp
c010ce1e:	83 ec 18             	sub    $0x18,%esp
c010ce21:	a1 e0 da 23 c0       	mov    0xc023dae0,%eax
c010ce26:	83 c0 01             	add    $0x1,%eax
c010ce29:	a3 e0 da 23 c0       	mov    %eax,0xc023dae0
c010ce2e:	83 7d 08 00          	cmpl   $0x0,0x8(%ebp)
c010ce32:	74 1e                	je     c010ce52 <test_assertFalse+0x37>
c010ce34:	a1 e0 da 23 c0       	mov    0xc023dae0,%eax
c010ce39:	89 44 24 04          	mov    %eax,0x4(%esp)
c010ce3d:	c7 04 24 30 e2 16 c0 	movl   $0xc016e230,(%esp)
c010ce44:	e8 38 02 00 00       	call   c010d081 <test_caseFailed>
c010ce49:	c7 45 fc 00 00 00 00 	movl   $0x0,-0x4(%ebp)
c010ce50:	eb 1c                	jmp    c010ce6e <test_assertFalse+0x53>
c010ce52:	a1 e0 da 23 c0       	mov    0xc023dae0,%eax
c010ce57:	89 44 24 04          	mov    %eax,0x4(%esp)
c010ce5b:	c7 04 24 19 e2 16 c0 	movl   $0xc016e219,(%esp)
c010ce62:	e8 de e5 ff ff       	call   c010b445 <vid_printf>
c010ce67:	c7 45 fc 01 00 00 00 	movl   $0x1,-0x4(%ebp)
c010ce6e:	8b 45 fc             	mov    -0x4(%ebp),%eax
c010ce71:	c9                   	leave  
c010ce72:	c3                   	ret    

c010ce73 <test_assertPtr>:
c010ce73:	55                   	push   %ebp
c010ce74:	89 e5                	mov    %esp,%ebp
c010ce76:	83 ec 18             	sub    $0x18,%esp
c010ce79:	a1 e0 da 23 c0       	mov    0xc023dae0,%eax
c010ce7e:	83 c0 01             	add    $0x1,%eax
c010ce81:	a3 e0 da 23 c0       	mov    %eax,0xc023dae0
c010ce86:	8b 45 0c             	mov    0xc(%ebp),%eax
c010ce89:	3b 45 08             	cmp    0x8(%ebp),%eax
c010ce8c:	74 2c                	je     c010ceba <test_assertPtr+0x47>
c010ce8e:	a1 e0 da 23 c0       	mov    0xc023dae0,%eax
c010ce93:	8b 55 08             	mov    0x8(%ebp),%edx
c010ce96:	89 54 24 0c          	mov    %edx,0xc(%esp)
c010ce9a:	8b 55 0c             	mov    0xc(%ebp),%edx
c010ce9d:	89 54 24 08          	mov    %edx,0x8(%esp)
c010cea1:	89 44 24 04          	mov    %eax,0x4(%esp)
c010cea5:	c7 04 24 5c e2 16 c0 	movl   $0xc016e25c,(%esp)
c010ceac:	e8 d0 01 00 00       	call   c010d081 <test_caseFailed>
c010ceb1:	c7 45 fc 00 00 00 00 	movl   $0x0,-0x4(%ebp)
c010ceb8:	eb 1c                	jmp    c010ced6 <test_assertPtr+0x63>
c010ceba:	a1 e0 da 23 c0       	mov    0xc023dae0,%eax
c010cebf:	89 44 24 04          	mov    %eax,0x4(%esp)
c010cec3:	c7 04 24 19 e2 16 c0 	movl   $0xc016e219,(%esp)
c010ceca:	e8 76 e5 ff ff       	call   c010b445 <vid_printf>
c010cecf:	c7 45 fc 01 00 00 00 	movl   $0x1,-0x4(%ebp)
c010ced6:	8b 45 fc             	mov    -0x4(%ebp),%eax
c010ced9:	c9                   	leave  
c010ceda:	c3                   	ret    

c010cedb <test_assertInt>:
c010cedb:	55                   	push   %ebp
c010cedc:	89 e5                	mov    %esp,%ebp
c010cede:	83 ec 18             	sub    $0x18,%esp
c010cee1:	a1 e0 da 23 c0       	mov    0xc023dae0,%eax
c010cee6:	83 c0 01             	add    $0x1,%eax
c010cee9:	a3 e0 da 23 c0       	mov    %eax,0xc023dae0
c010ceee:	8b 45 0c             	mov    0xc(%ebp),%eax
c010cef1:	3b 45 08             	cmp    0x8(%ebp),%eax
c010cef4:	74 2c                	je     c010cf22 <test_assertInt+0x47>
c010cef6:	a1 e0 da 23 c0       	mov    0xc023dae0,%eax
c010cefb:	8b 55 08             	mov    0x8(%ebp),%edx
c010cefe:	89 54 24 0c          	mov    %edx,0xc(%esp)
c010cf02:	8b 55 0c             	mov    0xc(%ebp),%edx
c010cf05:	89 54 24 08          	mov    %edx,0x8(%esp)
c010cf09:	89 44 24 04          	mov    %eax,0x4(%esp)
c010cf0d:	c7 04 24 8c e2 16 c0 	movl   $0xc016e28c,(%esp)
c010cf14:	e8 68 01 00 00       	call   c010d081 <test_caseFailed>
c010cf19:	c7 45 fc 00 00 00 00 	movl   $0x0,-0x4(%ebp)
c010cf20:	eb 1c                	jmp    c010cf3e <test_assertInt+0x63>
c010cf22:	a1 e0 da 23 c0       	mov    0xc023dae0,%eax
c010cf27:	89 44 24 04          	mov    %eax,0x4(%esp)
c010cf2b:	c7 04 24 19 e2 16 c0 	movl   $0xc016e219,(%esp)
c010cf32:	e8 0e e5 ff ff       	call   c010b445 <vid_printf>
c010cf37:	c7 45 fc 01 00 00 00 	movl   $0x1,-0x4(%ebp)
c010cf3e:	8b 45 fc             	mov    -0x4(%ebp),%eax
c010cf41:	c9                   	leave  
c010cf42:	c3                   	ret    

c010cf43 <test_assertUInt>:
c010cf43:	55                   	push   %ebp
c010cf44:	89 e5                	mov    %esp,%ebp
c010cf46:	83 ec 18             	sub    $0x18,%esp
c010cf49:	a1 e0 da 23 c0       	mov    0xc023dae0,%eax
c010cf4e:	83 c0 01             	add    $0x1,%eax
c010cf51:	a3 e0 da 23 c0       	mov    %eax,0xc023dae0
c010cf56:	8b 45 0c             	mov    0xc(%ebp),%eax
c010cf59:	3b 45 08             	cmp    0x8(%ebp),%eax
c010cf5c:	74 2c                	je     c010cf8a <test_assertUInt+0x47>
c010cf5e:	a1 e0 da 23 c0       	mov    0xc023dae0,%eax
c010cf63:	8b 55 08             	mov    0x8(%ebp),%edx
c010cf66:	89 54 24 0c          	mov    %edx,0xc(%esp)
c010cf6a:	8b 55 0c             	mov    0xc(%ebp),%edx
c010cf6d:	89 54 24 08          	mov    %edx,0x8(%esp)
c010cf71:	89 44 24 04          	mov    %eax,0x4(%esp)
c010cf75:	c7 04 24 b8 e2 16 c0 	movl   $0xc016e2b8,(%esp)
c010cf7c:	e8 00 01 00 00       	call   c010d081 <test_caseFailed>
c010cf81:	c7 45 fc 00 00 00 00 	movl   $0x0,-0x4(%ebp)
c010cf88:	eb 1c                	jmp    c010cfa6 <test_assertUInt+0x63>
c010cf8a:	a1 e0 da 23 c0       	mov    0xc023dae0,%eax
c010cf8f:	89 44 24 04          	mov    %eax,0x4(%esp)
c010cf93:	c7 04 24 19 e2 16 c0 	movl   $0xc016e219,(%esp)
c010cf9a:	e8 a6 e4 ff ff       	call   c010b445 <vid_printf>
c010cf9f:	c7 45 fc 01 00 00 00 	movl   $0x1,-0x4(%ebp)
c010cfa6:	8b 45 fc             	mov    -0x4(%ebp),%eax
c010cfa9:	c9                   	leave  
c010cfaa:	c3                   	ret    

c010cfab <test_assertStr>:
c010cfab:	55                   	push   %ebp
c010cfac:	89 e5                	mov    %esp,%ebp
c010cfae:	83 ec 28             	sub    $0x28,%esp
c010cfb1:	8b 45 0c             	mov    0xc(%ebp),%eax
c010cfb4:	89 45 f8             	mov    %eax,-0x8(%ebp)
c010cfb7:	8b 45 08             	mov    0x8(%ebp),%eax
c010cfba:	89 45 fc             	mov    %eax,-0x4(%ebp)
c010cfbd:	a1 e0 da 23 c0       	mov    0xc023dae0,%eax
c010cfc2:	83 c0 01             	add    $0x1,%eax
c010cfc5:	a3 e0 da 23 c0       	mov    %eax,0xc023dae0
c010cfca:	eb 44                	jmp    c010d010 <test_assertStr+0x65>
c010cfcc:	8b 45 f8             	mov    -0x8(%ebp),%eax
c010cfcf:	0f b6 10             	movzbl (%eax),%edx
c010cfd2:	8b 45 fc             	mov    -0x4(%ebp),%eax
c010cfd5:	0f b6 00             	movzbl (%eax),%eax
c010cfd8:	38 c2                	cmp    %al,%dl
c010cfda:	74 2c                	je     c010d008 <test_assertStr+0x5d>
c010cfdc:	a1 e0 da 23 c0       	mov    0xc023dae0,%eax
c010cfe1:	8b 55 08             	mov    0x8(%ebp),%edx
c010cfe4:	89 54 24 0c          	mov    %edx,0xc(%esp)
c010cfe8:	8b 55 0c             	mov    0xc(%ebp),%edx
c010cfeb:	89 54 24 08          	mov    %edx,0x8(%esp)
c010cfef:	89 44 24 04          	mov    %eax,0x4(%esp)
c010cff3:	c7 04 24 e8 e2 16 c0 	movl   $0xc016e2e8,(%esp)
c010cffa:	e8 82 00 00 00       	call   c010d081 <test_caseFailed>
c010cfff:	c7 45 ec 00 00 00 00 	movl   $0x0,-0x14(%ebp)
c010d006:	eb 74                	jmp    c010d07c <test_assertStr+0xd1>
c010d008:	83 45 f8 01          	addl   $0x1,-0x8(%ebp)
c010d00c:	83 45 fc 01          	addl   $0x1,-0x4(%ebp)
c010d010:	8b 45 f8             	mov    -0x8(%ebp),%eax
c010d013:	0f b6 00             	movzbl (%eax),%eax
c010d016:	84 c0                	test   %al,%al
c010d018:	74 0a                	je     c010d024 <test_assertStr+0x79>
c010d01a:	8b 45 fc             	mov    -0x4(%ebp),%eax
c010d01d:	0f b6 00             	movzbl (%eax),%eax
c010d020:	84 c0                	test   %al,%al
c010d022:	75 a8                	jne    c010cfcc <test_assertStr+0x21>
c010d024:	8b 45 f8             	mov    -0x8(%ebp),%eax
c010d027:	0f b6 10             	movzbl (%eax),%edx
c010d02a:	8b 45 fc             	mov    -0x4(%ebp),%eax
c010d02d:	0f b6 00             	movzbl (%eax),%eax
c010d030:	38 c2                	cmp    %al,%dl
c010d032:	74 2c                	je     c010d060 <test_assertStr+0xb5>
c010d034:	a1 e0 da 23 c0       	mov    0xc023dae0,%eax
c010d039:	8b 55 08             	mov    0x8(%ebp),%edx
c010d03c:	89 54 24 0c          	mov    %edx,0xc(%esp)
c010d040:	8b 55 0c             	mov    0xc(%ebp),%edx
c010d043:	89 54 24 08          	mov    %edx,0x8(%esp)
c010d047:	89 44 24 04          	mov    %eax,0x4(%esp)
c010d04b:	c7 04 24 e8 e2 16 c0 	movl   $0xc016e2e8,(%esp)
c010d052:	e8 2a 00 00 00       	call   c010d081 <test_caseFailed>
c010d057:	c7 45 ec 00 00 00 00 	movl   $0x0,-0x14(%ebp)
c010d05e:	eb 1c                	jmp    c010d07c <test_assertStr+0xd1>
c010d060:	a1 e0 da 23 c0       	mov    0xc023dae0,%eax
c010d065:	89 44 24 04          	mov    %eax,0x4(%esp)
c010d069:	c7 04 24 19 e2 16 c0 	movl   $0xc016e219,(%esp)
c010d070:	e8 d0 e3 ff ff       	call   c010b445 <vid_printf>
c010d075:	c7 45 ec 01 00 00 00 	movl   $0x1,-0x14(%ebp)
c010d07c:	8b 45 ec             	mov    -0x14(%ebp),%eax
c010d07f:	c9                   	leave  
c010d080:	c3                   	ret    

c010d081 <test_caseFailed>:
c010d081:	55                   	push   %ebp
c010d082:	89 e5                	mov    %esp,%ebp
c010d084:	83 ec 18             	sub    $0x18,%esp
c010d087:	c7 44 24 04 17 e3 16 	movl   $0xc016e317,0x4(%esp)
c010d08e:	c0 
c010d08f:	c7 04 24 1e e3 16 c0 	movl   $0xc016e31e,(%esp)
c010d096:	e8 aa e3 ff ff       	call   c010b445 <vid_printf>
c010d09b:	8d 45 0c             	lea    0xc(%ebp),%eax
c010d09e:	89 45 fc             	mov    %eax,-0x4(%ebp)
c010d0a1:	8b 45 fc             	mov    -0x4(%ebp),%eax
c010d0a4:	89 44 24 04          	mov    %eax,0x4(%esp)
c010d0a8:	8b 45 08             	mov    0x8(%ebp),%eax
c010d0ab:	89 04 24             	mov    %eax,(%esp)
c010d0ae:	e8 b2 e3 ff ff       	call   c010b465 <vid_vprintf>
c010d0b3:	c7 04 24 30 e3 16 c0 	movl   $0xc016e330,(%esp)
c010d0ba:	e8 86 e3 ff ff       	call   c010b445 <vid_printf>
c010d0bf:	a1 d4 da 23 c0       	mov    0xc023dad4,%eax
c010d0c4:	83 c0 01             	add    $0x1,%eax
c010d0c7:	a3 d4 da 23 c0       	mov    %eax,0xc023dad4
c010d0cc:	a1 dc da 23 c0       	mov    0xc023dadc,%eax
c010d0d1:	83 c0 01             	add    $0x1,%eax
c010d0d4:	a3 dc da 23 c0       	mov    %eax,0xc023dadc
c010d0d9:	c9                   	leave  
c010d0da:	c3                   	ret    

c010d0db <test_register>:
c010d0db:	55                   	push   %ebp
c010d0dc:	89 e5                	mov    %esp,%ebp
c010d0de:	a1 c0 da 23 c0       	mov    0xc023dac0,%eax
c010d0e3:	8b 55 08             	mov    0x8(%ebp),%edx
c010d0e6:	89 14 85 00 db 23 c0 	mov    %edx,-0x3fdc2500(,%eax,4)
c010d0ed:	83 c0 01             	add    $0x1,%eax
c010d0f0:	a3 c0 da 23 c0       	mov    %eax,0xc023dac0
c010d0f5:	5d                   	pop    %ebp
c010d0f6:	c3                   	ret    

c010d0f7 <test_start>:
c010d0f7:	55                   	push   %ebp
c010d0f8:	89 e5                	mov    %esp,%ebp
c010d0fa:	83 ec 28             	sub    $0x28,%esp
c010d0fd:	c7 04 24 38 e3 16 c0 	movl   $0xc016e338,(%esp)
c010d104:	e8 3c e3 ff ff       	call   c010b445 <vid_printf>
c010d109:	c7 45 fc 00 00 00 00 	movl   $0x0,-0x4(%ebp)
c010d110:	e9 cb 00 00 00       	jmp    c010d1e0 <test_start+0xe9>
c010d115:	8b 45 fc             	mov    -0x4(%ebp),%eax
c010d118:	8b 04 85 00 db 23 c0 	mov    -0x3fdc2500(,%eax,4),%eax
c010d11f:	8b 00                	mov    (%eax),%eax
c010d121:	89 44 24 08          	mov    %eax,0x8(%esp)
c010d125:	8b 45 fc             	mov    -0x4(%ebp),%eax
c010d128:	89 44 24 04          	mov    %eax,0x4(%esp)
c010d12c:	c7 04 24 60 e3 16 c0 	movl   $0xc016e360,(%esp)
c010d133:	e8 0d e3 ff ff       	call   c010b445 <vid_printf>
c010d138:	c7 05 c4 da 23 c0 01 	movl   $0x1,0xc023dac4
c010d13f:	00 00 00 
c010d142:	c7 05 d8 da 23 c0 00 	movl   $0x0,0xc023dad8
c010d149:	00 00 00 
c010d14c:	c7 05 dc da 23 c0 00 	movl   $0x0,0xc023dadc
c010d153:	00 00 00 
c010d156:	8b 45 fc             	mov    -0x4(%ebp),%eax
c010d159:	8b 04 85 00 db 23 c0 	mov    -0x3fdc2500(,%eax,4),%eax
c010d160:	8b 40 04             	mov    0x4(%eax),%eax
c010d163:	ff d0                	call   *%eax
c010d165:	a1 dc da 23 c0       	mov    0xc023dadc,%eax
c010d16a:	85 c0                	test   %eax,%eax
c010d16c:	75 0f                	jne    c010d17d <test_start+0x86>
c010d16e:	a1 c8 da 23 c0       	mov    0xc023dac8,%eax
c010d173:	83 c0 01             	add    $0x1,%eax
c010d176:	a3 c8 da 23 c0       	mov    %eax,0xc023dac8
c010d17b:	eb 0d                	jmp    c010d18a <test_start+0x93>
c010d17d:	a1 cc da 23 c0       	mov    0xc023dacc,%eax
c010d182:	83 c0 01             	add    $0x1,%eax
c010d185:	a3 cc da 23 c0       	mov    %eax,0xc023dacc
c010d18a:	8b 45 fc             	mov    -0x4(%ebp),%eax
c010d18d:	8b 04 85 00 db 23 c0 	mov    -0x3fdc2500(,%eax,4),%eax
c010d194:	8b 00                	mov    (%eax),%eax
c010d196:	89 44 24 04          	mov    %eax,0x4(%esp)
c010d19a:	c7 04 24 8c e3 16 c0 	movl   $0xc016e38c,(%esp)
c010d1a1:	e8 9f e2 ff ff       	call   c010b445 <vid_printf>
c010d1a6:	a1 d8 da 23 c0       	mov    0xc023dad8,%eax
c010d1ab:	89 44 24 04          	mov    %eax,0x4(%esp)
c010d1af:	c7 04 24 b8 e3 16 c0 	movl   $0xc016e3b8,(%esp)
c010d1b6:	e8 8a e2 ff ff       	call   c010b445 <vid_printf>
c010d1bb:	a1 dc da 23 c0       	mov    0xc023dadc,%eax
c010d1c0:	89 44 24 04          	mov    %eax,0x4(%esp)
c010d1c4:	c7 04 24 e0 e3 16 c0 	movl   $0xc016e3e0,(%esp)
c010d1cb:	e8 75 e2 ff ff       	call   c010b445 <vid_printf>
c010d1d0:	c7 04 24 04 e4 16 c0 	movl   $0xc016e404,(%esp)
c010d1d7:	e8 69 e2 ff ff       	call   c010b445 <vid_printf>
c010d1dc:	83 45 fc 01          	addl   $0x1,-0x4(%ebp)
c010d1e0:	a1 c0 da 23 c0       	mov    0xc023dac0,%eax
c010d1e5:	39 45 fc             	cmp    %eax,-0x4(%ebp)
c010d1e8:	0f 82 27 ff ff ff    	jb     c010d115 <test_start+0x1e>
c010d1ee:	c7 04 24 2c e4 16 c0 	movl   $0xc016e42c,(%esp)
c010d1f5:	e8 4b e2 ff ff       	call   c010b445 <vid_printf>
c010d1fa:	a1 c8 da 23 c0       	mov    0xc023dac8,%eax
c010d1ff:	89 44 24 04          	mov    %eax,0x4(%esp)
c010d203:	c7 04 24 4c e4 16 c0 	movl   $0xc016e44c,(%esp)
c010d20a:	e8 36 e2 ff ff       	call   c010b445 <vid_printf>
c010d20f:	a1 cc da 23 c0       	mov    0xc023dacc,%eax
c010d214:	89 44 24 04          	mov    %eax,0x4(%esp)
c010d218:	c7 04 24 70 e4 16 c0 	movl   $0xc016e470,(%esp)
c010d21f:	e8 21 e2 ff ff       	call   c010b445 <vid_printf>
c010d224:	a1 d0 da 23 c0       	mov    0xc023dad0,%eax
c010d229:	89 44 24 04          	mov    %eax,0x4(%esp)
c010d22d:	c7 04 24 90 e4 16 c0 	movl   $0xc016e490,(%esp)
c010d234:	e8 0c e2 ff ff       	call   c010b445 <vid_printf>
c010d239:	a1 d4 da 23 c0       	mov    0xc023dad4,%eax
c010d23e:	89 44 24 04          	mov    %eax,0x4(%esp)
c010d242:	c7 04 24 b8 e4 16 c0 	movl   $0xc016e4b8,(%esp)
c010d249:	e8 f7 e1 ff ff       	call   c010b445 <vid_printf>
c010d24e:	c7 04 24 d9 e4 16 c0 	movl   $0xc016e4d9,(%esp)
c010d255:	e8 eb e1 ff ff       	call   c010b445 <vid_printf>
c010d25a:	c9                   	leave  
c010d25b:	c3                   	ret    
