
build/user_shell.bin:     file format elf32-i386


Disassembly of section .text:

00000000 <init>:
       0:	e8 a3 02 00 00       	call   2a8 <main>
       5:	50                   	push   %eax
       6:	e8 e1 24 00 00       	call   24ec <exit>
       b:	eb fe                	jmp    b <SYSCALL_MAPPHYS>

0000000d <sigRetFunc>:
       d:	81 c4 04 00 00 00    	add    $0x4,%esp
      13:	5e                   	pop    %esi
      14:	5f                   	pop    %edi
      15:	5a                   	pop    %edx
      16:	59                   	pop    %ecx
      17:	5b                   	pop    %ebx
      18:	58                   	pop    %eax
      19:	ff 74 24 e4          	pushl  -0x1c(%esp)
      1d:	e8 44 25 00 00       	call   2566 <ackSignal>
      22:	81 c4 04 00 00 00    	add    $0x4,%esp
      28:	c3                   	ret    
      29:	00 00                	add    %al,(%eax)
	...

0000002c <shell_addToHistory>:
      2c:	55                   	push   %ebp
      2d:	89 e5                	mov    %esp,%ebp
      2f:	53                   	push   %ebx
      30:	83 ec 24             	sub    $0x24,%esp
      33:	0f b7 05 40 50 00 00 	movzwl 0x5040,%eax
      3a:	66 85 c0             	test   %ax,%ax
      3d:	74 10                	je     4f <SYSCALL_IRQ+0x1f>
      3f:	0f b7 05 40 50 00 00 	movzwl 0x5040,%eax
      46:	83 e8 01             	sub    $0x1,%eax
      49:	66 89 45 e6          	mov    %ax,-0x1a(%ebp)
      4d:	eb 06                	jmp    55 <SYSCALL_IRQ+0x25>
      4f:	66 c7 45 e6 1d 00    	movw   $0x1d,-0x1a(%ebp)
      55:	0f b7 45 e6          	movzwl -0x1a(%ebp),%eax
      59:	66 89 45 fa          	mov    %ax,-0x6(%ebp)
      5d:	0f b7 05 42 50 00 00 	movzwl 0x5042,%eax
      64:	66 39 45 fa          	cmp    %ax,-0x6(%ebp)
      68:	73 22                	jae    8c <SYSCALL_IRQ+0x5c>
      6a:	0f b7 45 fa          	movzwl -0x6(%ebp),%eax
      6e:	8b 14 85 60 50 00 00 	mov    0x5060(,%eax,4),%edx
      75:	8b 45 08             	mov    0x8(%ebp),%eax
      78:	89 44 24 04          	mov    %eax,0x4(%esp)
      7c:	89 14 24             	mov    %edx,(%esp)
      7f:	e8 ff 2b 00 00       	call   2c83 <strcmp>
      84:	85 c0                	test   %eax,%eax
      86:	0f 84 b1 00 00 00    	je     13d <SYSCALL_IRQ+0x10d>
      8c:	0f b7 05 40 50 00 00 	movzwl 0x5040,%eax
      93:	98                   	cwtl   
      94:	8b 04 85 60 50 00 00 	mov    0x5060(,%eax,4),%eax
      9b:	85 c0                	test   %eax,%eax
      9d:	74 17                	je     b6 <SYSCALL_IRQ+0x86>
      9f:	0f b7 05 40 50 00 00 	movzwl 0x5040,%eax
      a6:	98                   	cwtl   
      a7:	8b 04 85 60 50 00 00 	mov    0x5060(,%eax,4),%eax
      ae:	89 04 24             	mov    %eax,(%esp)
      b1:	e8 c9 12 00 00       	call   137f <free>
      b6:	0f b7 05 40 50 00 00 	movzwl 0x5040,%eax
      bd:	0f bf d0             	movswl %ax,%edx
      c0:	8b 45 08             	mov    0x8(%ebp),%eax
      c3:	89 04 95 60 50 00 00 	mov    %eax,0x5060(,%edx,4)
      ca:	0f b7 05 40 50 00 00 	movzwl 0x5040,%eax
      d1:	98                   	cwtl   
      d2:	8d 48 01             	lea    0x1(%eax),%ecx
      d5:	c7 45 e0 89 88 88 88 	movl   $0x88888889,-0x20(%ebp)
      dc:	8b 45 e0             	mov    -0x20(%ebp),%eax
      df:	f7 e9                	imul   %ecx
      e1:	8d 04 0a             	lea    (%edx,%ecx,1),%eax
      e4:	89 c2                	mov    %eax,%edx
      e6:	c1 fa 04             	sar    $0x4,%edx
      e9:	89 c8                	mov    %ecx,%eax
      eb:	c1 f8 1f             	sar    $0x1f,%eax
      ee:	89 d3                	mov    %edx,%ebx
      f0:	29 c3                	sub    %eax,%ebx
      f2:	89 5d e8             	mov    %ebx,-0x18(%ebp)
      f5:	8b 45 e8             	mov    -0x18(%ebp),%eax
      f8:	8d 14 00             	lea    (%eax,%eax,1),%edx
      fb:	89 d0                	mov    %edx,%eax
      fd:	c1 e0 04             	shl    $0x4,%eax
     100:	29 d0                	sub    %edx,%eax
     102:	89 ca                	mov    %ecx,%edx
     104:	29 c2                	sub    %eax,%edx
     106:	89 55 e8             	mov    %edx,-0x18(%ebp)
     109:	0f b7 45 e8          	movzwl -0x18(%ebp),%eax
     10d:	66 a3 40 50 00 00    	mov    %ax,0x5040
     113:	0f b7 05 40 50 00 00 	movzwl 0x5040,%eax
     11a:	66 a3 00 40 00 00    	mov    %ax,0x4000
     120:	0f b7 05 42 50 00 00 	movzwl 0x5042,%eax
     127:	66 83 f8 1d          	cmp    $0x1d,%ax
     12b:	77 10                	ja     13d <SYSCALL_IRQ+0x10d>
     12d:	0f b7 05 42 50 00 00 	movzwl 0x5042,%eax
     134:	83 c0 01             	add    $0x1,%eax
     137:	66 a3 42 50 00 00    	mov    %ax,0x5042
     13d:	83 c4 24             	add    $0x24,%esp
     140:	5b                   	pop    %ebx
     141:	5d                   	pop    %ebp
     142:	c3                   	ret    

00000143 <shell_histUp>:
     143:	55                   	push   %ebp
     144:	89 e5                	mov    %esp,%ebp
     146:	83 ec 04             	sub    $0x4,%esp
     149:	0f b7 05 42 50 00 00 	movzwl 0x5042,%eax
     150:	66 85 c0             	test   %ax,%ax
     153:	75 09                	jne    15e <shell_histUp+0x1b>
     155:	c7 45 fc 00 00 00 00 	movl   $0x0,-0x4(%ebp)
     15c:	eb 40                	jmp    19e <shell_histUp+0x5b>
     15e:	0f b7 05 00 40 00 00 	movzwl 0x4000,%eax
     165:	66 85 c0             	test   %ax,%ax
     168:	7e 12                	jle    17c <shell_histUp+0x39>
     16a:	0f b7 05 00 40 00 00 	movzwl 0x4000,%eax
     171:	83 e8 01             	sub    $0x1,%eax
     174:	66 a3 00 40 00 00    	mov    %ax,0x4000
     17a:	eb 10                	jmp    18c <shell_histUp+0x49>
     17c:	0f b7 05 42 50 00 00 	movzwl 0x5042,%eax
     183:	83 e8 01             	sub    $0x1,%eax
     186:	66 a3 00 40 00 00    	mov    %ax,0x4000
     18c:	0f b7 05 00 40 00 00 	movzwl 0x4000,%eax
     193:	98                   	cwtl   
     194:	8b 04 85 60 50 00 00 	mov    0x5060(,%eax,4),%eax
     19b:	89 45 fc             	mov    %eax,-0x4(%ebp)
     19e:	8b 45 fc             	mov    -0x4(%ebp),%eax
     1a1:	c9                   	leave  
     1a2:	c3                   	ret    

000001a3 <shell_histDown>:
     1a3:	55                   	push   %ebp
     1a4:	89 e5                	mov    %esp,%ebp
     1a6:	83 ec 04             	sub    $0x4,%esp
     1a9:	0f b7 05 42 50 00 00 	movzwl 0x5042,%eax
     1b0:	66 85 c0             	test   %ax,%ax
     1b3:	75 09                	jne    1be <shell_histDown+0x1b>
     1b5:	c7 45 fc 00 00 00 00 	movl   $0x0,-0x4(%ebp)
     1bc:	eb 5f                	jmp    21d <shell_histDown+0x7a>
     1be:	0f b7 05 00 40 00 00 	movzwl 0x4000,%eax
     1c5:	0f bf d0             	movswl %ax,%edx
     1c8:	0f b7 05 42 50 00 00 	movzwl 0x5042,%eax
     1cf:	0f b7 c0             	movzwl %ax,%eax
     1d2:	83 e8 01             	sub    $0x1,%eax
     1d5:	39 c2                	cmp    %eax,%edx
     1d7:	7d 12                	jge    1eb <shell_histDown+0x48>
     1d9:	0f b7 05 00 40 00 00 	movzwl 0x4000,%eax
     1e0:	83 c0 01             	add    $0x1,%eax
     1e3:	66 a3 00 40 00 00    	mov    %ax,0x4000
     1e9:	eb 20                	jmp    20b <shell_histDown+0x68>
     1eb:	0f b7 05 42 50 00 00 	movzwl 0x5042,%eax
     1f2:	0f b7 c0             	movzwl %ax,%eax
     1f5:	8d 50 ff             	lea    -0x1(%eax),%edx
     1f8:	85 d2                	test   %edx,%edx
     1fa:	0f 9f c0             	setg   %al
     1fd:	0f b6 c0             	movzbl %al,%eax
     200:	83 e8 01             	sub    $0x1,%eax
     203:	21 d0                	and    %edx,%eax
     205:	66 a3 00 40 00 00    	mov    %ax,0x4000
     20b:	0f b7 05 00 40 00 00 	movzwl 0x4000,%eax
     212:	98                   	cwtl   
     213:	8b 04 85 60 50 00 00 	mov    0x5060(,%eax,4),%eax
     21a:	89 45 fc             	mov    %eax,-0x4(%ebp)
     21d:	8b 45 fc             	mov    -0x4(%ebp),%eax
     220:	c9                   	leave  
     221:	c3                   	ret    

00000222 <shell_histPrint>:
     222:	55                   	push   %ebp
     223:	89 e5                	mov    %esp,%ebp
     225:	83 ec 28             	sub    $0x28,%esp
     228:	0f b7 05 42 50 00 00 	movzwl 0x5042,%eax
     22f:	0f b7 d0             	movzwl %ax,%edx
     232:	0f b7 05 00 40 00 00 	movzwl 0x4000,%eax
     239:	0f bf c8             	movswl %ax,%ecx
     23c:	0f b7 05 40 50 00 00 	movzwl 0x5040,%eax
     243:	98                   	cwtl   
     244:	89 54 24 0c          	mov    %edx,0xc(%esp)
     248:	89 4c 24 08          	mov    %ecx,0x8(%esp)
     24c:	89 44 24 04          	mov    %eax,0x4(%esp)
     250:	c7 04 24 88 40 00 00 	movl   $0x4088,(%esp)
     257:	e8 62 19 00 00       	call   1bbe <printf>
     25c:	c7 45 fc 00 00 00 00 	movl   $0x0,-0x4(%ebp)
     263:	eb 25                	jmp    28a <shell_histPrint+0x68>
     265:	8b 45 fc             	mov    -0x4(%ebp),%eax
     268:	8b 04 85 60 50 00 00 	mov    0x5060(,%eax,4),%eax
     26f:	89 44 24 08          	mov    %eax,0x8(%esp)
     273:	8b 45 fc             	mov    -0x4(%ebp),%eax
     276:	89 44 24 04          	mov    %eax,0x4(%esp)
     27a:	c7 04 24 ad 40 00 00 	movl   $0x40ad,(%esp)
     281:	e8 38 19 00 00       	call   1bbe <printf>
     286:	83 45 fc 01          	addl   $0x1,-0x4(%ebp)
     28a:	0f b7 05 42 50 00 00 	movzwl 0x5042,%eax
     291:	0f b7 c0             	movzwl %ax,%eax
     294:	3b 45 fc             	cmp    -0x4(%ebp),%eax
     297:	7f cc                	jg     265 <shell_histPrint+0x43>
     299:	c7 04 24 b5 40 00 00 	movl   $0x40b5,(%esp)
     2a0:	e8 19 19 00 00       	call   1bbe <printf>
     2a5:	c9                   	leave  
     2a6:	c3                   	ret    
	...

000002a8 <main>:
     2a8:	8d 4c 24 04          	lea    0x4(%esp),%ecx
     2ac:	83 e4 f0             	and    $0xfffffff0,%esp
     2af:	ff 71 fc             	pushl  -0x4(%ecx)
     2b2:	55                   	push   %ebp
     2b3:	89 e5                	mov    %esp,%ebp
     2b5:	51                   	push   %ecx
     2b6:	83 ec 24             	sub    $0x24,%esp
     2b9:	c7 04 24 d8 40 00 00 	movl   $0x40d8,(%esp)
     2c0:	e8 f9 18 00 00       	call   1bbe <printf>
     2c5:	c7 04 24 f7 40 00 00 	movl   $0x40f7,(%esp)
     2cc:	e8 ed 18 00 00       	call   1bbe <printf>
     2d1:	c7 04 24 fc 40 00 00 	movl   $0x40fc,(%esp)
     2d8:	e8 e1 18 00 00       	call   1bbe <printf>
     2dd:	c7 04 24 f7 40 00 00 	movl   $0x40f7,(%esp)
     2e4:	e8 d5 18 00 00       	call   1bbe <printf>
     2e9:	c7 04 24 29 00 00 00 	movl   $0x29,(%esp)
     2f0:	e8 51 0f 00 00       	call   1246 <malloc>
     2f5:	89 45 f8             	mov    %eax,-0x8(%ebp)
     2f8:	83 7d f8 00          	cmpl   $0x0,-0x8(%ebp)
     2fc:	75 1a                	jne    318 <main+0x70>
     2fe:	c7 04 24 27 41 00 00 	movl   $0x4127,(%esp)
     305:	e8 b4 18 00 00       	call   1bbe <printf>
     30a:	b8 01 00 00 00       	mov    $0x1,%eax
     30f:	83 c4 24             	add    $0x24,%esp
     312:	59                   	pop    %ecx
     313:	5d                   	pop    %ebp
     314:	8d 61 fc             	lea    -0x4(%ecx),%esp
     317:	c3                   	ret    
     318:	c7 04 24 3a 41 00 00 	movl   $0x413a,(%esp)
     31f:	e8 9a 18 00 00       	call   1bbe <printf>
     324:	c7 44 24 04 28 00 00 	movl   $0x28,0x4(%esp)
     32b:	00 
     32c:	8b 45 f8             	mov    -0x8(%ebp),%eax
     32f:	89 04 24             	mov    %eax,(%esp)
     332:	e8 18 00 00 00       	call   34f <shell_readLine>
     337:	8b 45 f8             	mov    -0x8(%ebp),%eax
     33a:	89 04 24             	mov    %eax,(%esp)
     33d:	e8 ea fc ff ff       	call   2c <shell_addToHistory>
     342:	8b 45 f8             	mov    -0x8(%ebp),%eax
     345:	89 04 24             	mov    %eax,(%esp)
     348:	e8 fa 04 00 00       	call   847 <shell_executeCmd>
     34d:	eb 9a                	jmp    2e9 <main+0x41>

0000034f <shell_readLine>:
     34f:	55                   	push   %ebp
     350:	89 e5                	mov    %esp,%ebp
     352:	83 ec 38             	sub    $0x38,%esp
     355:	8b 45 0c             	mov    0xc(%ebp),%eax
     358:	66 89 45 ec          	mov    %ax,-0x14(%ebp)
     35c:	66 c7 45 fa 00 00    	movw   $0x0,-0x6(%ebp)
     362:	66 c7 45 f8 00 00    	movw   $0x0,-0x8(%ebp)
     368:	e9 df 00 00 00       	jmp    44c <shell_readLine+0xfd>
     36d:	e8 62 15 00 00       	call   18d4 <readChar>
     372:	88 45 ff             	mov    %al,-0x1(%ebp)
     375:	0f be 55 ff          	movsbl -0x1(%ebp),%edx
     379:	8d 45 fd             	lea    -0x3(%ebp),%eax
     37c:	89 44 24 14          	mov    %eax,0x14(%esp)
     380:	8d 45 fe             	lea    -0x2(%ebp),%eax
     383:	89 44 24 10          	mov    %eax,0x10(%esp)
     387:	89 54 24 0c          	mov    %edx,0xc(%esp)
     38b:	8d 45 f8             	lea    -0x8(%ebp),%eax
     38e:	89 44 24 08          	mov    %eax,0x8(%esp)
     392:	8d 45 fa             	lea    -0x6(%ebp),%eax
     395:	89 44 24 04          	mov    %eax,0x4(%esp)
     399:	8b 45 08             	mov    0x8(%ebp),%eax
     39c:	89 04 24             	mov    %eax,(%esp)
     39f:	e8 2a 16 00 00       	call   19ce <handleDefaultEscapeCodes>
     3a4:	85 c0                	test   %eax,%eax
     3a6:	0f 85 a0 00 00 00    	jne    44c <shell_readLine+0xfd>
     3ac:	80 7d ff 1b          	cmpb   $0x1b,-0x1(%ebp)
     3b0:	75 31                	jne    3e3 <shell_readLine+0x94>
     3b2:	0f b6 45 fd          	movzbl -0x3(%ebp),%eax
     3b6:	0f b6 d0             	movzbl %al,%edx
     3b9:	0f b6 45 fe          	movzbl -0x2(%ebp),%eax
     3bd:	0f b6 c0             	movzbl %al,%eax
     3c0:	89 54 24 10          	mov    %edx,0x10(%esp)
     3c4:	89 44 24 0c          	mov    %eax,0xc(%esp)
     3c8:	8d 45 f8             	lea    -0x8(%ebp),%eax
     3cb:	89 44 24 08          	mov    %eax,0x8(%esp)
     3cf:	8d 45 fa             	lea    -0x6(%ebp),%eax
     3d2:	89 44 24 04          	mov    %eax,0x4(%esp)
     3d6:	8b 45 08             	mov    0x8(%ebp),%eax
     3d9:	89 04 24             	mov    %eax,(%esp)
     3dc:	e8 8c 00 00 00       	call   46d <shell_handleEscapeCodes>
     3e1:	eb 69                	jmp    44c <shell_readLine+0xfd>
     3e3:	80 7d ff 09          	cmpb   $0x9,-0x1(%ebp)
     3e7:	75 1b                	jne    404 <shell_readLine+0xb5>
     3e9:	8d 45 f8             	lea    -0x8(%ebp),%eax
     3ec:	89 44 24 08          	mov    %eax,0x8(%esp)
     3f0:	8d 45 fa             	lea    -0x6(%ebp),%eax
     3f3:	89 44 24 04          	mov    %eax,0x4(%esp)
     3f7:	8b 45 08             	mov    0x8(%ebp),%eax
     3fa:	89 04 24             	mov    %eax,(%esp)
     3fd:	e8 9f 01 00 00       	call   5a1 <shell_complete>
     402:	eb 48                	jmp    44c <shell_readLine+0xfd>
     404:	0f be 45 ff          	movsbl -0x1(%ebp),%eax
     408:	89 04 24             	mov    %eax,(%esp)
     40b:	e8 ae 1a 00 00       	call   1ebe <putchar>
     410:	e8 e6 1a 00 00       	call   1efb <flush>
     415:	80 7d ff 0a          	cmpb   $0xa,-0x1(%ebp)
     419:	74 3f                	je     45a <shell_readLine+0x10b>
     41b:	0f b7 4d fa          	movzwl -0x6(%ebp),%ecx
     41f:	0f b7 c1             	movzwl %cx,%eax
     422:	89 c2                	mov    %eax,%edx
     424:	03 55 08             	add    0x8(%ebp),%edx
     427:	0f b6 45 ff          	movzbl -0x1(%ebp),%eax
     42b:	88 02                	mov    %al,(%edx)
     42d:	8d 41 01             	lea    0x1(%ecx),%eax
     430:	66 89 45 fa          	mov    %ax,-0x6(%ebp)
     434:	0f b7 55 fa          	movzwl -0x6(%ebp),%edx
     438:	0f b7 45 f8          	movzwl -0x8(%ebp),%eax
     43c:	66 39 c2             	cmp    %ax,%dx
     43f:	76 0b                	jbe    44c <shell_readLine+0xfd>
     441:	0f b7 45 f8          	movzwl -0x8(%ebp),%eax
     445:	83 c0 01             	add    $0x1,%eax
     448:	66 89 45 f8          	mov    %ax,-0x8(%ebp)
     44c:	0f b7 45 f8          	movzwl -0x8(%ebp),%eax
     450:	66 3b 45 ec          	cmp    -0x14(%ebp),%ax
     454:	0f 82 13 ff ff ff    	jb     36d <shell_readLine+0x1e>
     45a:	0f b7 45 f8          	movzwl -0x8(%ebp),%eax
     45e:	0f b7 c0             	movzwl %ax,%eax
     461:	03 45 08             	add    0x8(%ebp),%eax
     464:	c6 00 00             	movb   $0x0,(%eax)
     467:	0f b7 45 f8          	movzwl -0x8(%ebp),%eax
     46b:	c9                   	leave  
     46c:	c3                   	ret    

0000046d <shell_handleEscapeCodes>:
     46d:	55                   	push   %ebp
     46e:	89 e5                	mov    %esp,%ebp
     470:	83 ec 38             	sub    $0x38,%esp
     473:	8b 45 14             	mov    0x14(%ebp),%eax
     476:	8b 55 18             	mov    0x18(%ebp),%edx
     479:	88 45 dc             	mov    %al,-0x24(%ebp)
     47c:	88 55 d8             	mov    %dl,-0x28(%ebp)
     47f:	c7 45 ec 00 00 00 00 	movl   $0x0,-0x14(%ebp)
     486:	c7 45 f0 00 00 00 00 	movl   $0x0,-0x10(%ebp)
     48d:	0f b6 45 dc          	movzbl -0x24(%ebp),%eax
     491:	89 45 d4             	mov    %eax,-0x2c(%ebp)
     494:	83 7d d4 53          	cmpl   $0x53,-0x2c(%ebp)
     498:	74 08                	je     4a2 <shell_handleEscapeCodes+0x35>
     49a:	83 7d d4 54          	cmpl   $0x54,-0x2c(%ebp)
     49e:	74 13                	je     4b3 <shell_handleEscapeCodes+0x46>
     4a0:	eb 20                	jmp    4c2 <shell_handleEscapeCodes+0x55>
     4a2:	e8 9c fc ff ff       	call   143 <shell_histUp>
     4a7:	89 45 f0             	mov    %eax,-0x10(%ebp)
     4aa:	c7 45 ec 01 00 00 00 	movl   $0x1,-0x14(%ebp)
     4b1:	eb 0f                	jmp    4c2 <shell_handleEscapeCodes+0x55>
     4b3:	e8 eb fc ff ff       	call   1a3 <shell_histDown>
     4b8:	89 45 f0             	mov    %eax,-0x10(%ebp)
     4bb:	c7 45 ec 01 00 00 00 	movl   $0x1,-0x14(%ebp)
     4c2:	83 7d f0 00          	cmpl   $0x0,-0x10(%ebp)
     4c6:	0f 84 d0 00 00 00    	je     59c <shell_handleEscapeCodes+0x12f>
     4cc:	8b 45 10             	mov    0x10(%ebp),%eax
     4cf:	0f b7 00             	movzwl (%eax),%eax
     4d2:	0f b7 c0             	movzwl %ax,%eax
     4d5:	89 45 f4             	mov    %eax,-0xc(%ebp)
     4d8:	8b 45 f0             	mov    -0x10(%ebp),%eax
     4db:	89 04 24             	mov    %eax,(%esp)
     4de:	e8 2e 2d 00 00       	call   3211 <strlen>
     4e3:	89 45 fc             	mov    %eax,-0x4(%ebp)
     4e6:	c7 04 24 1b 00 00 00 	movl   $0x1b,(%esp)
     4ed:	e8 cc 19 00 00       	call   1ebe <putchar>
     4f2:	c7 04 24 51 00 00 00 	movl   $0x51,(%esp)
     4f9:	e8 c0 19 00 00       	call   1ebe <putchar>
     4fe:	8b 45 10             	mov    0x10(%ebp),%eax
     501:	0f b7 00             	movzwl (%eax),%eax
     504:	89 c2                	mov    %eax,%edx
     506:	8b 45 0c             	mov    0xc(%ebp),%eax
     509:	0f b7 00             	movzwl (%eax),%eax
     50c:	89 d1                	mov    %edx,%ecx
     50e:	28 c1                	sub    %al,%cl
     510:	89 c8                	mov    %ecx,%eax
     512:	0f be c0             	movsbl %al,%eax
     515:	89 04 24             	mov    %eax,(%esp)
     518:	e8 a1 19 00 00       	call   1ebe <putchar>
     51d:	eb 0c                	jmp    52b <shell_handleEscapeCodes+0xbe>
     51f:	c7 04 24 08 00 00 00 	movl   $0x8,(%esp)
     526:	e8 93 19 00 00       	call   1ebe <putchar>
     52b:	83 7d f4 00          	cmpl   $0x0,-0xc(%ebp)
     52f:	0f 95 c0             	setne  %al
     532:	83 6d f4 01          	subl   $0x1,-0xc(%ebp)
     536:	84 c0                	test   %al,%al
     538:	75 e5                	jne    51f <shell_handleEscapeCodes+0xb2>
     53a:	8b 45 fc             	mov    -0x4(%ebp),%eax
     53d:	83 c0 01             	add    $0x1,%eax
     540:	89 44 24 08          	mov    %eax,0x8(%esp)
     544:	8b 45 f0             	mov    -0x10(%ebp),%eax
     547:	89 44 24 04          	mov    %eax,0x4(%esp)
     54b:	8b 45 08             	mov    0x8(%ebp),%eax
     54e:	89 04 24             	mov    %eax,(%esp)
     551:	e8 59 22 00 00       	call   27af <memcpy>
     556:	c7 45 f8 00 00 00 00 	movl   $0x0,-0x8(%ebp)
     55d:	eb 1a                	jmp    579 <shell_handleEscapeCodes+0x10c>
     55f:	8b 55 f8             	mov    -0x8(%ebp),%edx
     562:	8b 45 08             	mov    0x8(%ebp),%eax
     565:	01 d0                	add    %edx,%eax
     567:	0f b6 00             	movzbl (%eax),%eax
     56a:	0f be c0             	movsbl %al,%eax
     56d:	89 04 24             	mov    %eax,(%esp)
     570:	e8 49 19 00 00       	call   1ebe <putchar>
     575:	83 45 f8 01          	addl   $0x1,-0x8(%ebp)
     579:	8b 45 f8             	mov    -0x8(%ebp),%eax
     57c:	3b 45 fc             	cmp    -0x4(%ebp),%eax
     57f:	72 de                	jb     55f <shell_handleEscapeCodes+0xf2>
     581:	e8 75 19 00 00       	call   1efb <flush>
     586:	8b 45 fc             	mov    -0x4(%ebp),%eax
     589:	89 c2                	mov    %eax,%edx
     58b:	8b 45 0c             	mov    0xc(%ebp),%eax
     58e:	66 89 10             	mov    %dx,(%eax)
     591:	8b 45 fc             	mov    -0x4(%ebp),%eax
     594:	89 c2                	mov    %eax,%edx
     596:	8b 45 10             	mov    0x10(%ebp),%eax
     599:	66 89 10             	mov    %dx,(%eax)
     59c:	8b 45 ec             	mov    -0x14(%ebp),%eax
     59f:	c9                   	leave  
     5a0:	c3                   	ret    

000005a1 <shell_complete>:
     5a1:	55                   	push   %ebp
     5a2:	89 e5                	mov    %esp,%ebp
     5a4:	83 ec 38             	sub    $0x38,%esp
     5a7:	8b 45 0c             	mov    0xc(%ebp),%eax
     5aa:	0f b7 00             	movzwl (%eax),%eax
     5ad:	66 89 45 ea          	mov    %ax,-0x16(%ebp)
     5b1:	8b 45 10             	mov    0x10(%ebp),%eax
     5b4:	0f b7 00             	movzwl (%eax),%eax
     5b7:	0f b7 c0             	movzwl %ax,%eax
     5ba:	89 45 f0             	mov    %eax,-0x10(%ebp)
     5bd:	0f b7 45 ea          	movzwl -0x16(%ebp),%eax
     5c1:	3b 45 f0             	cmp    -0x10(%ebp),%eax
     5c4:	0f 85 b4 01 00 00    	jne    77e <shell_complete+0x1dd>
     5ca:	c7 45 f4 ff ff ff ff 	movl   $0xffffffff,-0xc(%ebp)
     5d1:	c7 45 f8 00 00 00 00 	movl   $0x0,-0x8(%ebp)
     5d8:	c7 45 e4 00 00 00 00 	movl   $0x0,-0x1c(%ebp)
     5df:	eb 4f                	jmp    630 <shell_complete+0x8f>
     5e1:	8b 45 e4             	mov    -0x1c(%ebp),%eax
     5e4:	8b 04 c5 20 40 00 00 	mov    0x4020(,%eax,8),%eax
     5eb:	89 04 24             	mov    %eax,(%esp)
     5ee:	e8 1e 2c 00 00       	call   3211 <strlen>
     5f3:	89 45 ec             	mov    %eax,-0x14(%ebp)
     5f6:	8b 45 f0             	mov    -0x10(%ebp),%eax
     5f9:	3b 45 ec             	cmp    -0x14(%ebp),%eax
     5fc:	73 2e                	jae    62c <shell_complete+0x8b>
     5fe:	8b 45 e4             	mov    -0x1c(%ebp),%eax
     601:	8b 14 c5 20 40 00 00 	mov    0x4020(,%eax,8),%edx
     608:	8b 45 f0             	mov    -0x10(%ebp),%eax
     60b:	89 44 24 08          	mov    %eax,0x8(%esp)
     60f:	89 54 24 04          	mov    %edx,0x4(%esp)
     613:	8b 45 08             	mov    0x8(%ebp),%eax
     616:	89 04 24             	mov    %eax,(%esp)
     619:	e8 6b 27 00 00       	call   2d89 <strncmp>
     61e:	85 c0                	test   %eax,%eax
     620:	75 0a                	jne    62c <shell_complete+0x8b>
     622:	83 45 f8 01          	addl   $0x1,-0x8(%ebp)
     626:	8b 45 e4             	mov    -0x1c(%ebp),%eax
     629:	89 45 f4             	mov    %eax,-0xc(%ebp)
     62c:	83 45 e4 01          	addl   $0x1,-0x1c(%ebp)
     630:	8b 45 e4             	mov    -0x1c(%ebp),%eax
     633:	83 f8 05             	cmp    $0x5,%eax
     636:	76 a9                	jbe    5e1 <shell_complete+0x40>
     638:	83 7d f8 01          	cmpl   $0x1,-0x8(%ebp)
     63c:	75 71                	jne    6af <shell_complete+0x10e>
     63e:	8b 45 f4             	mov    -0xc(%ebp),%eax
     641:	8b 04 c5 20 40 00 00 	mov    0x4020(,%eax,8),%eax
     648:	89 04 24             	mov    %eax,(%esp)
     64b:	e8 c1 2b 00 00       	call   3211 <strlen>
     650:	89 45 ec             	mov    %eax,-0x14(%ebp)
     653:	eb 32                	jmp    687 <shell_complete+0xe6>
     655:	8b 45 f4             	mov    -0xc(%ebp),%eax
     658:	8b 04 c5 20 40 00 00 	mov    0x4020(,%eax,8),%eax
     65f:	03 45 f0             	add    -0x10(%ebp),%eax
     662:	0f b6 00             	movzbl (%eax),%eax
     665:	88 45 ff             	mov    %al,-0x1(%ebp)
     668:	8b 55 f0             	mov    -0x10(%ebp),%edx
     66b:	8b 45 08             	mov    0x8(%ebp),%eax
     66e:	8d 14 10             	lea    (%eax,%edx,1),%edx
     671:	0f b6 45 ff          	movzbl -0x1(%ebp),%eax
     675:	88 02                	mov    %al,(%edx)
     677:	0f be 45 ff          	movsbl -0x1(%ebp),%eax
     67b:	89 04 24             	mov    %eax,(%esp)
     67e:	e8 3b 18 00 00       	call   1ebe <putchar>
     683:	83 45 f0 01          	addl   $0x1,-0x10(%ebp)
     687:	8b 45 f0             	mov    -0x10(%ebp),%eax
     68a:	3b 45 ec             	cmp    -0x14(%ebp),%eax
     68d:	72 c6                	jb     655 <shell_complete+0xb4>
     68f:	8b 45 f0             	mov    -0x10(%ebp),%eax
     692:	89 c2                	mov    %eax,%edx
     694:	8b 45 10             	mov    0x10(%ebp),%eax
     697:	66 89 10             	mov    %dx,(%eax)
     69a:	8b 45 f0             	mov    -0x10(%ebp),%eax
     69d:	89 c2                	mov    %eax,%edx
     69f:	8b 45 0c             	mov    0xc(%ebp),%eax
     6a2:	66 89 10             	mov    %dx,(%eax)
     6a5:	e8 51 18 00 00       	call   1efb <flush>
     6aa:	e9 cf 00 00 00       	jmp    77e <shell_complete+0x1dd>
     6af:	83 7d f8 01          	cmpl   $0x1,-0x8(%ebp)
     6b3:	0f 86 c5 00 00 00    	jbe    77e <shell_complete+0x1dd>
     6b9:	a1 e0 50 00 00       	mov    0x50e0,%eax
     6be:	85 c0                	test   %eax,%eax
     6c0:	75 23                	jne    6e5 <shell_complete+0x144>
     6c2:	a1 e0 50 00 00       	mov    0x50e0,%eax
     6c7:	83 c0 01             	add    $0x1,%eax
     6ca:	a3 e0 50 00 00       	mov    %eax,0x50e0
     6cf:	c7 04 24 07 00 00 00 	movl   $0x7,(%esp)
     6d6:	e8 e3 17 00 00       	call   1ebe <putchar>
     6db:	e8 1b 18 00 00       	call   1efb <flush>
     6e0:	e9 99 00 00 00       	jmp    77e <shell_complete+0x1dd>
     6e5:	c7 05 e0 50 00 00 00 	movl   $0x0,0x50e0
     6ec:	00 00 00 
     6ef:	c7 04 24 f7 40 00 00 	movl   $0x40f7,(%esp)
     6f6:	e8 c3 14 00 00       	call   1bbe <printf>
     6fb:	c7 45 e4 00 00 00 00 	movl   $0x0,-0x1c(%ebp)
     702:	eb 5f                	jmp    763 <shell_complete+0x1c2>
     704:	8b 45 e4             	mov    -0x1c(%ebp),%eax
     707:	8b 04 c5 20 40 00 00 	mov    0x4020(,%eax,8),%eax
     70e:	89 04 24             	mov    %eax,(%esp)
     711:	e8 fb 2a 00 00       	call   3211 <strlen>
     716:	89 45 ec             	mov    %eax,-0x14(%ebp)
     719:	8b 45 f0             	mov    -0x10(%ebp),%eax
     71c:	3b 45 ec             	cmp    -0x14(%ebp),%eax
     71f:	73 3e                	jae    75f <shell_complete+0x1be>
     721:	8b 45 e4             	mov    -0x1c(%ebp),%eax
     724:	8b 14 c5 20 40 00 00 	mov    0x4020(,%eax,8),%edx
     72b:	8b 45 f0             	mov    -0x10(%ebp),%eax
     72e:	89 44 24 08          	mov    %eax,0x8(%esp)
     732:	89 54 24 04          	mov    %edx,0x4(%esp)
     736:	8b 45 08             	mov    0x8(%ebp),%eax
     739:	89 04 24             	mov    %eax,(%esp)
     73c:	e8 48 26 00 00       	call   2d89 <strncmp>
     741:	85 c0                	test   %eax,%eax
     743:	75 1a                	jne    75f <shell_complete+0x1be>
     745:	8b 45 e4             	mov    -0x1c(%ebp),%eax
     748:	8b 04 c5 20 40 00 00 	mov    0x4020(,%eax,8),%eax
     74f:	89 44 24 04          	mov    %eax,0x4(%esp)
     753:	c7 04 24 3d 41 00 00 	movl   $0x413d,(%esp)
     75a:	e8 5f 14 00 00       	call   1bbe <printf>
     75f:	83 45 e4 01          	addl   $0x1,-0x1c(%ebp)
     763:	8b 45 e4             	mov    -0x1c(%ebp),%eax
     766:	83 f8 05             	cmp    $0x5,%eax
     769:	76 99                	jbe    704 <shell_complete+0x163>
     76b:	8b 45 08             	mov    0x8(%ebp),%eax
     76e:	89 44 24 04          	mov    %eax,0x4(%esp)
     772:	c7 04 24 41 41 00 00 	movl   $0x4141,(%esp)
     779:	e8 40 14 00 00       	call   1bbe <printf>
     77e:	c9                   	leave  
     77f:	c3                   	ret    

00000780 <shell_getCmd>:
     780:	55                   	push   %ebp
     781:	89 e5                	mov    %esp,%ebp
     783:	83 ec 28             	sub    $0x28,%esp
     786:	c7 44 24 04 20 00 00 	movl   $0x20,0x4(%esp)
     78d:	00 
     78e:	8b 45 08             	mov    0x8(%ebp),%eax
     791:	89 04 24             	mov    %eax,(%esp)
     794:	e8 40 27 00 00       	call   2ed9 <strchri>
     799:	89 45 f4             	mov    %eax,-0xc(%ebp)
     79c:	c7 45 f0 00 00 00 00 	movl   $0x0,-0x10(%ebp)
     7a3:	eb 55                	jmp    7fa <shell_getCmd+0x7a>
     7a5:	8b 45 f0             	mov    -0x10(%ebp),%eax
     7a8:	8b 04 c5 20 40 00 00 	mov    0x4020(,%eax,8),%eax
     7af:	89 04 24             	mov    %eax,(%esp)
     7b2:	e8 5a 2a 00 00       	call   3211 <strlen>
     7b7:	89 45 f8             	mov    %eax,-0x8(%ebp)
     7ba:	8b 45 f4             	mov    -0xc(%ebp),%eax
     7bd:	3b 45 f8             	cmp    -0x8(%ebp),%eax
     7c0:	75 34                	jne    7f6 <shell_getCmd+0x76>
     7c2:	8b 45 f0             	mov    -0x10(%ebp),%eax
     7c5:	8b 14 c5 20 40 00 00 	mov    0x4020(,%eax,8),%edx
     7cc:	8b 45 f8             	mov    -0x8(%ebp),%eax
     7cf:	89 44 24 08          	mov    %eax,0x8(%esp)
     7d3:	89 54 24 04          	mov    %edx,0x4(%esp)
     7d7:	8b 45 08             	mov    0x8(%ebp),%eax
     7da:	89 04 24             	mov    %eax,(%esp)
     7dd:	e8 a7 25 00 00       	call   2d89 <strncmp>
     7e2:	85 c0                	test   %eax,%eax
     7e4:	75 10                	jne    7f6 <shell_getCmd+0x76>
     7e6:	8b 45 f0             	mov    -0x10(%ebp),%eax
     7e9:	c1 e0 03             	shl    $0x3,%eax
     7ec:	05 20 40 00 00       	add    $0x4020,%eax
     7f1:	89 45 ec             	mov    %eax,-0x14(%ebp)
     7f4:	eb 4c                	jmp    842 <shell_getCmd+0xc2>
     7f6:	83 45 f0 01          	addl   $0x1,-0x10(%ebp)
     7fa:	83 7d f0 05          	cmpl   $0x5,-0x10(%ebp)
     7fe:	76 a5                	jbe    7a5 <shell_getCmd+0x25>
     800:	8b 55 f4             	mov    -0xc(%ebp),%edx
     803:	8b 45 08             	mov    0x8(%ebp),%eax
     806:	01 d0                	add    %edx,%eax
     808:	0f b6 00             	movzbl (%eax),%eax
     80b:	88 45 ff             	mov    %al,-0x1(%ebp)
     80e:	8b 55 f4             	mov    -0xc(%ebp),%edx
     811:	8b 45 08             	mov    0x8(%ebp),%eax
     814:	01 d0                	add    %edx,%eax
     816:	c6 00 00             	movb   $0x0,(%eax)
     819:	8b 45 08             	mov    0x8(%ebp),%eax
     81c:	89 44 24 04          	mov    %eax,0x4(%esp)
     820:	c7 04 24 47 41 00 00 	movl   $0x4147,(%esp)
     827:	e8 92 13 00 00       	call   1bbe <printf>
     82c:	8b 55 f4             	mov    -0xc(%ebp),%edx
     82f:	8b 45 08             	mov    0x8(%ebp),%eax
     832:	8d 14 10             	lea    (%eax,%edx,1),%edx
     835:	0f b6 45 ff          	movzbl -0x1(%ebp),%eax
     839:	88 02                	mov    %al,(%edx)
     83b:	c7 45 ec 00 00 00 00 	movl   $0x0,-0x14(%ebp)
     842:	8b 45 ec             	mov    -0x14(%ebp),%eax
     845:	c9                   	leave  
     846:	c3                   	ret    

00000847 <shell_executeCmd>:
     847:	55                   	push   %ebp
     848:	89 e5                	mov    %esp,%ebp
     84a:	83 ec 38             	sub    $0x38,%esp
     84d:	8b 45 08             	mov    0x8(%ebp),%eax
     850:	89 04 24             	mov    %eax,(%esp)
     853:	e8 28 ff ff ff       	call   780 <shell_getCmd>
     858:	89 45 e4             	mov    %eax,-0x1c(%ebp)
     85b:	83 7d e4 00          	cmpl   $0x0,-0x1c(%ebp)
     85f:	75 0c                	jne    86d <shell_executeCmd+0x26>
     861:	c7 45 dc ff ff ff ff 	movl   $0xffffffff,-0x24(%ebp)
     868:	e9 f5 00 00 00       	jmp    962 <shell_executeCmd+0x11b>
     86d:	8b 45 08             	mov    0x8(%ebp),%eax
     870:	89 04 24             	mov    %eax,(%esp)
     873:	e8 99 29 00 00       	call   3211 <strlen>
     878:	89 45 ec             	mov    %eax,-0x14(%ebp)
     87b:	c7 45 f0 00 00 00 00 	movl   $0x0,-0x10(%ebp)
     882:	c7 45 f4 00 00 00 00 	movl   $0x0,-0xc(%ebp)
     889:	c7 45 e8 00 00 00 00 	movl   $0x0,-0x18(%ebp)
     890:	eb 7d                	jmp    90f <shell_executeCmd+0xc8>
     892:	8b 55 f4             	mov    -0xc(%ebp),%edx
     895:	8b 45 08             	mov    0x8(%ebp),%eax
     898:	01 d0                	add    %edx,%eax
     89a:	c7 44 24 04 20 00 00 	movl   $0x20,0x4(%esp)
     8a1:	00 
     8a2:	89 04 24             	mov    %eax,(%esp)
     8a5:	e8 2f 26 00 00       	call   2ed9 <strchri>
     8aa:	89 45 f0             	mov    %eax,-0x10(%ebp)
     8ad:	8b 45 f0             	mov    -0x10(%ebp),%eax
     8b0:	83 c0 01             	add    $0x1,%eax
     8b3:	89 04 24             	mov    %eax,(%esp)
     8b6:	e8 8b 09 00 00       	call   1246 <malloc>
     8bb:	89 45 fc             	mov    %eax,-0x4(%ebp)
     8be:	83 7d fc 00          	cmpl   $0x0,-0x4(%ebp)
     8c2:	74 55                	je     919 <shell_executeCmd+0xd2>
     8c4:	8b 55 f4             	mov    -0xc(%ebp),%edx
     8c7:	8b 45 08             	mov    0x8(%ebp),%eax
     8ca:	8d 14 10             	lea    (%eax,%edx,1),%edx
     8cd:	8b 45 f0             	mov    -0x10(%ebp),%eax
     8d0:	89 44 24 08          	mov    %eax,0x8(%esp)
     8d4:	89 54 24 04          	mov    %edx,0x4(%esp)
     8d8:	8b 45 fc             	mov    -0x4(%ebp),%eax
     8db:	89 04 24             	mov    %eax,(%esp)
     8de:	e8 74 21 00 00       	call   2a57 <strncpy>
     8e3:	8b 55 e8             	mov    -0x18(%ebp),%edx
     8e6:	8b 45 fc             	mov    -0x4(%ebp),%eax
     8e9:	89 04 95 00 51 00 00 	mov    %eax,0x5100(,%edx,4)
     8f0:	83 45 e8 01          	addl   $0x1,-0x18(%ebp)
     8f4:	8b 55 f0             	mov    -0x10(%ebp),%edx
     8f7:	8b 45 f4             	mov    -0xc(%ebp),%eax
     8fa:	01 d0                	add    %edx,%eax
     8fc:	3b 45 ec             	cmp    -0x14(%ebp),%eax
     8ff:	74 18                	je     919 <shell_executeCmd+0xd2>
     901:	8b 55 f4             	mov    -0xc(%ebp),%edx
     904:	8b 45 f0             	mov    -0x10(%ebp),%eax
     907:	01 d0                	add    %edx,%eax
     909:	83 c0 01             	add    $0x1,%eax
     90c:	89 45 f4             	mov    %eax,-0xc(%ebp)
     90f:	83 7d e8 09          	cmpl   $0x9,-0x18(%ebp)
     913:	0f 86 79 ff ff ff    	jbe    892 <shell_executeCmd+0x4b>
     919:	8b 45 e4             	mov    -0x1c(%ebp),%eax
     91c:	8b 50 04             	mov    0x4(%eax),%edx
     91f:	c7 44 24 04 00 51 00 	movl   $0x5100,0x4(%esp)
     926:	00 
     927:	8b 45 e8             	mov    -0x18(%ebp),%eax
     92a:	89 04 24             	mov    %eax,(%esp)
     92d:	ff d2                	call   *%edx
     92f:	89 45 f8             	mov    %eax,-0x8(%ebp)
     932:	8b 45 e8             	mov    -0x18(%ebp),%eax
     935:	8b 04 85 00 51 00 00 	mov    0x5100(,%eax,4),%eax
     93c:	89 04 24             	mov    %eax,(%esp)
     93f:	e8 3b 0a 00 00       	call   137f <free>
     944:	8b 45 e8             	mov    -0x18(%ebp),%eax
     947:	c7 04 85 00 51 00 00 	movl   $0x0,0x5100(,%eax,4)
     94e:	00 00 00 00 
     952:	83 6d e8 01          	subl   $0x1,-0x18(%ebp)
     956:	83 7d e8 00          	cmpl   $0x0,-0x18(%ebp)
     95a:	75 d6                	jne    932 <shell_executeCmd+0xeb>
     95c:	8b 45 f8             	mov    -0x8(%ebp),%eax
     95f:	89 45 dc             	mov    %eax,-0x24(%ebp)
     962:	8b 45 dc             	mov    -0x24(%ebp),%eax
     965:	c9                   	leave  
     966:	c3                   	ret    

00000967 <shell_cmdHelp>:
     967:	55                   	push   %ebp
     968:	89 e5                	mov    %esp,%ebp
     96a:	83 ec 18             	sub    $0x18,%esp
     96d:	c7 04 24 60 41 00 00 	movl   $0x4160,(%esp)
     974:	e8 45 12 00 00       	call   1bbe <printf>
     979:	c7 45 fc 00 00 00 00 	movl   $0x0,-0x4(%ebp)
     980:	eb 1e                	jmp    9a0 <shell_cmdHelp+0x39>
     982:	8b 45 fc             	mov    -0x4(%ebp),%eax
     985:	8b 04 c5 20 40 00 00 	mov    0x4020(,%eax,8),%eax
     98c:	89 44 24 04          	mov    %eax,0x4(%esp)
     990:	c7 04 24 8f 41 00 00 	movl   $0x418f,(%esp)
     997:	e8 22 12 00 00       	call   1bbe <printf>
     99c:	83 45 fc 01          	addl   $0x1,-0x4(%ebp)
     9a0:	83 7d fc 05          	cmpl   $0x5,-0x4(%ebp)
     9a4:	76 dc                	jbe    982 <shell_cmdHelp+0x1b>
     9a6:	c7 04 24 f7 40 00 00 	movl   $0x40f7,(%esp)
     9ad:	e8 0c 12 00 00       	call   1bbe <printf>
     9b2:	c7 04 24 94 41 00 00 	movl   $0x4194,(%esp)
     9b9:	e8 00 12 00 00       	call   1bbe <printf>
     9be:	c7 04 24 f7 40 00 00 	movl   $0x40f7,(%esp)
     9c5:	e8 f4 11 00 00       	call   1bbe <printf>
     9ca:	b8 00 00 00 00       	mov    $0x0,%eax
     9cf:	c9                   	leave  
     9d0:	c3                   	ret    
     9d1:	00 00                	add    %al,(%eax)
	...

000009d4 <shell_cmdAta>:
     9d4:	55                   	push   %ebp
     9d5:	89 e5                	mov    %esp,%ebp
     9d7:	83 ec 48             	sub    $0x48,%esp
     9da:	c6 45 e2 00          	movb   $0x0,-0x1e(%ebp)
     9de:	c7 45 e6 10 00 00 00 	movl   $0x10,-0x1a(%ebp)
     9e5:	c6 45 ea 00          	movb   $0x0,-0x16(%ebp)
     9e9:	c7 45 ee 00 00 00 00 	movl   $0x0,-0x12(%ebp)
     9f0:	c7 45 f2 00 00 00 00 	movl   $0x0,-0xe(%ebp)
     9f7:	66 c7 45 f6 04 00    	movw   $0x4,-0xa(%ebp)
     9fd:	c7 44 24 04 03 00 00 	movl   $0x3,0x4(%esp)
     a04:	00 
     a05:	c7 04 24 e5 41 00 00 	movl   $0x41e5,(%esp)
     a0c:	e8 06 19 00 00       	call   2317 <open>
     a11:	66 89 45 fa          	mov    %ax,-0x6(%ebp)
     a15:	0f b7 55 fa          	movzwl -0x6(%ebp),%edx
     a19:	c7 44 24 08 18 00 00 	movl   $0x18,0x8(%esp)
     a20:	00 
     a21:	8d 45 e2             	lea    -0x1e(%ebp),%eax
     a24:	89 44 24 04          	mov    %eax,0x4(%esp)
     a28:	89 14 24             	mov    %edx,(%esp)
     a2b:	e8 4b 19 00 00       	call   237b <write>
     a30:	e8 a5 1a 00 00       	call   24da <sleep>
     a35:	0f b7 45 fa          	movzwl -0x6(%ebp),%eax
     a39:	c7 44 24 08 08 00 00 	movl   $0x8,0x8(%esp)
     a40:	00 
     a41:	8d 55 d8             	lea    -0x28(%ebp),%edx
     a44:	89 54 24 04          	mov    %edx,0x4(%esp)
     a48:	89 04 24             	mov    %eax,(%esp)
     a4b:	e8 f7 18 00 00       	call   2347 <read>
     a50:	85 c0                	test   %eax,%eax
     a52:	7e dc                	jle    a30 <shell_cmdAta+0x5c>
     a54:	8b 45 dc             	mov    -0x24(%ebp),%eax
     a57:	01 c0                	add    %eax,%eax
     a59:	89 04 24             	mov    %eax,(%esp)
     a5c:	e8 e5 07 00 00       	call   1246 <malloc>
     a61:	89 45 fc             	mov    %eax,-0x4(%ebp)
     a64:	8b 45 dc             	mov    -0x24(%ebp),%eax
     a67:	0f b7 55 fa          	movzwl -0x6(%ebp),%edx
     a6b:	89 44 24 08          	mov    %eax,0x8(%esp)
     a6f:	8b 45 fc             	mov    -0x4(%ebp),%eax
     a72:	89 44 24 04          	mov    %eax,0x4(%esp)
     a76:	89 14 24             	mov    %edx,(%esp)
     a79:	e8 c9 18 00 00       	call   2347 <read>
     a7e:	8b 45 dc             	mov    -0x24(%ebp),%eax
     a81:	89 44 24 04          	mov    %eax,0x4(%esp)
     a85:	8b 45 fc             	mov    -0x4(%ebp),%eax
     a88:	89 04 24             	mov    %eax,(%esp)
     a8b:	e8 d4 03 00 00       	call   e64 <dumpBytes>
     a90:	8b 45 fc             	mov    -0x4(%ebp),%eax
     a93:	89 04 24             	mov    %eax,(%esp)
     a96:	e8 e4 08 00 00       	call   137f <free>
     a9b:	0f b7 45 fa          	movzwl -0x6(%ebp),%eax
     a9f:	89 04 24             	mov    %eax,(%esp)
     aa2:	e8 5e 19 00 00       	call   2405 <close>
     aa7:	b8 00 00 00 00       	mov    $0x0,%eax
     aac:	c9                   	leave  
     aad:	c3                   	ret    
	...

00000ab0 <shell_cmdEcho>:
     ab0:	55                   	push   %ebp
     ab1:	89 e5                	mov    %esp,%ebp
     ab3:	83 ec 18             	sub    $0x18,%esp
     ab6:	c7 45 fc 01 00 00 00 	movl   $0x1,-0x4(%ebp)
     abd:	eb 1f                	jmp    ade <shell_cmdEcho+0x2e>
     abf:	8b 45 fc             	mov    -0x4(%ebp),%eax
     ac2:	c1 e0 02             	shl    $0x2,%eax
     ac5:	03 45 0c             	add    0xc(%ebp),%eax
     ac8:	8b 00                	mov    (%eax),%eax
     aca:	89 44 24 04          	mov    %eax,0x4(%esp)
     ace:	c7 04 24 f3 41 00 00 	movl   $0x41f3,(%esp)
     ad5:	e8 e4 10 00 00       	call   1bbe <printf>
     ada:	83 45 fc 01          	addl   $0x1,-0x4(%ebp)
     ade:	8b 45 fc             	mov    -0x4(%ebp),%eax
     ae1:	3b 45 08             	cmp    0x8(%ebp),%eax
     ae4:	72 d9                	jb     abf <shell_cmdEcho+0xf>
     ae6:	c7 04 24 f7 41 00 00 	movl   $0x41f7,(%esp)
     aed:	e8 cc 10 00 00       	call   1bbe <printf>
     af2:	b8 00 00 00 00       	mov    $0x0,%eax
     af7:	c9                   	leave  
     af8:	c3                   	ret    
     af9:	00 00                	add    %al,(%eax)
	...

00000afc <shell_cmdMemUsage>:
     afc:	55                   	push   %ebp
     afd:	89 e5                	mov    %esp,%ebp
     aff:	83 ec 28             	sub    $0x28,%esp
     b02:	c7 44 24 04 01 00 00 	movl   $0x1,0x4(%esp)
     b09:	00 
     b0a:	c7 04 24 fc 41 00 00 	movl   $0x41fc,(%esp)
     b11:	e8 01 18 00 00       	call   2317 <open>
     b16:	89 45 fc             	mov    %eax,-0x4(%ebp)
     b19:	83 7d fc 00          	cmpl   $0x0,-0x4(%ebp)
     b1d:	79 15                	jns    b34 <shell_cmdMemUsage+0x38>
     b1f:	c7 04 24 10 42 00 00 	movl   $0x4210,(%esp)
     b26:	e8 93 10 00 00       	call   1bbe <printf>
     b2b:	c7 45 ec 01 00 00 00 	movl   $0x1,-0x14(%ebp)
     b32:	eb 7d                	jmp    bb1 <shell_cmdMemUsage+0xb5>
     b34:	8b 45 fc             	mov    -0x4(%ebp),%eax
     b37:	0f b7 d0             	movzwl %ax,%edx
     b3a:	c7 44 24 08 08 00 00 	movl   $0x8,0x8(%esp)
     b41:	00 
     b42:	8d 45 f4             	lea    -0xc(%ebp),%eax
     b45:	89 44 24 04          	mov    %eax,0x4(%esp)
     b49:	89 14 24             	mov    %edx,(%esp)
     b4c:	e8 f6 17 00 00       	call   2347 <read>
     b51:	8b 45 f4             	mov    -0xc(%ebp),%eax
     b54:	c1 e8 0a             	shr    $0xa,%eax
     b57:	89 44 24 04          	mov    %eax,0x4(%esp)
     b5b:	c7 04 24 33 42 00 00 	movl   $0x4233,(%esp)
     b62:	e8 57 10 00 00       	call   1bbe <printf>
     b67:	8b 55 f4             	mov    -0xc(%ebp),%edx
     b6a:	8b 45 f8             	mov    -0x8(%ebp),%eax
     b6d:	89 d1                	mov    %edx,%ecx
     b6f:	29 c1                	sub    %eax,%ecx
     b71:	89 c8                	mov    %ecx,%eax
     b73:	c1 e8 0a             	shr    $0xa,%eax
     b76:	89 44 24 04          	mov    %eax,0x4(%esp)
     b7a:	c7 04 24 4b 42 00 00 	movl   $0x424b,(%esp)
     b81:	e8 38 10 00 00       	call   1bbe <printf>
     b86:	8b 45 f8             	mov    -0x8(%ebp),%eax
     b89:	c1 e8 0a             	shr    $0xa,%eax
     b8c:	89 44 24 04          	mov    %eax,0x4(%esp)
     b90:	c7 04 24 62 42 00 00 	movl   $0x4262,(%esp)
     b97:	e8 22 10 00 00       	call   1bbe <printf>
     b9c:	8b 45 fc             	mov    -0x4(%ebp),%eax
     b9f:	0f b7 c0             	movzwl %ax,%eax
     ba2:	89 04 24             	mov    %eax,(%esp)
     ba5:	e8 5b 18 00 00       	call   2405 <close>
     baa:	c7 45 ec 00 00 00 00 	movl   $0x0,-0x14(%ebp)
     bb1:	8b 45 ec             	mov    -0x14(%ebp),%eax
     bb4:	c9                   	leave  
     bb5:	c3                   	ret    
	...

00000bb8 <shell_cmdPs>:
     bb8:	55                   	push   %ebp
     bb9:	89 e5                	mov    %esp,%ebp
     bbb:	81 ec 68 01 00 00    	sub    $0x168,%esp
     bc1:	c7 45 b5 73 79 73 74 	movl   $0x74737973,-0x4b(%ebp)
     bc8:	c7 45 b9 65 6d 3a 2f 	movl   $0x2f3a6d65,-0x47(%ebp)
     bcf:	c7 45 bd 70 72 6f 63 	movl   $0x636f7270,-0x43(%ebp)
     bd6:	c7 45 c1 65 73 73 65 	movl   $0x65737365,-0x3f(%ebp)
     bdd:	66 c7 45 c5 73 2f    	movw   $0x2f73,-0x3b(%ebp)
     be3:	c6 45 c7 00          	movb   $0x0,-0x39(%ebp)
     be7:	c7 04 24 a4 42 00 00 	movl   $0x42a4,(%esp)
     bee:	e8 cb 0f 00 00       	call   1bbe <printf>
     bf3:	8d 45 b5             	lea    -0x4b(%ebp),%eax
     bf6:	89 04 24             	mov    %eax,(%esp)
     bf9:	e8 aa 05 00 00       	call   11a8 <opendir>
     bfe:	89 45 f4             	mov    %eax,-0xc(%ebp)
     c01:	83 7d f4 00          	cmpl   $0x0,-0xc(%ebp)
     c05:	0f 88 4b 01 00 00    	js     d56 <shell_cmdPs+0x19e>
     c0b:	e9 05 01 00 00       	jmp    d15 <shell_cmdPs+0x15d>
     c10:	8b 45 fc             	mov    -0x4(%ebp),%eax
     c13:	83 c0 04             	add    $0x4,%eax
     c16:	c7 44 24 04 d0 42 00 	movl   $0x42d0,0x4(%esp)
     c1d:	00 
     c1e:	89 04 24             	mov    %eax,(%esp)
     c21:	e8 5d 20 00 00       	call   2c83 <strcmp>
     c26:	85 c0                	test   %eax,%eax
     c28:	0f 84 e7 00 00 00    	je     d15 <shell_cmdPs+0x15d>
     c2e:	8b 45 fc             	mov    -0x4(%ebp),%eax
     c31:	83 c0 04             	add    $0x4,%eax
     c34:	c7 44 24 04 d2 42 00 	movl   $0x42d2,0x4(%esp)
     c3b:	00 
     c3c:	89 04 24             	mov    %eax,(%esp)
     c3f:	e8 3f 20 00 00       	call   2c83 <strcmp>
     c44:	85 c0                	test   %eax,%eax
     c46:	0f 84 c9 00 00 00    	je     d15 <shell_cmdPs+0x15d>
     c4c:	8d 45 b5             	lea    -0x4b(%ebp),%eax
     c4f:	89 04 24             	mov    %eax,(%esp)
     c52:	e8 ba 25 00 00       	call   3211 <strlen>
     c57:	89 44 24 08          	mov    %eax,0x8(%esp)
     c5b:	8d 45 b5             	lea    -0x4b(%ebp),%eax
     c5e:	89 44 24 04          	mov    %eax,0x4(%esp)
     c62:	8d 85 b6 fe ff ff    	lea    -0x14a(%ebp),%eax
     c68:	89 04 24             	mov    %eax,(%esp)
     c6b:	e8 e7 1d 00 00       	call   2a57 <strncpy>
     c70:	8b 45 fc             	mov    -0x4(%ebp),%eax
     c73:	83 c0 04             	add    $0x4,%eax
     c76:	89 04 24             	mov    %eax,(%esp)
     c79:	e8 93 25 00 00       	call   3211 <strlen>
     c7e:	89 c2                	mov    %eax,%edx
     c80:	8b 45 fc             	mov    -0x4(%ebp),%eax
     c83:	83 c0 04             	add    $0x4,%eax
     c86:	89 54 24 08          	mov    %edx,0x8(%esp)
     c8a:	89 44 24 04          	mov    %eax,0x4(%esp)
     c8e:	8d 85 b6 fe ff ff    	lea    -0x14a(%ebp),%eax
     c94:	89 04 24             	mov    %eax,(%esp)
     c97:	e8 26 1f 00 00       	call   2bc2 <strncat>
     c9c:	c7 44 24 04 01 00 00 	movl   $0x1,0x4(%esp)
     ca3:	00 
     ca4:	8d 85 b6 fe ff ff    	lea    -0x14a(%ebp),%eax
     caa:	89 04 24             	mov    %eax,(%esp)
     cad:	e8 65 16 00 00       	call   2317 <open>
     cb2:	89 45 f8             	mov    %eax,-0x8(%ebp)
     cb5:	83 7d f8 00          	cmpl   $0x0,-0x8(%ebp)
     cb9:	78 38                	js     cf3 <shell_cmdPs+0x13b>
     cbb:	8b 45 f8             	mov    -0x8(%ebp),%eax
     cbe:	0f b7 d0             	movzwl %ax,%edx
     cc1:	c7 44 24 08 2c 00 00 	movl   $0x2c,0x8(%esp)
     cc8:	00 
     cc9:	8d 45 c8             	lea    -0x38(%ebp),%eax
     ccc:	89 44 24 04          	mov    %eax,0x4(%esp)
     cd0:	89 14 24             	mov    %edx,(%esp)
     cd3:	e8 6f 16 00 00       	call   2347 <read>
     cd8:	8d 45 c8             	lea    -0x38(%ebp),%eax
     cdb:	89 04 24             	mov    %eax,(%esp)
     cde:	e8 98 00 00 00       	call   d7b <ps_printProcess>
     ce3:	8b 45 f8             	mov    -0x8(%ebp),%eax
     ce6:	0f b7 c0             	movzwl %ax,%eax
     ce9:	89 04 24             	mov    %eax,(%esp)
     cec:	e8 14 17 00 00       	call   2405 <close>
     cf1:	eb 22                	jmp    d15 <shell_cmdPs+0x15d>
     cf3:	8d 85 b6 fe ff ff    	lea    -0x14a(%ebp),%eax
     cf9:	89 44 24 04          	mov    %eax,0x4(%esp)
     cfd:	c7 04 24 d5 42 00 00 	movl   $0x42d5,(%esp)
     d04:	e8 b5 0e 00 00       	call   1bbe <printf>
     d09:	c7 85 ac fe ff ff 01 	movl   $0x1,-0x154(%ebp)
     d10:	00 00 00 
     d13:	eb 5e                	jmp    d73 <shell_cmdPs+0x1bb>
     d15:	8b 45 f4             	mov    -0xc(%ebp),%eax
     d18:	0f b7 c0             	movzwl %ax,%eax
     d1b:	89 04 24             	mov    %eax,(%esp)
     d1e:	e8 a0 04 00 00       	call   11c3 <readdir>
     d23:	89 45 fc             	mov    %eax,-0x4(%ebp)
     d26:	83 7d fc 00          	cmpl   $0x0,-0x4(%ebp)
     d2a:	0f 85 e0 fe ff ff    	jne    c10 <shell_cmdPs+0x58>
     d30:	8b 45 f4             	mov    -0xc(%ebp),%eax
     d33:	0f b7 c0             	movzwl %ax,%eax
     d36:	89 04 24             	mov    %eax,(%esp)
     d39:	e8 cc 04 00 00       	call   120a <closedir>
     d3e:	c7 04 24 ea 42 00 00 	movl   $0x42ea,(%esp)
     d45:	e8 74 0e 00 00       	call   1bbe <printf>
     d4a:	c7 85 ac fe ff ff 00 	movl   $0x0,-0x154(%ebp)
     d51:	00 00 00 
     d54:	eb 1d                	jmp    d73 <shell_cmdPs+0x1bb>
     d56:	8d 45 b5             	lea    -0x4b(%ebp),%eax
     d59:	89 44 24 04          	mov    %eax,0x4(%esp)
     d5d:	c7 04 24 d5 42 00 00 	movl   $0x42d5,(%esp)
     d64:	e8 55 0e 00 00       	call   1bbe <printf>
     d69:	c7 85 ac fe ff ff 01 	movl   $0x1,-0x154(%ebp)
     d70:	00 00 00 
     d73:	8b 85 ac fe ff ff    	mov    -0x154(%ebp),%eax
     d79:	c9                   	leave  
     d7a:	c3                   	ret    

00000d7b <ps_printProcess>:
     d7b:	55                   	push   %ebp
     d7c:	89 e5                	mov    %esp,%ebp
     d7e:	57                   	push   %edi
     d7f:	56                   	push   %esi
     d80:	53                   	push   %ebx
     d81:	83 ec 3c             	sub    $0x3c,%esp
     d84:	8b 45 08             	mov    0x8(%ebp),%eax
     d87:	83 c0 14             	add    $0x14,%eax
     d8a:	89 45 f0             	mov    %eax,-0x10(%ebp)
     d8d:	8b 45 08             	mov    0x8(%ebp),%eax
     d90:	8d 48 1c             	lea    0x1c(%eax),%ecx
     d93:	8b 45 f0             	mov    -0x10(%ebp),%eax
     d96:	8b 18                	mov    (%eax),%ebx
     d98:	8b 45 f0             	mov    -0x10(%ebp),%eax
     d9b:	83 c0 04             	add    $0x4,%eax
     d9e:	8b 30                	mov    (%eax),%esi
     da0:	8b 45 08             	mov    0x8(%ebp),%eax
     da3:	0f b6 00             	movzbl (%eax),%eax
     da6:	0f b6 c0             	movzbl %al,%eax
     da9:	8b 3c 85 50 40 00 00 	mov    0x4050(,%eax,4),%edi
     db0:	8b 45 08             	mov    0x8(%ebp),%eax
     db3:	8b 50 08             	mov    0x8(%eax),%edx
     db6:	8b 45 08             	mov    0x8(%ebp),%eax
     db9:	8b 40 0c             	mov    0xc(%eax),%eax
     dbc:	01 c2                	add    %eax,%edx
     dbe:	8b 45 08             	mov    0x8(%ebp),%eax
     dc1:	8b 40 10             	mov    0x10(%eax),%eax
     dc4:	01 c2                	add    %eax,%edx
     dc6:	89 55 e0             	mov    %edx,-0x20(%ebp)
     dc9:	8b 45 08             	mov    0x8(%ebp),%eax
     dcc:	0f b7 40 04          	movzwl 0x4(%eax),%eax
     dd0:	0f b7 d0             	movzwl %ax,%edx
     dd3:	8b 45 08             	mov    0x8(%ebp),%eax
     dd6:	0f b7 40 02          	movzwl 0x2(%eax),%eax
     dda:	0f b7 c0             	movzwl %ax,%eax
     ddd:	89 4c 24 1c          	mov    %ecx,0x1c(%esp)
     de1:	89 5c 24 18          	mov    %ebx,0x18(%esp)
     de5:	89 74 24 14          	mov    %esi,0x14(%esp)
     de9:	89 7c 24 10          	mov    %edi,0x10(%esp)
     ded:	8b 4d e0             	mov    -0x20(%ebp),%ecx
     df0:	89 4c 24 0c          	mov    %ecx,0xc(%esp)
     df4:	89 54 24 08          	mov    %edx,0x8(%esp)
     df8:	89 44 24 04          	mov    %eax,0x4(%esp)
     dfc:	c7 04 24 ec 42 00 00 	movl   $0x42ec,(%esp)
     e03:	e8 b6 0d 00 00       	call   1bbe <printf>
     e08:	83 c4 3c             	add    $0x3c,%esp
     e0b:	5b                   	pop    %ebx
     e0c:	5e                   	pop    %esi
     e0d:	5f                   	pop    %edi
     e0e:	5d                   	pop    %ebp
     e0f:	c3                   	ret    

00000e10 <signalHandler>:
     e10:	55                   	push   %ebp
     e11:	89 e5                	mov    %esp,%ebp
     e13:	83 ec 18             	sub    $0x18,%esp
     e16:	8b 45 08             	mov    0x8(%ebp),%eax
     e19:	88 45 fc             	mov    %al,-0x4(%ebp)
     e1c:	a1 28 51 00 00       	mov    0x5128,%eax
     e21:	89 c2                	mov    %eax,%edx
     e23:	83 c0 01             	add    $0x1,%eax
     e26:	a3 28 51 00 00       	mov    %eax,0x5128
     e2b:	0f b6 45 fc          	movzbl -0x4(%ebp),%eax
     e2f:	89 54 24 08          	mov    %edx,0x8(%esp)
     e33:	89 44 24 04          	mov    %eax,0x4(%esp)
     e37:	c7 04 24 12 43 00 00 	movl   $0x4312,(%esp)
     e3e:	e8 7b 0d 00 00       	call   1bbe <printf>
     e43:	c9                   	leave  
     e44:	c3                   	ret    

00000e45 <shell_cmdTest>:
     e45:	55                   	push   %ebp
     e46:	89 e5                	mov    %esp,%ebp
     e48:	83 ec 08             	sub    $0x8,%esp
     e4b:	c7 44 24 04 10 0e 00 	movl   $0xe10,0x4(%esp)
     e52:	00 
     e53:	c7 04 24 05 00 00 00 	movl   $0x5,(%esp)
     e5a:	e8 b1 16 00 00       	call   2510 <setSigHandler>
     e5f:	eb fe                	jmp    e5f <shell_cmdTest+0x1a>
     e61:	00 00                	add    %al,(%eax)
	...

00000e64 <dumpBytes>:
     e64:	55                   	push   %ebp
     e65:	89 e5                	mov    %esp,%ebp
     e67:	83 ec 28             	sub    $0x28,%esp
     e6a:	c7 45 f8 00 00 00 00 	movl   $0x0,-0x8(%ebp)
     e71:	8b 45 08             	mov    0x8(%ebp),%eax
     e74:	89 45 fc             	mov    %eax,-0x4(%ebp)
     e77:	c7 45 f8 00 00 00 00 	movl   $0x0,-0x8(%ebp)
     e7e:	eb 61                	jmp    ee1 <dumpBytes+0x7d>
     e80:	8b 4d f8             	mov    -0x8(%ebp),%ecx
     e83:	c7 45 e8 f1 f0 f0 f0 	movl   $0xf0f0f0f1,-0x18(%ebp)
     e8a:	8b 45 e8             	mov    -0x18(%ebp),%eax
     e8d:	f7 e1                	mul    %ecx
     e8f:	89 d0                	mov    %edx,%eax
     e91:	c1 e8 04             	shr    $0x4,%eax
     e94:	89 45 ec             	mov    %eax,-0x14(%ebp)
     e97:	8b 45 ec             	mov    -0x14(%ebp),%eax
     e9a:	c1 e0 04             	shl    $0x4,%eax
     e9d:	03 45 ec             	add    -0x14(%ebp),%eax
     ea0:	89 ca                	mov    %ecx,%edx
     ea2:	29 c2                	sub    %eax,%edx
     ea4:	89 55 ec             	mov    %edx,-0x14(%ebp)
     ea7:	83 7d ec 00          	cmpl   $0x0,-0x14(%ebp)
     eab:	75 13                	jne    ec0 <dumpBytes+0x5c>
     ead:	8b 45 f8             	mov    -0x8(%ebp),%eax
     eb0:	89 44 24 04          	mov    %eax,0x4(%esp)
     eb4:	c7 04 24 26 43 00 00 	movl   $0x4326,(%esp)
     ebb:	e8 fe 0c 00 00       	call   1bbe <printf>
     ec0:	8b 45 fc             	mov    -0x4(%ebp),%eax
     ec3:	0f b6 00             	movzbl (%eax),%eax
     ec6:	0f b6 c0             	movzbl %al,%eax
     ec9:	89 44 24 04          	mov    %eax,0x4(%esp)
     ecd:	c7 04 24 2e 43 00 00 	movl   $0x432e,(%esp)
     ed4:	e8 e5 0c 00 00       	call   1bbe <printf>
     ed9:	83 45 fc 01          	addl   $0x1,-0x4(%ebp)
     edd:	83 45 f8 01          	addl   $0x1,-0x8(%ebp)
     ee1:	83 7d 0c 00          	cmpl   $0x0,0xc(%ebp)
     ee5:	0f 95 c0             	setne  %al
     ee8:	83 6d 0c 01          	subl   $0x1,0xc(%ebp)
     eec:	84 c0                	test   %al,%al
     eee:	75 90                	jne    e80 <dumpBytes+0x1c>
     ef0:	c9                   	leave  
     ef1:	c3                   	ret    

00000ef2 <dumpDwords>:
     ef2:	55                   	push   %ebp
     ef3:	89 e5                	mov    %esp,%ebp
     ef5:	83 ec 18             	sub    $0x18,%esp
     ef8:	c7 45 f8 00 00 00 00 	movl   $0x0,-0x8(%ebp)
     eff:	8b 45 08             	mov    0x8(%ebp),%eax
     f02:	89 45 fc             	mov    %eax,-0x4(%ebp)
     f05:	c7 45 f8 00 00 00 00 	movl   $0x0,-0x8(%ebp)
     f0c:	eb 3a                	jmp    f48 <dumpDwords+0x56>
     f0e:	8b 45 f8             	mov    -0x8(%ebp),%eax
     f11:	83 e0 03             	and    $0x3,%eax
     f14:	85 c0                	test   %eax,%eax
     f16:	75 13                	jne    f2b <dumpDwords+0x39>
     f18:	8b 45 fc             	mov    -0x4(%ebp),%eax
     f1b:	89 44 24 04          	mov    %eax,0x4(%esp)
     f1f:	c7 04 24 26 43 00 00 	movl   $0x4326,(%esp)
     f26:	e8 93 0c 00 00       	call   1bbe <printf>
     f2b:	8b 45 fc             	mov    -0x4(%ebp),%eax
     f2e:	8b 00                	mov    (%eax),%eax
     f30:	89 44 24 04          	mov    %eax,0x4(%esp)
     f34:	c7 04 24 34 43 00 00 	movl   $0x4334,(%esp)
     f3b:	e8 7e 0c 00 00       	call   1bbe <printf>
     f40:	83 45 fc 04          	addl   $0x4,-0x4(%ebp)
     f44:	83 45 f8 01          	addl   $0x1,-0x8(%ebp)
     f48:	83 7d 0c 00          	cmpl   $0x0,0xc(%ebp)
     f4c:	0f 95 c0             	setne  %al
     f4f:	83 6d 0c 01          	subl   $0x1,0xc(%ebp)
     f53:	84 c0                	test   %al,%al
     f55:	75 b7                	jne    f0e <dumpDwords+0x1c>
     f57:	c9                   	leave  
     f58:	c3                   	ret    

00000f59 <debugf>:
     f59:	55                   	push   %ebp
     f5a:	89 e5                	mov    %esp,%ebp
     f5c:	83 ec 18             	sub    $0x18,%esp
     f5f:	8d 45 0c             	lea    0xc(%ebp),%eax
     f62:	89 45 fc             	mov    %eax,-0x4(%ebp)
     f65:	8b 45 fc             	mov    -0x4(%ebp),%eax
     f68:	89 44 24 04          	mov    %eax,0x4(%esp)
     f6c:	8b 45 08             	mov    0x8(%ebp),%eax
     f6f:	89 04 24             	mov    %eax,(%esp)
     f72:	e8 02 00 00 00       	call   f79 <vdebugf>
     f77:	c9                   	leave  
     f78:	c3                   	ret    

00000f79 <vdebugf>:
     f79:	55                   	push   %ebp
     f7a:	89 e5                	mov    %esp,%ebp
     f7c:	83 ec 38             	sub    $0x38,%esp
     f7f:	eb 16                	jmp    f97 <vdebugf+0x1e>
     f81:	80 7d ea 00          	cmpb   $0x0,-0x16(%ebp)
     f85:	0f 84 5a 01 00 00    	je     10e5 <vdebugf+0x16c>
     f8b:	0f be 45 ea          	movsbl -0x16(%ebp),%eax
     f8f:	89 04 24             	mov    %eax,(%esp)
     f92:	e8 d9 12 00 00       	call   2270 <debugChar>
     f97:	8b 45 08             	mov    0x8(%ebp),%eax
     f9a:	0f b6 00             	movzbl (%eax),%eax
     f9d:	88 45 ea             	mov    %al,-0x16(%ebp)
     fa0:	80 7d ea 25          	cmpb   $0x25,-0x16(%ebp)
     fa4:	0f 95 c0             	setne  %al
     fa7:	83 45 08 01          	addl   $0x1,0x8(%ebp)
     fab:	84 c0                	test   %al,%al
     fad:	75 d2                	jne    f81 <vdebugf+0x8>
     faf:	8b 45 08             	mov    0x8(%ebp),%eax
     fb2:	0f b6 00             	movzbl (%eax),%eax
     fb5:	3c 3a                	cmp    $0x3a,%al
     fb7:	75 04                	jne    fbd <vdebugf+0x44>
     fb9:	83 45 08 03          	addl   $0x3,0x8(%ebp)
     fbd:	8b 45 08             	mov    0x8(%ebp),%eax
     fc0:	0f b6 00             	movzbl (%eax),%eax
     fc3:	88 45 ea             	mov    %al,-0x16(%ebp)
     fc6:	83 45 08 01          	addl   $0x1,0x8(%ebp)
     fca:	80 7d ea 64          	cmpb   $0x64,-0x16(%ebp)
     fce:	75 1d                	jne    fed <vdebugf+0x74>
     fd0:	8b 55 0c             	mov    0xc(%ebp),%edx
     fd3:	8d 42 04             	lea    0x4(%edx),%eax
     fd6:	89 45 0c             	mov    %eax,0xc(%ebp)
     fd9:	89 d0                	mov    %edx,%eax
     fdb:	8b 00                	mov    (%eax),%eax
     fdd:	89 45 ec             	mov    %eax,-0x14(%ebp)
     fe0:	8b 45 ec             	mov    -0x14(%ebp),%eax
     fe3:	89 04 24             	mov    %eax,(%esp)
     fe6:	e8 fc 00 00 00       	call   10e7 <debugInt>
     feb:	eb aa                	jmp    f97 <vdebugf+0x1e>
     fed:	80 7d ea 75          	cmpb   $0x75,-0x16(%ebp)
     ff1:	74 0c                	je     fff <vdebugf+0x86>
     ff3:	80 7d ea 6f          	cmpb   $0x6f,-0x16(%ebp)
     ff7:	74 06                	je     fff <vdebugf+0x86>
     ff9:	80 7d ea 78          	cmpb   $0x78,-0x16(%ebp)
     ffd:	75 52                	jne    1051 <vdebugf+0xd8>
     fff:	8b 55 0c             	mov    0xc(%ebp),%edx
    1002:	8d 42 04             	lea    0x4(%edx),%eax
    1005:	89 45 0c             	mov    %eax,0xc(%ebp)
    1008:	89 d0                	mov    %edx,%eax
    100a:	8b 00                	mov    (%eax),%eax
    100c:	89 45 f0             	mov    %eax,-0x10(%ebp)
    100f:	80 7d ea 6f          	cmpb   $0x6f,-0x16(%ebp)
    1013:	74 1e                	je     1033 <vdebugf+0xba>
    1015:	80 7d ea 78          	cmpb   $0x78,-0x16(%ebp)
    1019:	75 09                	jne    1024 <vdebugf+0xab>
    101b:	c7 45 dc 10 00 00 00 	movl   $0x10,-0x24(%ebp)
    1022:	eb 07                	jmp    102b <vdebugf+0xb2>
    1024:	c7 45 dc 0a 00 00 00 	movl   $0xa,-0x24(%ebp)
    102b:	8b 45 dc             	mov    -0x24(%ebp),%eax
    102e:	89 45 d8             	mov    %eax,-0x28(%ebp)
    1031:	eb 07                	jmp    103a <vdebugf+0xc1>
    1033:	c7 45 d8 08 00 00 00 	movl   $0x8,-0x28(%ebp)
    103a:	8b 45 d8             	mov    -0x28(%ebp),%eax
    103d:	89 44 24 04          	mov    %eax,0x4(%esp)
    1041:	8b 45 f0             	mov    -0x10(%ebp),%eax
    1044:	89 04 24             	mov    %eax,(%esp)
    1047:	e8 cb 00 00 00       	call   1117 <debugUint>
    104c:	e9 46 ff ff ff       	jmp    f97 <vdebugf+0x1e>
    1051:	80 7d ea 73          	cmpb   $0x73,-0x16(%ebp)
    1055:	75 20                	jne    1077 <vdebugf+0xfe>
    1057:	8b 55 0c             	mov    0xc(%ebp),%edx
    105a:	8d 42 04             	lea    0x4(%edx),%eax
    105d:	89 45 0c             	mov    %eax,0xc(%ebp)
    1060:	89 d0                	mov    %edx,%eax
    1062:	8b 00                	mov    (%eax),%eax
    1064:	89 45 f4             	mov    %eax,-0xc(%ebp)
    1067:	8b 45 f4             	mov    -0xc(%ebp),%eax
    106a:	89 04 24             	mov    %eax,(%esp)
    106d:	e8 0b 01 00 00       	call   117d <debugString>
    1072:	e9 20 ff ff ff       	jmp    f97 <vdebugf+0x1e>
    1077:	80 7d ea 63          	cmpb   $0x63,-0x16(%ebp)
    107b:	75 21                	jne    109e <vdebugf+0x125>
    107d:	8b 55 0c             	mov    0xc(%ebp),%edx
    1080:	8d 42 04             	lea    0x4(%edx),%eax
    1083:	89 45 0c             	mov    %eax,0xc(%ebp)
    1086:	89 d0                	mov    %edx,%eax
    1088:	8b 00                	mov    (%eax),%eax
    108a:	88 45 eb             	mov    %al,-0x15(%ebp)
    108d:	0f be 45 eb          	movsbl -0x15(%ebp),%eax
    1091:	89 04 24             	mov    %eax,(%esp)
    1094:	e8 d7 11 00 00       	call   2270 <debugChar>
    1099:	e9 f9 fe ff ff       	jmp    f97 <vdebugf+0x1e>
    109e:	80 7d ea 62          	cmpb   $0x62,-0x16(%ebp)
    10a2:	75 30                	jne    10d4 <vdebugf+0x15b>
    10a4:	8b 55 0c             	mov    0xc(%ebp),%edx
    10a7:	8d 42 04             	lea    0x4(%edx),%eax
    10aa:	89 45 0c             	mov    %eax,0xc(%ebp)
    10ad:	89 d0                	mov    %edx,%eax
    10af:	8b 00                	mov    (%eax),%eax
    10b1:	ba 00 00 00 00       	mov    $0x0,%edx
    10b6:	89 45 f8             	mov    %eax,-0x8(%ebp)
    10b9:	89 55 fc             	mov    %edx,-0x4(%ebp)
    10bc:	8b 45 f8             	mov    -0x8(%ebp),%eax
    10bf:	c7 44 24 04 02 00 00 	movl   $0x2,0x4(%esp)
    10c6:	00 
    10c7:	89 04 24             	mov    %eax,(%esp)
    10ca:	e8 48 00 00 00       	call   1117 <debugUint>
    10cf:	e9 c3 fe ff ff       	jmp    f97 <vdebugf+0x1e>
    10d4:	0f be 45 ea          	movsbl -0x16(%ebp),%eax
    10d8:	89 04 24             	mov    %eax,(%esp)
    10db:	e8 90 11 00 00       	call   2270 <debugChar>
    10e0:	e9 b2 fe ff ff       	jmp    f97 <vdebugf+0x1e>
    10e5:	c9                   	leave  
    10e6:	c3                   	ret    

000010e7 <debugInt>:
    10e7:	55                   	push   %ebp
    10e8:	89 e5                	mov    %esp,%ebp
    10ea:	83 ec 08             	sub    $0x8,%esp
    10ed:	83 7d 08 00          	cmpl   $0x0,0x8(%ebp)
    10f1:	79 0f                	jns    1102 <debugInt+0x1b>
    10f3:	c7 04 24 2d 00 00 00 	movl   $0x2d,(%esp)
    10fa:	e8 71 11 00 00       	call   2270 <debugChar>
    10ff:	f7 5d 08             	negl   0x8(%ebp)
    1102:	8b 45 08             	mov    0x8(%ebp),%eax
    1105:	c7 44 24 04 0a 00 00 	movl   $0xa,0x4(%esp)
    110c:	00 
    110d:	89 04 24             	mov    %eax,(%esp)
    1110:	e8 02 00 00 00       	call   1117 <debugUint>
    1115:	c9                   	leave  
    1116:	c3                   	ret    

00001117 <debugUint>:
    1117:	55                   	push   %ebp
    1118:	89 e5                	mov    %esp,%ebp
    111a:	83 ec 38             	sub    $0x38,%esp
    111d:	8b 45 0c             	mov    0xc(%ebp),%eax
    1120:	88 45 ec             	mov    %al,-0x14(%ebp)
    1123:	0f b6 45 ec          	movzbl -0x14(%ebp),%eax
    1127:	89 45 e0             	mov    %eax,-0x20(%ebp)
    112a:	8b 45 08             	mov    0x8(%ebp),%eax
    112d:	ba 00 00 00 00       	mov    $0x0,%edx
    1132:	f7 75 e0             	divl   -0x20(%ebp)
    1135:	89 45 fc             	mov    %eax,-0x4(%ebp)
    1138:	83 7d fc 00          	cmpl   $0x0,-0x4(%ebp)
    113c:	74 13                	je     1151 <debugUint+0x3a>
    113e:	0f b6 45 ec          	movzbl -0x14(%ebp),%eax
    1142:	89 44 24 04          	mov    %eax,0x4(%esp)
    1146:	8b 45 fc             	mov    -0x4(%ebp),%eax
    1149:	89 04 24             	mov    %eax,(%esp)
    114c:	e8 c6 ff ff ff       	call   1117 <debugUint>
    1151:	0f b6 55 ec          	movzbl -0x14(%ebp),%edx
    1155:	8b 4d 08             	mov    0x8(%ebp),%ecx
    1158:	89 4d dc             	mov    %ecx,-0x24(%ebp)
    115b:	8b 45 dc             	mov    -0x24(%ebp),%eax
    115e:	89 d1                	mov    %edx,%ecx
    1160:	ba 00 00 00 00       	mov    $0x0,%edx
    1165:	f7 f1                	div    %ecx
    1167:	89 d0                	mov    %edx,%eax
    1169:	0f b6 80 3a 43 00 00 	movzbl 0x433a(%eax),%eax
    1170:	0f be c0             	movsbl %al,%eax
    1173:	89 04 24             	mov    %eax,(%esp)
    1176:	e8 f5 10 00 00       	call   2270 <debugChar>
    117b:	c9                   	leave  
    117c:	c3                   	ret    

0000117d <debugString>:
    117d:	55                   	push   %ebp
    117e:	89 e5                	mov    %esp,%ebp
    1180:	83 ec 08             	sub    $0x8,%esp
    1183:	eb 15                	jmp    119a <debugString+0x1d>
    1185:	8b 45 08             	mov    0x8(%ebp),%eax
    1188:	0f b6 00             	movzbl (%eax),%eax
    118b:	0f be c0             	movsbl %al,%eax
    118e:	83 45 08 01          	addl   $0x1,0x8(%ebp)
    1192:	89 04 24             	mov    %eax,(%esp)
    1195:	e8 d6 10 00 00       	call   2270 <debugChar>
    119a:	8b 45 08             	mov    0x8(%ebp),%eax
    119d:	0f b6 00             	movzbl (%eax),%eax
    11a0:	84 c0                	test   %al,%al
    11a2:	75 e1                	jne    1185 <debugString+0x8>
    11a4:	c9                   	leave  
    11a5:	c3                   	ret    
	...

000011a8 <opendir>:
    11a8:	55                   	push   %ebp
    11a9:	89 e5                	mov    %esp,%ebp
    11ab:	83 ec 08             	sub    $0x8,%esp
    11ae:	c7 44 24 04 01 00 00 	movl   $0x1,0x4(%esp)
    11b5:	00 
    11b6:	8b 45 08             	mov    0x8(%ebp),%eax
    11b9:	89 04 24             	mov    %eax,(%esp)
    11bc:	e8 56 11 00 00       	call   2317 <open>
    11c1:	c9                   	leave  
    11c2:	c3                   	ret    

000011c3 <readdir>:
    11c3:	55                   	push   %ebp
    11c4:	89 e5                	mov    %esp,%ebp
    11c6:	83 ec 28             	sub    $0x28,%esp
    11c9:	8b 45 08             	mov    0x8(%ebp),%eax
    11cc:	66 89 45 ec          	mov    %ax,-0x14(%ebp)
    11d0:	0f b7 45 ec          	movzwl -0x14(%ebp),%eax
    11d4:	c7 44 24 08 40 00 00 	movl   $0x40,0x8(%esp)
    11db:	00 
    11dc:	c7 44 24 04 40 51 00 	movl   $0x5140,0x4(%esp)
    11e3:	00 
    11e4:	89 04 24             	mov    %eax,(%esp)
    11e7:	e8 5b 11 00 00       	call   2347 <read>
    11ec:	89 45 fc             	mov    %eax,-0x4(%ebp)
    11ef:	83 7d fc 00          	cmpl   $0x0,-0x4(%ebp)
    11f3:	7e 09                	jle    11fe <readdir+0x3b>
    11f5:	c7 45 e8 40 51 00 00 	movl   $0x5140,-0x18(%ebp)
    11fc:	eb 07                	jmp    1205 <readdir+0x42>
    11fe:	c7 45 e8 00 00 00 00 	movl   $0x0,-0x18(%ebp)
    1205:	8b 45 e8             	mov    -0x18(%ebp),%eax
    1208:	c9                   	leave  
    1209:	c3                   	ret    

0000120a <closedir>:
    120a:	55                   	push   %ebp
    120b:	89 e5                	mov    %esp,%ebp
    120d:	83 ec 08             	sub    $0x8,%esp
    1210:	8b 45 08             	mov    0x8(%ebp),%eax
    1213:	66 89 45 fc          	mov    %ax,-0x4(%ebp)
    1217:	0f b7 45 fc          	movzwl -0x4(%ebp),%eax
    121b:	89 04 24             	mov    %eax,(%esp)
    121e:	e8 e2 11 00 00       	call   2405 <close>
    1223:	c9                   	leave  
    1224:	c3                   	ret    
    1225:	00 00                	add    %al,(%eax)
	...

00001228 <getUsableList>:
    1228:	55                   	push   %ebp
    1229:	89 e5                	mov    %esp,%ebp
    122b:	a1 80 51 00 00       	mov    0x5180,%eax
    1230:	5d                   	pop    %ebp
    1231:	c3                   	ret    

00001232 <getOccupiedMap>:
    1232:	55                   	push   %ebp
    1233:	89 e5                	mov    %esp,%ebp
    1235:	b8 a0 51 00 00       	mov    $0x51a0,%eax
    123a:	5d                   	pop    %ebp
    123b:	c3                   	ret    

0000123c <getFreeList>:
    123c:	55                   	push   %ebp
    123d:	89 e5                	mov    %esp,%ebp
    123f:	a1 84 51 00 00       	mov    0x5184,%eax
    1244:	5d                   	pop    %ebp
    1245:	c3                   	ret    

00001246 <malloc>:
    1246:	55                   	push   %ebp
    1247:	89 e5                	mov    %esp,%ebp
    1249:	83 ec 18             	sub    $0x18,%esp
    124c:	c7 45 f4 00 00 00 00 	movl   $0x0,-0xc(%ebp)
    1253:	a1 80 51 00 00       	mov    0x5180,%eax
    1258:	89 45 f0             	mov    %eax,-0x10(%ebp)
    125b:	eb 19                	jmp    1276 <malloc+0x30>
    125d:	8b 45 f0             	mov    -0x10(%ebp),%eax
    1260:	8b 00                	mov    (%eax),%eax
    1262:	3b 45 08             	cmp    0x8(%ebp),%eax
    1265:	73 15                	jae    127c <malloc+0x36>
    1267:	8b 45 f0             	mov    -0x10(%ebp),%eax
    126a:	89 45 f4             	mov    %eax,-0xc(%ebp)
    126d:	8b 45 f0             	mov    -0x10(%ebp),%eax
    1270:	8b 40 08             	mov    0x8(%eax),%eax
    1273:	89 45 f0             	mov    %eax,-0x10(%ebp)
    1276:	83 7d f0 00          	cmpl   $0x0,-0x10(%ebp)
    127a:	75 e1                	jne    125d <malloc+0x17>
    127c:	83 7d f0 00          	cmpl   $0x0,-0x10(%ebp)
    1280:	75 30                	jne    12b2 <malloc+0x6c>
    1282:	8b 45 08             	mov    0x8(%ebp),%eax
    1285:	89 04 24             	mov    %eax,(%esp)
    1288:	e8 7c 04 00 00       	call   1709 <loadNewSpace>
    128d:	85 c0                	test   %eax,%eax
    128f:	75 0c                	jne    129d <malloc+0x57>
    1291:	c7 45 ec 00 00 00 00 	movl   $0x0,-0x14(%ebp)
    1298:	e9 dd 00 00 00       	jmp    137a <malloc+0x134>
    129d:	a1 80 51 00 00       	mov    0x5180,%eax
    12a2:	89 45 f0             	mov    %eax,-0x10(%ebp)
    12a5:	8b 45 f0             	mov    -0x10(%ebp),%eax
    12a8:	8b 40 08             	mov    0x8(%eax),%eax
    12ab:	a3 80 51 00 00       	mov    %eax,0x5180
    12b0:	eb 1f                	jmp    12d1 <malloc+0x8b>
    12b2:	83 7d f4 00          	cmpl   $0x0,-0xc(%ebp)
    12b6:	75 0d                	jne    12c5 <malloc+0x7f>
    12b8:	8b 45 f0             	mov    -0x10(%ebp),%eax
    12bb:	8b 40 08             	mov    0x8(%eax),%eax
    12be:	a3 80 51 00 00       	mov    %eax,0x5180
    12c3:	eb 0c                	jmp    12d1 <malloc+0x8b>
    12c5:	8b 45 f0             	mov    -0x10(%ebp),%eax
    12c8:	8b 50 08             	mov    0x8(%eax),%edx
    12cb:	8b 45 f4             	mov    -0xc(%ebp),%eax
    12ce:	89 50 08             	mov    %edx,0x8(%eax)
    12d1:	8b 45 f0             	mov    -0x10(%ebp),%eax
    12d4:	8b 00                	mov    (%eax),%eax
    12d6:	3b 45 08             	cmp    0x8(%ebp),%eax
    12d9:	76 6f                	jbe    134a <malloc+0x104>
    12db:	a1 84 51 00 00       	mov    0x5184,%eax
    12e0:	85 c0                	test   %eax,%eax
    12e2:	75 15                	jne    12f9 <malloc+0xb3>
    12e4:	e8 cb 04 00 00       	call   17b4 <loadNewAreas>
    12e9:	85 c0                	test   %eax,%eax
    12eb:	75 0c                	jne    12f9 <malloc+0xb3>
    12ed:	c7 45 ec 00 00 00 00 	movl   $0x0,-0x14(%ebp)
    12f4:	e9 81 00 00 00       	jmp    137a <malloc+0x134>
    12f9:	a1 84 51 00 00       	mov    0x5184,%eax
    12fe:	89 45 f8             	mov    %eax,-0x8(%ebp)
    1301:	a1 84 51 00 00       	mov    0x5184,%eax
    1306:	8b 40 08             	mov    0x8(%eax),%eax
    1309:	a3 84 51 00 00       	mov    %eax,0x5184
    130e:	8b 45 f0             	mov    -0x10(%ebp),%eax
    1311:	8b 40 04             	mov    0x4(%eax),%eax
    1314:	89 c2                	mov    %eax,%edx
    1316:	03 55 08             	add    0x8(%ebp),%edx
    1319:	8b 45 f8             	mov    -0x8(%ebp),%eax
    131c:	89 50 04             	mov    %edx,0x4(%eax)
    131f:	8b 45 f0             	mov    -0x10(%ebp),%eax
    1322:	8b 00                	mov    (%eax),%eax
    1324:	89 c2                	mov    %eax,%edx
    1326:	2b 55 08             	sub    0x8(%ebp),%edx
    1329:	8b 45 f8             	mov    -0x8(%ebp),%eax
    132c:	89 10                	mov    %edx,(%eax)
    132e:	8b 55 f0             	mov    -0x10(%ebp),%edx
    1331:	8b 45 08             	mov    0x8(%ebp),%eax
    1334:	89 02                	mov    %eax,(%edx)
    1336:	8b 15 80 51 00 00    	mov    0x5180,%edx
    133c:	8b 45 f8             	mov    -0x8(%ebp),%eax
    133f:	89 50 08             	mov    %edx,0x8(%eax)
    1342:	8b 45 f8             	mov    -0x8(%ebp),%eax
    1345:	a3 80 51 00 00       	mov    %eax,0x5180
    134a:	8b 45 f0             	mov    -0x10(%ebp),%eax
    134d:	8b 40 04             	mov    0x4(%eax),%eax
    1350:	83 e0 3f             	and    $0x3f,%eax
    1353:	c1 e0 02             	shl    $0x2,%eax
    1356:	05 a0 51 00 00       	add    $0x51a0,%eax
    135b:	89 45 fc             	mov    %eax,-0x4(%ebp)
    135e:	8b 45 fc             	mov    -0x4(%ebp),%eax
    1361:	8b 10                	mov    (%eax),%edx
    1363:	8b 45 f0             	mov    -0x10(%ebp),%eax
    1366:	89 50 08             	mov    %edx,0x8(%eax)
    1369:	8b 55 fc             	mov    -0x4(%ebp),%edx
    136c:	8b 45 f0             	mov    -0x10(%ebp),%eax
    136f:	89 02                	mov    %eax,(%edx)
    1371:	8b 45 f0             	mov    -0x10(%ebp),%eax
    1374:	8b 40 04             	mov    0x4(%eax),%eax
    1377:	89 45 ec             	mov    %eax,-0x14(%ebp)
    137a:	8b 45 ec             	mov    -0x14(%ebp),%eax
    137d:	c9                   	leave  
    137e:	c3                   	ret    

0000137f <free>:
    137f:	55                   	push   %ebp
    1380:	89 e5                	mov    %esp,%ebp
    1382:	83 ec 20             	sub    $0x20,%esp
    1385:	83 7d 08 00          	cmpl   $0x0,0x8(%ebp)
    1389:	0f 84 36 02 00 00    	je     15c5 <free+0x246>
    138f:	c7 45 f0 00 00 00 00 	movl   $0x0,-0x10(%ebp)
    1396:	8b 45 08             	mov    0x8(%ebp),%eax
    1399:	83 e0 3f             	and    $0x3f,%eax
    139c:	8b 04 85 a0 51 00 00 	mov    0x51a0(,%eax,4),%eax
    13a3:	89 45 e0             	mov    %eax,-0x20(%ebp)
    13a6:	eb 1a                	jmp    13c2 <free+0x43>
    13a8:	8b 45 e0             	mov    -0x20(%ebp),%eax
    13ab:	8b 40 04             	mov    0x4(%eax),%eax
    13ae:	3b 45 08             	cmp    0x8(%ebp),%eax
    13b1:	74 15                	je     13c8 <free+0x49>
    13b3:	8b 45 e0             	mov    -0x20(%ebp),%eax
    13b6:	89 45 f0             	mov    %eax,-0x10(%ebp)
    13b9:	8b 45 e0             	mov    -0x20(%ebp),%eax
    13bc:	8b 40 08             	mov    0x8(%eax),%eax
    13bf:	89 45 e0             	mov    %eax,-0x20(%ebp)
    13c2:	83 7d e0 00          	cmpl   $0x0,-0x20(%ebp)
    13c6:	75 e0                	jne    13a8 <free+0x29>
    13c8:	83 7d e0 00          	cmpl   $0x0,-0x20(%ebp)
    13cc:	0f 84 f3 01 00 00    	je     15c5 <free+0x246>
    13d2:	c7 45 e8 00 00 00 00 	movl   $0x0,-0x18(%ebp)
    13d9:	c7 45 ec 00 00 00 00 	movl   $0x0,-0x14(%ebp)
    13e0:	c7 45 fc 00 00 00 00 	movl   $0x0,-0x4(%ebp)
    13e7:	a1 80 51 00 00       	mov    0x5180,%eax
    13ec:	89 45 e4             	mov    %eax,-0x1c(%ebp)
    13ef:	eb 58                	jmp    1449 <free+0xca>
    13f1:	8b 45 e4             	mov    -0x1c(%ebp),%eax
    13f4:	8b 50 04             	mov    0x4(%eax),%edx
    13f7:	8b 45 e4             	mov    -0x1c(%ebp),%eax
    13fa:	8b 00                	mov    (%eax),%eax
    13fc:	8d 04 02             	lea    (%edx,%eax,1),%eax
    13ff:	3b 45 08             	cmp    0x8(%ebp),%eax
    1402:	75 0c                	jne    1410 <free+0x91>
    1404:	8b 45 e4             	mov    -0x1c(%ebp),%eax
    1407:	89 45 e8             	mov    %eax,-0x18(%ebp)
    140a:	8b 45 fc             	mov    -0x4(%ebp),%eax
    140d:	89 45 f8             	mov    %eax,-0x8(%ebp)
    1410:	8b 45 e4             	mov    -0x1c(%ebp),%eax
    1413:	8b 50 04             	mov    0x4(%eax),%edx
    1416:	8b 45 e0             	mov    -0x20(%ebp),%eax
    1419:	8b 00                	mov    (%eax),%eax
    141b:	03 45 08             	add    0x8(%ebp),%eax
    141e:	39 c2                	cmp    %eax,%edx
    1420:	75 0c                	jne    142e <free+0xaf>
    1422:	8b 45 e4             	mov    -0x1c(%ebp),%eax
    1425:	89 45 ec             	mov    %eax,-0x14(%ebp)
    1428:	8b 45 fc             	mov    -0x4(%ebp),%eax
    142b:	89 45 f4             	mov    %eax,-0xc(%ebp)
    142e:	83 7d e8 00          	cmpl   $0x0,-0x18(%ebp)
    1432:	74 06                	je     143a <free+0xbb>
    1434:	83 7d ec 00          	cmpl   $0x0,-0x14(%ebp)
    1438:	75 15                	jne    144f <free+0xd0>
    143a:	8b 45 e4             	mov    -0x1c(%ebp),%eax
    143d:	89 45 fc             	mov    %eax,-0x4(%ebp)
    1440:	8b 45 e4             	mov    -0x1c(%ebp),%eax
    1443:	8b 40 08             	mov    0x8(%eax),%eax
    1446:	89 45 e4             	mov    %eax,-0x1c(%ebp)
    1449:	83 7d e4 00          	cmpl   $0x0,-0x1c(%ebp)
    144d:	75 a2                	jne    13f1 <free+0x72>
    144f:	83 7d f0 00          	cmpl   $0x0,-0x10(%ebp)
    1453:	74 0e                	je     1463 <free+0xe4>
    1455:	8b 45 e0             	mov    -0x20(%ebp),%eax
    1458:	8b 50 08             	mov    0x8(%eax),%edx
    145b:	8b 45 f0             	mov    -0x10(%ebp),%eax
    145e:	89 50 08             	mov    %edx,0x8(%eax)
    1461:	eb 15                	jmp    1478 <free+0xf9>
    1463:	8b 45 08             	mov    0x8(%ebp),%eax
    1466:	89 c2                	mov    %eax,%edx
    1468:	83 e2 3f             	and    $0x3f,%edx
    146b:	8b 45 e0             	mov    -0x20(%ebp),%eax
    146e:	8b 40 08             	mov    0x8(%eax),%eax
    1471:	89 04 95 a0 51 00 00 	mov    %eax,0x51a0(,%edx,4)
    1478:	83 7d e8 00          	cmpl   $0x0,-0x18(%ebp)
    147c:	0f 84 ca 00 00 00    	je     154c <free+0x1cd>
    1482:	83 7d ec 00          	cmpl   $0x0,-0x14(%ebp)
    1486:	0f 84 c0 00 00 00    	je     154c <free+0x1cd>
    148c:	8b 45 e0             	mov    -0x20(%ebp),%eax
    148f:	8b 08                	mov    (%eax),%ecx
    1491:	8b 45 e8             	mov    -0x18(%ebp),%eax
    1494:	8b 10                	mov    (%eax),%edx
    1496:	8b 45 ec             	mov    -0x14(%ebp),%eax
    1499:	8b 00                	mov    (%eax),%eax
    149b:	8d 04 02             	lea    (%edx,%eax,1),%eax
    149e:	8d 14 01             	lea    (%ecx,%eax,1),%edx
    14a1:	8b 45 e0             	mov    -0x20(%ebp),%eax
    14a4:	89 10                	mov    %edx,(%eax)
    14a6:	8b 45 e8             	mov    -0x18(%ebp),%eax
    14a9:	8b 50 04             	mov    0x4(%eax),%edx
    14ac:	8b 45 e0             	mov    -0x20(%ebp),%eax
    14af:	89 50 04             	mov    %edx,0x4(%eax)
    14b2:	83 7d f4 00          	cmpl   $0x0,-0xc(%ebp)
    14b6:	74 0e                	je     14c6 <free+0x147>
    14b8:	8b 45 ec             	mov    -0x14(%ebp),%eax
    14bb:	8b 50 08             	mov    0x8(%eax),%edx
    14be:	8b 45 f4             	mov    -0xc(%ebp),%eax
    14c1:	89 50 08             	mov    %edx,0x8(%eax)
    14c4:	eb 0b                	jmp    14d1 <free+0x152>
    14c6:	8b 45 ec             	mov    -0x14(%ebp),%eax
    14c9:	8b 40 08             	mov    0x8(%eax),%eax
    14cc:	a3 80 51 00 00       	mov    %eax,0x5180
    14d1:	8b 45 f8             	mov    -0x8(%ebp),%eax
    14d4:	3b 45 ec             	cmp    -0x14(%ebp),%eax
    14d7:	75 21                	jne    14fa <free+0x17b>
    14d9:	83 7d f4 00          	cmpl   $0x0,-0xc(%ebp)
    14dd:	74 0e                	je     14ed <free+0x16e>
    14df:	8b 45 e8             	mov    -0x18(%ebp),%eax
    14e2:	8b 50 08             	mov    0x8(%eax),%edx
    14e5:	8b 45 f4             	mov    -0xc(%ebp),%eax
    14e8:	89 50 08             	mov    %edx,0x8(%eax)
    14eb:	eb 2c                	jmp    1519 <free+0x19a>
    14ed:	8b 45 e8             	mov    -0x18(%ebp),%eax
    14f0:	8b 40 08             	mov    0x8(%eax),%eax
    14f3:	a3 80 51 00 00       	mov    %eax,0x5180
    14f8:	eb 1f                	jmp    1519 <free+0x19a>
    14fa:	83 7d f8 00          	cmpl   $0x0,-0x8(%ebp)
    14fe:	74 0e                	je     150e <free+0x18f>
    1500:	8b 45 e8             	mov    -0x18(%ebp),%eax
    1503:	8b 50 08             	mov    0x8(%eax),%edx
    1506:	8b 45 f8             	mov    -0x8(%ebp),%eax
    1509:	89 50 08             	mov    %edx,0x8(%eax)
    150c:	eb 0b                	jmp    1519 <free+0x19a>
    150e:	8b 45 e8             	mov    -0x18(%ebp),%eax
    1511:	8b 40 08             	mov    0x8(%eax),%eax
    1514:	a3 80 51 00 00       	mov    %eax,0x5180
    1519:	8b 15 80 51 00 00    	mov    0x5180,%edx
    151f:	8b 45 e0             	mov    -0x20(%ebp),%eax
    1522:	89 50 08             	mov    %edx,0x8(%eax)
    1525:	8b 45 e0             	mov    -0x20(%ebp),%eax
    1528:	a3 80 51 00 00       	mov    %eax,0x5180
    152d:	8b 55 e8             	mov    -0x18(%ebp),%edx
    1530:	8b 45 ec             	mov    -0x14(%ebp),%eax
    1533:	89 42 08             	mov    %eax,0x8(%edx)
    1536:	8b 15 84 51 00 00    	mov    0x5184,%edx
    153c:	8b 45 ec             	mov    -0x14(%ebp),%eax
    153f:	89 50 08             	mov    %edx,0x8(%eax)
    1542:	8b 45 e8             	mov    -0x18(%ebp),%eax
    1545:	a3 84 51 00 00       	mov    %eax,0x5184
    154a:	eb 79                	jmp    15c5 <free+0x246>
    154c:	83 7d e8 00          	cmpl   $0x0,-0x18(%ebp)
    1550:	74 27                	je     1579 <free+0x1fa>
    1552:	8b 45 e8             	mov    -0x18(%ebp),%eax
    1555:	8b 10                	mov    (%eax),%edx
    1557:	8b 45 e0             	mov    -0x20(%ebp),%eax
    155a:	8b 00                	mov    (%eax),%eax
    155c:	01 c2                	add    %eax,%edx
    155e:	8b 45 e8             	mov    -0x18(%ebp),%eax
    1561:	89 10                	mov    %edx,(%eax)
    1563:	8b 15 84 51 00 00    	mov    0x5184,%edx
    1569:	8b 45 e0             	mov    -0x20(%ebp),%eax
    156c:	89 50 08             	mov    %edx,0x8(%eax)
    156f:	8b 45 e0             	mov    -0x20(%ebp),%eax
    1572:	a3 84 51 00 00       	mov    %eax,0x5184
    1577:	eb 4c                	jmp    15c5 <free+0x246>
    1579:	83 7d ec 00          	cmpl   $0x0,-0x14(%ebp)
    157d:	74 33                	je     15b2 <free+0x233>
    157f:	8b 45 e0             	mov    -0x20(%ebp),%eax
    1582:	8b 50 04             	mov    0x4(%eax),%edx
    1585:	8b 45 ec             	mov    -0x14(%ebp),%eax
    1588:	89 50 04             	mov    %edx,0x4(%eax)
    158b:	8b 45 ec             	mov    -0x14(%ebp),%eax
    158e:	8b 10                	mov    (%eax),%edx
    1590:	8b 45 e0             	mov    -0x20(%ebp),%eax
    1593:	8b 00                	mov    (%eax),%eax
    1595:	01 c2                	add    %eax,%edx
    1597:	8b 45 ec             	mov    -0x14(%ebp),%eax
    159a:	89 10                	mov    %edx,(%eax)
    159c:	8b 15 84 51 00 00    	mov    0x5184,%edx
    15a2:	8b 45 e0             	mov    -0x20(%ebp),%eax
    15a5:	89 50 08             	mov    %edx,0x8(%eax)
    15a8:	8b 45 e0             	mov    -0x20(%ebp),%eax
    15ab:	a3 84 51 00 00       	mov    %eax,0x5184
    15b0:	eb 13                	jmp    15c5 <free+0x246>
    15b2:	a1 80 51 00 00       	mov    0x5180,%eax
    15b7:	8b 55 e0             	mov    -0x20(%ebp),%edx
    15ba:	89 42 08             	mov    %eax,0x8(%edx)
    15bd:	8b 45 e0             	mov    -0x20(%ebp),%eax
    15c0:	a3 80 51 00 00       	mov    %eax,0x5180
    15c5:	c9                   	leave  
    15c6:	c3                   	ret    

000015c7 <realloc>:
    15c7:	55                   	push   %ebp
    15c8:	89 e5                	mov    %esp,%ebp
    15ca:	b8 00 00 00 00       	mov    $0x0,%eax
    15cf:	5d                   	pop    %ebp
    15d0:	c3                   	ret    

000015d1 <printHeap>:
    15d1:	55                   	push   %ebp
    15d2:	89 e5                	mov    %esp,%ebp
    15d4:	83 ec 28             	sub    $0x28,%esp
    15d7:	c7 04 24 4c 43 00 00 	movl   $0x434c,(%esp)
    15de:	e8 76 f9 ff ff       	call   f59 <debugf>
    15e3:	a1 80 51 00 00       	mov    0x5180,%eax
    15e8:	89 45 f8             	mov    %eax,-0x8(%ebp)
    15eb:	eb 39                	jmp    1626 <printHeap+0x55>
    15ed:	8b 45 f8             	mov    -0x8(%ebp),%eax
    15f0:	8b 50 08             	mov    0x8(%eax),%edx
    15f3:	8b 45 f8             	mov    -0x8(%ebp),%eax
    15f6:	8b 08                	mov    (%eax),%ecx
    15f8:	8b 45 f8             	mov    -0x8(%ebp),%eax
    15fb:	8b 40 04             	mov    0x4(%eax),%eax
    15fe:	89 54 24 10          	mov    %edx,0x10(%esp)
    1602:	89 4c 24 0c          	mov    %ecx,0xc(%esp)
    1606:	89 44 24 08          	mov    %eax,0x8(%esp)
    160a:	8b 45 f8             	mov    -0x8(%ebp),%eax
    160d:	89 44 24 04          	mov    %eax,0x4(%esp)
    1611:	c7 04 24 5c 43 00 00 	movl   $0x435c,(%esp)
    1618:	e8 3c f9 ff ff       	call   f59 <debugf>
    161d:	8b 45 f8             	mov    -0x8(%ebp),%eax
    1620:	8b 40 08             	mov    0x8(%eax),%eax
    1623:	89 45 f8             	mov    %eax,-0x8(%ebp)
    1626:	83 7d f8 00          	cmpl   $0x0,-0x8(%ebp)
    162a:	75 c1                	jne    15ed <printHeap+0x1c>
    162c:	c7 04 24 84 43 00 00 	movl   $0x4384,(%esp)
    1633:	e8 21 f9 ff ff       	call   f59 <debugf>
    1638:	a1 84 51 00 00       	mov    0x5184,%eax
    163d:	89 45 f8             	mov    %eax,-0x8(%ebp)
    1640:	eb 39                	jmp    167b <printHeap+0xaa>
    1642:	8b 45 f8             	mov    -0x8(%ebp),%eax
    1645:	8b 50 08             	mov    0x8(%eax),%edx
    1648:	8b 45 f8             	mov    -0x8(%ebp),%eax
    164b:	8b 08                	mov    (%eax),%ecx
    164d:	8b 45 f8             	mov    -0x8(%ebp),%eax
    1650:	8b 40 04             	mov    0x4(%eax),%eax
    1653:	89 54 24 10          	mov    %edx,0x10(%esp)
    1657:	89 4c 24 0c          	mov    %ecx,0xc(%esp)
    165b:	89 44 24 08          	mov    %eax,0x8(%esp)
    165f:	8b 45 f8             	mov    -0x8(%ebp),%eax
    1662:	89 44 24 04          	mov    %eax,0x4(%esp)
    1666:	c7 04 24 5c 43 00 00 	movl   $0x435c,(%esp)
    166d:	e8 e7 f8 ff ff       	call   f59 <debugf>
    1672:	8b 45 f8             	mov    -0x8(%ebp),%eax
    1675:	8b 40 08             	mov    0x8(%eax),%eax
    1678:	89 45 f8             	mov    %eax,-0x8(%ebp)
    167b:	83 7d f8 00          	cmpl   $0x0,-0x8(%ebp)
    167f:	75 c1                	jne    1642 <printHeap+0x71>
    1681:	c7 04 24 8f 43 00 00 	movl   $0x438f,(%esp)
    1688:	e8 cc f8 ff ff       	call   f59 <debugf>
    168d:	c7 45 fc 00 00 00 00 	movl   $0x0,-0x4(%ebp)
    1694:	eb 6b                	jmp    1701 <printHeap+0x130>
    1696:	8b 45 fc             	mov    -0x4(%ebp),%eax
    1699:	8b 04 85 a0 51 00 00 	mov    0x51a0(,%eax,4),%eax
    16a0:	89 45 f8             	mov    %eax,-0x8(%ebp)
    16a3:	83 7d f8 00          	cmpl   $0x0,-0x8(%ebp)
    16a7:	74 54                	je     16fd <printHeap+0x12c>
    16a9:	8b 45 fc             	mov    -0x4(%ebp),%eax
    16ac:	89 44 24 04          	mov    %eax,0x4(%esp)
    16b0:	c7 04 24 9d 43 00 00 	movl   $0x439d,(%esp)
    16b7:	e8 9d f8 ff ff       	call   f59 <debugf>
    16bc:	eb 39                	jmp    16f7 <printHeap+0x126>
    16be:	8b 45 f8             	mov    -0x8(%ebp),%eax
    16c1:	8b 50 08             	mov    0x8(%eax),%edx
    16c4:	8b 45 f8             	mov    -0x8(%ebp),%eax
    16c7:	8b 08                	mov    (%eax),%ecx
    16c9:	8b 45 f8             	mov    -0x8(%ebp),%eax
    16cc:	8b 40 04             	mov    0x4(%eax),%eax
    16cf:	89 54 24 10          	mov    %edx,0x10(%esp)
    16d3:	89 4c 24 0c          	mov    %ecx,0xc(%esp)
    16d7:	89 44 24 08          	mov    %eax,0x8(%esp)
    16db:	8b 45 f8             	mov    -0x8(%ebp),%eax
    16de:	89 44 24 04          	mov    %eax,0x4(%esp)
    16e2:	c7 04 24 a4 43 00 00 	movl   $0x43a4,(%esp)
    16e9:	e8 6b f8 ff ff       	call   f59 <debugf>
    16ee:	8b 45 f8             	mov    -0x8(%ebp),%eax
    16f1:	8b 40 08             	mov    0x8(%eax),%eax
    16f4:	89 45 f8             	mov    %eax,-0x8(%ebp)
    16f7:	83 7d f8 00          	cmpl   $0x0,-0x8(%ebp)
    16fb:	75 c1                	jne    16be <printHeap+0xed>
    16fd:	83 45 fc 01          	addl   $0x1,-0x4(%ebp)
    1701:	83 7d fc 3f          	cmpl   $0x3f,-0x4(%ebp)
    1705:	76 8f                	jbe    1696 <printHeap+0xc5>
    1707:	c9                   	leave  
    1708:	c3                   	ret    

00001709 <loadNewSpace>:
    1709:	55                   	push   %ebp
    170a:	89 e5                	mov    %esp,%ebp
    170c:	83 ec 18             	sub    $0x18,%esp
    170f:	a1 84 51 00 00       	mov    0x5184,%eax
    1714:	85 c0                	test   %eax,%eax
    1716:	75 15                	jne    172d <loadNewSpace+0x24>
    1718:	e8 97 00 00 00       	call   17b4 <loadNewAreas>
    171d:	85 c0                	test   %eax,%eax
    171f:	75 0c                	jne    172d <loadNewSpace+0x24>
    1721:	c7 45 ec 00 00 00 00 	movl   $0x0,-0x14(%ebp)
    1728:	e9 82 00 00 00       	jmp    17af <loadNewSpace+0xa6>
    172d:	8b 45 08             	mov    0x8(%ebp),%eax
    1730:	05 ff 0f 00 00       	add    $0xfff,%eax
    1735:	c1 e8 0c             	shr    $0xc,%eax
    1738:	89 45 fc             	mov    %eax,-0x4(%ebp)
    173b:	8b 45 fc             	mov    -0x4(%ebp),%eax
    173e:	89 04 24             	mov    %eax,(%esp)
    1741:	e8 da 0c 00 00       	call   2420 <changeSize>
    1746:	89 45 f4             	mov    %eax,-0xc(%ebp)
    1749:	83 7d f4 00          	cmpl   $0x0,-0xc(%ebp)
    174d:	79 15                	jns    1764 <loadNewSpace+0x5b>
    174f:	c7 04 24 ff ff ff ff 	movl   $0xffffffff,(%esp)
    1756:	e8 c5 0c 00 00       	call   2420 <changeSize>
    175b:	c7 45 ec 00 00 00 00 	movl   $0x0,-0x14(%ebp)
    1762:	eb 4b                	jmp    17af <loadNewSpace+0xa6>
    1764:	a1 84 51 00 00       	mov    0x5184,%eax
    1769:	89 45 f8             	mov    %eax,-0x8(%ebp)
    176c:	a1 84 51 00 00       	mov    0x5184,%eax
    1771:	8b 40 08             	mov    0x8(%eax),%eax
    1774:	a3 84 51 00 00       	mov    %eax,0x5184
    1779:	8b 45 f4             	mov    -0xc(%ebp),%eax
    177c:	c1 e0 0c             	shl    $0xc,%eax
    177f:	89 c2                	mov    %eax,%edx
    1781:	8b 45 f8             	mov    -0x8(%ebp),%eax
    1784:	89 50 04             	mov    %edx,0x4(%eax)
    1787:	8b 45 fc             	mov    -0x4(%ebp),%eax
    178a:	c1 e0 0c             	shl    $0xc,%eax
    178d:	89 c2                	mov    %eax,%edx
    178f:	8b 45 f8             	mov    -0x8(%ebp),%eax
    1792:	89 10                	mov    %edx,(%eax)
    1794:	8b 15 80 51 00 00    	mov    0x5180,%edx
    179a:	8b 45 f8             	mov    -0x8(%ebp),%eax
    179d:	89 50 08             	mov    %edx,0x8(%eax)
    17a0:	8b 45 f8             	mov    -0x8(%ebp),%eax
    17a3:	a3 80 51 00 00       	mov    %eax,0x5180
    17a8:	c7 45 ec 01 00 00 00 	movl   $0x1,-0x14(%ebp)
    17af:	8b 45 ec             	mov    -0x14(%ebp),%eax
    17b2:	c9                   	leave  
    17b3:	c3                   	ret    

000017b4 <loadNewAreas>:
    17b4:	55                   	push   %ebp
    17b5:	89 e5                	mov    %esp,%ebp
    17b7:	83 ec 18             	sub    $0x18,%esp
    17ba:	c7 04 24 01 00 00 00 	movl   $0x1,(%esp)
    17c1:	e8 5a 0c 00 00       	call   2420 <changeSize>
    17c6:	89 45 fc             	mov    %eax,-0x4(%ebp)
    17c9:	83 7d fc 00          	cmpl   $0x0,-0x4(%ebp)
    17cd:	79 09                	jns    17d8 <loadNewAreas+0x24>
    17cf:	c7 45 ec 00 00 00 00 	movl   $0x0,-0x14(%ebp)
    17d6:	eb 48                	jmp    1820 <loadNewAreas+0x6c>
    17d8:	8b 45 fc             	mov    -0x4(%ebp),%eax
    17db:	c1 e0 0c             	shl    $0xc,%eax
    17de:	89 45 f4             	mov    %eax,-0xc(%ebp)
    17e1:	8b 45 f4             	mov    -0xc(%ebp),%eax
    17e4:	05 fc 0f 00 00       	add    $0xffc,%eax
    17e9:	89 45 f8             	mov    %eax,-0x8(%ebp)
    17ec:	8b 45 f4             	mov    -0xc(%ebp),%eax
    17ef:	a3 84 51 00 00       	mov    %eax,0x5184
    17f4:	83 45 f4 0c          	addl   $0xc,-0xc(%ebp)
    17f8:	eb 17                	jmp    1811 <loadNewAreas+0x5d>
    17fa:	a1 84 51 00 00       	mov    0x5184,%eax
    17ff:	8b 55 f4             	mov    -0xc(%ebp),%edx
    1802:	89 42 08             	mov    %eax,0x8(%edx)
    1805:	8b 45 f4             	mov    -0xc(%ebp),%eax
    1808:	a3 84 51 00 00       	mov    %eax,0x5184
    180d:	83 45 f4 0c          	addl   $0xc,-0xc(%ebp)
    1811:	8b 45 f4             	mov    -0xc(%ebp),%eax
    1814:	3b 45 f8             	cmp    -0x8(%ebp),%eax
    1817:	72 e1                	jb     17fa <loadNewAreas+0x46>
    1819:	c7 45 ec 01 00 00 00 	movl   $0x1,-0x14(%ebp)
    1820:	8b 45 ec             	mov    -0x14(%ebp),%eax
    1823:	c9                   	leave  
    1824:	c3                   	ret    
    1825:	00 00                	add    %al,(%eax)
	...

00001828 <requestIOPort>:
    1828:	55                   	push   %ebp
    1829:	89 e5                	mov    %esp,%ebp
    182b:	83 ec 18             	sub    $0x18,%esp
    182e:	8b 45 08             	mov    0x8(%ebp),%eax
    1831:	66 89 45 fc          	mov    %ax,-0x4(%ebp)
    1835:	0f b7 45 fc          	movzwl -0x4(%ebp),%eax
    1839:	c7 44 24 04 01 00 00 	movl   $0x1,0x4(%esp)
    1840:	00 
    1841:	89 04 24             	mov    %eax,(%esp)
    1844:	e8 6e 0a 00 00       	call   22b7 <requestIOPorts>
    1849:	c9                   	leave  
    184a:	c3                   	ret    

0000184b <releaseIOPort>:
    184b:	55                   	push   %ebp
    184c:	89 e5                	mov    %esp,%ebp
    184e:	83 ec 18             	sub    $0x18,%esp
    1851:	8b 45 08             	mov    0x8(%ebp),%eax
    1854:	66 89 45 fc          	mov    %ax,-0x4(%ebp)
    1858:	0f b7 45 fc          	movzwl -0x4(%ebp),%eax
    185c:	c7 44 24 04 01 00 00 	movl   $0x1,0x4(%esp)
    1863:	00 
    1864:	89 04 24             	mov    %eax,(%esp)
    1867:	e8 7b 0a 00 00       	call   22e7 <releaseIOPorts>
    186c:	c9                   	leave  
    186d:	c3                   	ret    

0000186e <initIO>:
    186e:	55                   	push   %ebp
    186f:	89 e5                	mov    %esp,%ebp
    1871:	83 ec 18             	sub    $0x18,%esp
    1874:	c7 44 24 04 01 00 00 	movl   $0x1,0x4(%esp)
    187b:	00 
    187c:	c7 04 24 d0 43 00 00 	movl   $0x43d0,(%esp)
    1883:	e8 8f 0a 00 00       	call   2317 <open>
    1888:	89 45 f8             	mov    %eax,-0x8(%ebp)
    188b:	83 7d f8 00          	cmpl   $0x0,-0x8(%ebp)
    188f:	79 05                	jns    1896 <initIO+0x28>
    1891:	e8 32 0c 00 00       	call   24c8 <yield>
    1896:	83 7d f8 00          	cmpl   $0x0,-0x8(%ebp)
    189a:	78 d8                	js     1874 <initIO+0x6>
    189c:	c7 44 24 04 02 00 00 	movl   $0x2,0x4(%esp)
    18a3:	00 
    18a4:	c7 04 24 d0 43 00 00 	movl   $0x43d0,(%esp)
    18ab:	e8 67 0a 00 00       	call   2317 <open>
    18b0:	89 45 fc             	mov    %eax,-0x4(%ebp)
    18b3:	83 7d fc 00          	cmpl   $0x0,-0x4(%ebp)
    18b7:	79 05                	jns    18be <initIO+0x50>
    18b9:	e8 0a 0c 00 00       	call   24c8 <yield>
    18be:	83 7d fc 00          	cmpl   $0x0,-0x4(%ebp)
    18c2:	78 d8                	js     189c <initIO+0x2e>
    18c4:	8b 45 fc             	mov    -0x4(%ebp),%eax
    18c7:	0f b7 c0             	movzwl %ax,%eax
    18ca:	89 04 24             	mov    %eax,(%esp)
    18cd:	e8 dd 0a 00 00       	call   23af <dupFd>
    18d2:	c9                   	leave  
    18d3:	c3                   	ret    

000018d4 <readChar>:
    18d4:	55                   	push   %ebp
    18d5:	89 e5                	mov    %esp,%ebp
    18d7:	83 ec 28             	sub    $0x28,%esp
    18da:	eb 05                	jmp    18e1 <readChar+0xd>
    18dc:	e8 f9 0b 00 00       	call   24da <sleep>
    18e1:	c7 44 24 08 01 00 00 	movl   $0x1,0x8(%esp)
    18e8:	00 
    18e9:	8d 45 ff             	lea    -0x1(%ebp),%eax
    18ec:	89 44 24 04          	mov    %eax,0x4(%esp)
    18f0:	c7 04 24 00 00 00 00 	movl   $0x0,(%esp)
    18f7:	e8 4b 0a 00 00       	call   2347 <read>
    18fc:	85 c0                	test   %eax,%eax
    18fe:	7e dc                	jle    18dc <readChar+0x8>
    1900:	0f b6 45 ff          	movzbl -0x1(%ebp),%eax
    1904:	c9                   	leave  
    1905:	c3                   	ret    

00001906 <readLine>:
    1906:	55                   	push   %ebp
    1907:	89 e5                	mov    %esp,%ebp
    1909:	83 ec 38             	sub    $0x38,%esp
    190c:	8b 45 0c             	mov    0xc(%ebp),%eax
    190f:	66 89 45 ec          	mov    %ax,-0x14(%ebp)
    1913:	66 c7 45 fa 00 00    	movw   $0x0,-0x6(%ebp)
    1919:	66 c7 45 f8 00 00    	movw   $0x0,-0x8(%ebp)
    191f:	e9 89 00 00 00       	jmp    19ad <readLine+0xa7>
    1924:	e8 ab ff ff ff       	call   18d4 <readChar>
    1929:	88 45 ff             	mov    %al,-0x1(%ebp)
    192c:	0f be 55 ff          	movsbl -0x1(%ebp),%edx
    1930:	8d 45 fd             	lea    -0x3(%ebp),%eax
    1933:	89 44 24 14          	mov    %eax,0x14(%esp)
    1937:	8d 45 fe             	lea    -0x2(%ebp),%eax
    193a:	89 44 24 10          	mov    %eax,0x10(%esp)
    193e:	89 54 24 0c          	mov    %edx,0xc(%esp)
    1942:	8d 45 f8             	lea    -0x8(%ebp),%eax
    1945:	89 44 24 08          	mov    %eax,0x8(%esp)
    1949:	8d 45 fa             	lea    -0x6(%ebp),%eax
    194c:	89 44 24 04          	mov    %eax,0x4(%esp)
    1950:	8b 45 08             	mov    0x8(%ebp),%eax
    1953:	89 04 24             	mov    %eax,(%esp)
    1956:	e8 73 00 00 00       	call   19ce <handleDefaultEscapeCodes>
    195b:	85 c0                	test   %eax,%eax
    195d:	75 4e                	jne    19ad <readLine+0xa7>
    195f:	80 7d ff 1b          	cmpb   $0x1b,-0x1(%ebp)
    1963:	74 48                	je     19ad <readLine+0xa7>
    1965:	0f be 45 ff          	movsbl -0x1(%ebp),%eax
    1969:	89 04 24             	mov    %eax,(%esp)
    196c:	e8 4d 05 00 00       	call   1ebe <putchar>
    1971:	e8 85 05 00 00       	call   1efb <flush>
    1976:	80 7d ff 0a          	cmpb   $0xa,-0x1(%ebp)
    197a:	74 3f                	je     19bb <readLine+0xb5>
    197c:	0f b7 4d fa          	movzwl -0x6(%ebp),%ecx
    1980:	0f b7 c1             	movzwl %cx,%eax
    1983:	89 c2                	mov    %eax,%edx
    1985:	03 55 08             	add    0x8(%ebp),%edx
    1988:	0f b6 45 ff          	movzbl -0x1(%ebp),%eax
    198c:	88 02                	mov    %al,(%edx)
    198e:	8d 41 01             	lea    0x1(%ecx),%eax
    1991:	66 89 45 fa          	mov    %ax,-0x6(%ebp)
    1995:	0f b7 55 fa          	movzwl -0x6(%ebp),%edx
    1999:	0f b7 45 f8          	movzwl -0x8(%ebp),%eax
    199d:	66 39 c2             	cmp    %ax,%dx
    19a0:	76 0b                	jbe    19ad <readLine+0xa7>
    19a2:	0f b7 45 f8          	movzwl -0x8(%ebp),%eax
    19a6:	83 c0 01             	add    $0x1,%eax
    19a9:	66 89 45 f8          	mov    %ax,-0x8(%ebp)
    19ad:	0f b7 45 f8          	movzwl -0x8(%ebp),%eax
    19b1:	66 3b 45 ec          	cmp    -0x14(%ebp),%ax
    19b5:	0f 82 69 ff ff ff    	jb     1924 <readLine+0x1e>
    19bb:	0f b7 45 f8          	movzwl -0x8(%ebp),%eax
    19bf:	0f b7 c0             	movzwl %ax,%eax
    19c2:	03 45 08             	add    0x8(%ebp),%eax
    19c5:	c6 00 00             	movb   $0x0,(%eax)
    19c8:	0f b7 45 f8          	movzwl -0x8(%ebp),%eax
    19cc:	c9                   	leave  
    19cd:	c3                   	ret    

000019ce <handleDefaultEscapeCodes>:
    19ce:	55                   	push   %ebp
    19cf:	89 e5                	mov    %esp,%ebp
    19d1:	83 ec 28             	sub    $0x28,%esp
    19d4:	8b 45 14             	mov    0x14(%ebp),%eax
    19d7:	88 45 ec             	mov    %al,-0x14(%ebp)
    19da:	c7 45 f4 00 00 00 00 	movl   $0x0,-0xc(%ebp)
    19e1:	8b 45 0c             	mov    0xc(%ebp),%eax
    19e4:	0f b7 00             	movzwl (%eax),%eax
    19e7:	66 89 45 f8          	mov    %ax,-0x8(%ebp)
    19eb:	8b 45 10             	mov    0x10(%ebp),%eax
    19ee:	0f b7 00             	movzwl (%eax),%eax
    19f1:	66 89 45 fa          	mov    %ax,-0x6(%ebp)
    19f5:	0f be 45 ec          	movsbl -0x14(%ebp),%eax
    19f9:	89 45 e4             	mov    %eax,-0x1c(%ebp)
    19fc:	83 7d e4 08          	cmpl   $0x8,-0x1c(%ebp)
    1a00:	74 0b                	je     1a0d <handleDefaultEscapeCodes+0x3f>
    1a02:	83 7d e4 1b          	cmpl   $0x1b,-0x1c(%ebp)
    1a06:	74 7a                	je     1a82 <handleDefaultEscapeCodes+0xb4>
    1a08:	e9 98 01 00 00       	jmp    1ba5 <handleDefaultEscapeCodes+0x1d7>
    1a0d:	66 83 7d f8 00       	cmpw   $0x0,-0x8(%ebp)
    1a12:	74 62                	je     1a76 <handleDefaultEscapeCodes+0xa8>
    1a14:	0f b7 45 f8          	movzwl -0x8(%ebp),%eax
    1a18:	66 3b 45 fa          	cmp    -0x6(%ebp),%ax
    1a1c:	73 33                	jae    1a51 <handleDefaultEscapeCodes+0x83>
    1a1e:	0f b7 55 fa          	movzwl -0x6(%ebp),%edx
    1a22:	0f b7 45 f8          	movzwl -0x8(%ebp),%eax
    1a26:	89 d1                	mov    %edx,%ecx
    1a28:	29 c1                	sub    %eax,%ecx
    1a2a:	89 c8                	mov    %ecx,%eax
    1a2c:	89 c1                	mov    %eax,%ecx
    1a2e:	0f b7 45 f8          	movzwl -0x8(%ebp),%eax
    1a32:	89 c2                	mov    %eax,%edx
    1a34:	03 55 08             	add    0x8(%ebp),%edx
    1a37:	0f b7 45 f8          	movzwl -0x8(%ebp),%eax
    1a3b:	83 e8 01             	sub    $0x1,%eax
    1a3e:	03 45 08             	add    0x8(%ebp),%eax
    1a41:	89 4c 24 08          	mov    %ecx,0x8(%esp)
    1a45:	89 54 24 04          	mov    %edx,0x4(%esp)
    1a49:	89 04 24             	mov    %eax,(%esp)
    1a4c:	e8 c0 0e 00 00       	call   2911 <memmove>
    1a51:	66 83 6d fa 01       	subw   $0x1,-0x6(%ebp)
    1a56:	66 83 6d f8 01       	subw   $0x1,-0x8(%ebp)
    1a5b:	0f b7 45 fa          	movzwl -0x6(%ebp),%eax
    1a5f:	03 45 08             	add    0x8(%ebp),%eax
    1a62:	c6 00 00             	movb   $0x0,(%eax)
    1a65:	0f be 45 ec          	movsbl -0x14(%ebp),%eax
    1a69:	89 04 24             	mov    %eax,(%esp)
    1a6c:	e8 4d 04 00 00       	call   1ebe <putchar>
    1a71:	e8 85 04 00 00       	call   1efb <flush>
    1a76:	c7 45 f4 01 00 00 00 	movl   $0x1,-0xc(%ebp)
    1a7d:	e9 23 01 00 00       	jmp    1ba5 <handleDefaultEscapeCodes+0x1d7>
    1a82:	c7 45 fc 00 00 00 00 	movl   $0x0,-0x4(%ebp)
    1a89:	e8 46 fe ff ff       	call   18d4 <readChar>
    1a8e:	89 c2                	mov    %eax,%edx
    1a90:	8b 45 18             	mov    0x18(%ebp),%eax
    1a93:	88 10                	mov    %dl,(%eax)
    1a95:	e8 3a fe ff ff       	call   18d4 <readChar>
    1a9a:	89 c2                	mov    %eax,%edx
    1a9c:	8b 45 1c             	mov    0x1c(%ebp),%eax
    1a9f:	88 10                	mov    %dl,(%eax)
    1aa1:	8b 45 18             	mov    0x18(%ebp),%eax
    1aa4:	0f b6 00             	movzbl (%eax),%eax
    1aa7:	0f b6 c0             	movzbl %al,%eax
    1aaa:	89 45 e8             	mov    %eax,-0x18(%ebp)
    1aad:	83 7d e8 50          	cmpl   $0x50,-0x18(%ebp)
    1ab1:	74 44                	je     1af7 <handleDefaultEscapeCodes+0x129>
    1ab3:	83 7d e8 50          	cmpl   $0x50,-0x18(%ebp)
    1ab7:	7f 0f                	jg     1ac8 <handleDefaultEscapeCodes+0xfa>
    1ab9:	83 7d e8 4f          	cmpl   $0x4f,-0x18(%ebp)
    1abd:	0f 84 8f 00 00 00    	je     1b52 <handleDefaultEscapeCodes+0x184>
    1ac3:	e9 a4 00 00 00       	jmp    1b6c <handleDefaultEscapeCodes+0x19e>
    1ac8:	83 7d e8 51          	cmpl   $0x51,-0x18(%ebp)
    1acc:	74 51                	je     1b1f <handleDefaultEscapeCodes+0x151>
    1ace:	83 7d e8 59          	cmpl   $0x59,-0x18(%ebp)
    1ad2:	0f 85 94 00 00 00    	jne    1b6c <handleDefaultEscapeCodes+0x19e>
    1ad8:	0f b7 45 f8          	movzwl -0x8(%ebp),%eax
    1adc:	66 3b 45 fa          	cmp    -0x6(%ebp),%ax
    1ae0:	73 0c                	jae    1aee <handleDefaultEscapeCodes+0x120>
    1ae2:	c7 45 fc 01 00 00 00 	movl   $0x1,-0x4(%ebp)
    1ae9:	66 83 45 f8 01       	addw   $0x1,-0x8(%ebp)
    1aee:	c7 45 f4 01 00 00 00 	movl   $0x1,-0xc(%ebp)
    1af5:	eb 75                	jmp    1b6c <handleDefaultEscapeCodes+0x19e>
    1af7:	66 83 7d f8 00       	cmpw   $0x0,-0x8(%ebp)
    1afc:	74 18                	je     1b16 <handleDefaultEscapeCodes+0x148>
    1afe:	c7 45 fc 01 00 00 00 	movl   $0x1,-0x4(%ebp)
    1b05:	0f b7 45 f8          	movzwl -0x8(%ebp),%eax
    1b09:	89 c2                	mov    %eax,%edx
    1b0b:	8b 45 1c             	mov    0x1c(%ebp),%eax
    1b0e:	88 10                	mov    %dl,(%eax)
    1b10:	66 c7 45 f8 00 00    	movw   $0x0,-0x8(%ebp)
    1b16:	c7 45 f4 01 00 00 00 	movl   $0x1,-0xc(%ebp)
    1b1d:	eb 4d                	jmp    1b6c <handleDefaultEscapeCodes+0x19e>
    1b1f:	0f b7 45 f8          	movzwl -0x8(%ebp),%eax
    1b23:	66 3b 45 fa          	cmp    -0x6(%ebp),%ax
    1b27:	73 20                	jae    1b49 <handleDefaultEscapeCodes+0x17b>
    1b29:	c7 45 fc 01 00 00 00 	movl   $0x1,-0x4(%ebp)
    1b30:	0f b7 45 fa          	movzwl -0x6(%ebp),%eax
    1b34:	89 c2                	mov    %eax,%edx
    1b36:	0f b7 45 f8          	movzwl -0x8(%ebp),%eax
    1b3a:	28 c2                	sub    %al,%dl
    1b3c:	8b 45 1c             	mov    0x1c(%ebp),%eax
    1b3f:	88 10                	mov    %dl,(%eax)
    1b41:	0f b7 45 fa          	movzwl -0x6(%ebp),%eax
    1b45:	66 89 45 f8          	mov    %ax,-0x8(%ebp)
    1b49:	c7 45 f4 01 00 00 00 	movl   $0x1,-0xc(%ebp)
    1b50:	eb 1a                	jmp    1b6c <handleDefaultEscapeCodes+0x19e>
    1b52:	66 83 7d f8 00       	cmpw   $0x0,-0x8(%ebp)
    1b57:	74 0c                	je     1b65 <handleDefaultEscapeCodes+0x197>
    1b59:	c7 45 fc 01 00 00 00 	movl   $0x1,-0x4(%ebp)
    1b60:	66 83 6d f8 01       	subw   $0x1,-0x8(%ebp)
    1b65:	c7 45 f4 01 00 00 00 	movl   $0x1,-0xc(%ebp)
    1b6c:	83 7d fc 00          	cmpl   $0x0,-0x4(%ebp)
    1b70:	74 33                	je     1ba5 <handleDefaultEscapeCodes+0x1d7>
    1b72:	0f be 45 ec          	movsbl -0x14(%ebp),%eax
    1b76:	89 04 24             	mov    %eax,(%esp)
    1b79:	e8 40 03 00 00       	call   1ebe <putchar>
    1b7e:	8b 45 18             	mov    0x18(%ebp),%eax
    1b81:	0f b6 00             	movzbl (%eax),%eax
    1b84:	0f be c0             	movsbl %al,%eax
    1b87:	89 04 24             	mov    %eax,(%esp)
    1b8a:	e8 2f 03 00 00       	call   1ebe <putchar>
    1b8f:	8b 45 1c             	mov    0x1c(%ebp),%eax
    1b92:	0f b6 00             	movzbl (%eax),%eax
    1b95:	0f be c0             	movsbl %al,%eax
    1b98:	89 04 24             	mov    %eax,(%esp)
    1b9b:	e8 1e 03 00 00       	call   1ebe <putchar>
    1ba0:	e8 56 03 00 00       	call   1efb <flush>
    1ba5:	8b 55 0c             	mov    0xc(%ebp),%edx
    1ba8:	0f b7 45 f8          	movzwl -0x8(%ebp),%eax
    1bac:	66 89 02             	mov    %ax,(%edx)
    1baf:	8b 55 10             	mov    0x10(%ebp),%edx
    1bb2:	0f b7 45 fa          	movzwl -0x6(%ebp),%eax
    1bb6:	66 89 02             	mov    %ax,(%edx)
    1bb9:	8b 45 f4             	mov    -0xc(%ebp),%eax
    1bbc:	c9                   	leave  
    1bbd:	c3                   	ret    

00001bbe <printf>:
    1bbe:	55                   	push   %ebp
    1bbf:	89 e5                	mov    %esp,%ebp
    1bc1:	83 ec 18             	sub    $0x18,%esp
    1bc4:	8d 45 0c             	lea    0xc(%ebp),%eax
    1bc7:	89 45 fc             	mov    %eax,-0x4(%ebp)
    1bca:	8b 45 fc             	mov    -0x4(%ebp),%eax
    1bcd:	89 44 24 04          	mov    %eax,0x4(%esp)
    1bd1:	8b 45 08             	mov    0x8(%ebp),%eax
    1bd4:	89 04 24             	mov    %eax,(%esp)
    1bd7:	e8 02 00 00 00       	call   1bde <vprintf>
    1bdc:	c9                   	leave  
    1bdd:	c3                   	ret    

00001bde <vprintf>:
    1bde:	55                   	push   %ebp
    1bdf:	89 e5                	mov    %esp,%ebp
    1be1:	83 ec 38             	sub    $0x38,%esp
    1be4:	e9 89 00 00 00       	jmp    1c72 <vprintf+0x94>
    1be9:	80 7d e8 1b          	cmpb   $0x1b,-0x18(%ebp)
    1bed:	74 06                	je     1bf5 <vprintf+0x17>
    1bef:	80 7d e8 1b          	cmpb   $0x1b,-0x18(%ebp)
    1bf3:	75 64                	jne    1c59 <vprintf+0x7b>
    1bf5:	8b 45 08             	mov    0x8(%ebp),%eax
    1bf8:	0f b6 00             	movzbl (%eax),%eax
    1bfb:	3c 5b                	cmp    $0x5b,%al
    1bfd:	75 5a                	jne    1c59 <vprintf+0x7b>
    1bff:	8b 45 08             	mov    0x8(%ebp),%eax
    1c02:	83 e8 01             	sub    $0x1,%eax
    1c05:	89 45 fc             	mov    %eax,-0x4(%ebp)
    1c08:	83 45 08 01          	addl   $0x1,0x8(%ebp)
    1c0c:	eb 04                	jmp    1c12 <vprintf+0x34>
    1c0e:	83 45 08 01          	addl   $0x1,0x8(%ebp)
    1c12:	8b 45 08             	mov    0x8(%ebp),%eax
    1c15:	0f b6 00             	movzbl (%eax),%eax
    1c18:	84 c0                	test   %al,%al
    1c1a:	74 0a                	je     1c26 <vprintf+0x48>
    1c1c:	8b 45 08             	mov    0x8(%ebp),%eax
    1c1f:	0f b6 00             	movzbl (%eax),%eax
    1c22:	3c 6d                	cmp    $0x6d,%al
    1c24:	75 e8                	jne    1c0e <vprintf+0x30>
    1c26:	8b 45 08             	mov    0x8(%ebp),%eax
    1c29:	89 c2                	mov    %eax,%edx
    1c2b:	8b 45 fc             	mov    -0x4(%ebp),%eax
    1c2e:	89 d1                	mov    %edx,%ecx
    1c30:	28 c1                	sub    %al,%cl
    1c32:	89 c8                	mov    %ecx,%eax
    1c34:	83 c0 01             	add    $0x1,%eax
    1c37:	0f b6 c0             	movzbl %al,%eax
    1c3a:	89 44 24 04          	mov    %eax,0x4(%esp)
    1c3e:	8b 45 fc             	mov    -0x4(%ebp),%eax
    1c41:	89 04 24             	mov    %eax,(%esp)
    1c44:	e8 1c 03 00 00       	call   1f65 <putEscape>
    1c49:	8b 45 08             	mov    0x8(%ebp),%eax
    1c4c:	0f b6 00             	movzbl (%eax),%eax
    1c4f:	84 c0                	test   %al,%al
    1c51:	74 1f                	je     1c72 <vprintf+0x94>
    1c53:	83 45 08 01          	addl   $0x1,0x8(%ebp)
    1c57:	eb 19                	jmp    1c72 <vprintf+0x94>
    1c59:	80 7d e8 00          	cmpb   $0x0,-0x18(%ebp)
    1c5d:	75 07                	jne    1c66 <vprintf+0x88>
    1c5f:	e8 97 02 00 00       	call   1efb <flush>
    1c64:	c9                   	leave  
    1c65:	c3                   	ret    
    1c66:	0f be 45 e8          	movsbl -0x18(%ebp),%eax
    1c6a:	89 04 24             	mov    %eax,(%esp)
    1c6d:	e8 4c 02 00 00       	call   1ebe <putchar>
    1c72:	8b 45 08             	mov    0x8(%ebp),%eax
    1c75:	0f b6 00             	movzbl (%eax),%eax
    1c78:	88 45 e8             	mov    %al,-0x18(%ebp)
    1c7b:	80 7d e8 25          	cmpb   $0x25,-0x18(%ebp)
    1c7f:	0f 95 c0             	setne  %al
    1c82:	83 45 08 01          	addl   $0x1,0x8(%ebp)
    1c86:	84 c0                	test   %al,%al
    1c88:	0f 85 5b ff ff ff    	jne    1be9 <vprintf+0xb>
    1c8e:	c6 45 ea 00          	movb   $0x0,-0x16(%ebp)
    1c92:	c6 45 eb 20          	movb   $0x20,-0x15(%ebp)
    1c96:	8b 45 08             	mov    0x8(%ebp),%eax
    1c99:	0f b6 00             	movzbl (%eax),%eax
    1c9c:	3c 30                	cmp    $0x30,%al
    1c9e:	74 0a                	je     1caa <vprintf+0xcc>
    1ca0:	8b 45 08             	mov    0x8(%ebp),%eax
    1ca3:	0f b6 00             	movzbl (%eax),%eax
    1ca6:	3c 20                	cmp    $0x20,%al
    1ca8:	75 31                	jne    1cdb <vprintf+0xfd>
    1caa:	8b 45 08             	mov    0x8(%ebp),%eax
    1cad:	0f b6 00             	movzbl (%eax),%eax
    1cb0:	88 45 eb             	mov    %al,-0x15(%ebp)
    1cb3:	83 45 08 01          	addl   $0x1,0x8(%ebp)
    1cb7:	eb 22                	jmp    1cdb <vprintf+0xfd>
    1cb9:	0f be 55 ea          	movsbl -0x16(%ebp),%edx
    1cbd:	89 d0                	mov    %edx,%eax
    1cbf:	c1 e0 02             	shl    $0x2,%eax
    1cc2:	01 d0                	add    %edx,%eax
    1cc4:	01 c0                	add    %eax,%eax
    1cc6:	89 c2                	mov    %eax,%edx
    1cc8:	8b 45 08             	mov    0x8(%ebp),%eax
    1ccb:	0f b6 00             	movzbl (%eax),%eax
    1cce:	8d 04 02             	lea    (%edx,%eax,1),%eax
    1cd1:	83 e8 30             	sub    $0x30,%eax
    1cd4:	88 45 ea             	mov    %al,-0x16(%ebp)
    1cd7:	83 45 08 01          	addl   $0x1,0x8(%ebp)
    1cdb:	8b 45 08             	mov    0x8(%ebp),%eax
    1cde:	0f b6 00             	movzbl (%eax),%eax
    1ce1:	3c 2f                	cmp    $0x2f,%al
    1ce3:	7e 0a                	jle    1cef <vprintf+0x111>
    1ce5:	8b 45 08             	mov    0x8(%ebp),%eax
    1ce8:	0f b6 00             	movzbl (%eax),%eax
    1ceb:	3c 39                	cmp    $0x39,%al
    1ced:	7e ca                	jle    1cb9 <vprintf+0xdb>
    1cef:	8b 45 08             	mov    0x8(%ebp),%eax
    1cf2:	0f b6 00             	movzbl (%eax),%eax
    1cf5:	88 45 e8             	mov    %al,-0x18(%ebp)
    1cf8:	0f be 45 e8          	movsbl -0x18(%ebp),%eax
    1cfc:	83 45 08 01          	addl   $0x1,0x8(%ebp)
    1d00:	83 e8 58             	sub    $0x58,%eax
    1d03:	89 45 d8             	mov    %eax,-0x28(%ebp)
    1d06:	83 7d d8 20          	cmpl   $0x20,-0x28(%ebp)
    1d0a:	0f 87 9d 01 00 00    	ja     1ead <vprintf+0x2cf>
    1d10:	8b 55 d8             	mov    -0x28(%ebp),%edx
    1d13:	8b 04 95 e0 43 00 00 	mov    0x43e0(,%edx,4),%eax
    1d1a:	ff e0                	jmp    *%eax
    1d1c:	8b 55 0c             	mov    0xc(%ebp),%edx
    1d1f:	8d 42 04             	lea    0x4(%edx),%eax
    1d22:	89 45 0c             	mov    %eax,0xc(%ebp)
    1d25:	89 d0                	mov    %edx,%eax
    1d27:	8b 00                	mov    (%eax),%eax
    1d29:	89 45 f0             	mov    %eax,-0x10(%ebp)
    1d2c:	80 7d ea 00          	cmpb   $0x0,-0x16(%ebp)
    1d30:	7e 31                	jle    1d63 <vprintf+0x185>
    1d32:	8b 45 f0             	mov    -0x10(%ebp),%eax
    1d35:	89 04 24             	mov    %eax,(%esp)
    1d38:	e8 81 04 00 00       	call   21be <getnwidth>
    1d3d:	88 45 fa             	mov    %al,-0x6(%ebp)
    1d40:	eb 0c                	jmp    1d4e <vprintf+0x170>
    1d42:	0f be 45 eb          	movsbl -0x15(%ebp),%eax
    1d46:	89 04 24             	mov    %eax,(%esp)
    1d49:	e8 70 01 00 00       	call   1ebe <putchar>
    1d4e:	0f b6 45 fa          	movzbl -0x6(%ebp),%eax
    1d52:	0f be 55 ea          	movsbl -0x16(%ebp),%edx
    1d56:	39 d0                	cmp    %edx,%eax
    1d58:	0f 9c c0             	setl   %al
    1d5b:	80 45 fa 01          	addb   $0x1,-0x6(%ebp)
    1d5f:	84 c0                	test   %al,%al
    1d61:	75 df                	jne    1d42 <vprintf+0x164>
    1d63:	8b 45 f0             	mov    -0x10(%ebp),%eax
    1d66:	89 04 24             	mov    %eax,(%esp)
    1d69:	e8 c1 03 00 00       	call   212f <printn>
    1d6e:	e9 ff fe ff ff       	jmp    1c72 <vprintf+0x94>
    1d73:	8b 55 0c             	mov    0xc(%ebp),%edx
    1d76:	8d 42 04             	lea    0x4(%edx),%eax
    1d79:	89 45 0c             	mov    %eax,0xc(%ebp)
    1d7c:	89 d0                	mov    %edx,%eax
    1d7e:	8b 00                	mov    (%eax),%eax
    1d80:	89 45 f4             	mov    %eax,-0xc(%ebp)
    1d83:	80 7d e8 6f          	cmpb   $0x6f,-0x18(%ebp)
    1d87:	74 2c                	je     1db5 <vprintf+0x1d7>
    1d89:	80 7d e8 78          	cmpb   $0x78,-0x18(%ebp)
    1d8d:	74 19                	je     1da8 <vprintf+0x1ca>
    1d8f:	80 7d e8 62          	cmpb   $0x62,-0x18(%ebp)
    1d93:	75 06                	jne    1d9b <vprintf+0x1bd>
    1d95:	c6 45 df 02          	movb   $0x2,-0x21(%ebp)
    1d99:	eb 04                	jmp    1d9f <vprintf+0x1c1>
    1d9b:	c6 45 df 0a          	movb   $0xa,-0x21(%ebp)
    1d9f:	0f b6 4d df          	movzbl -0x21(%ebp),%ecx
    1da3:	88 4d de             	mov    %cl,-0x22(%ebp)
    1da6:	eb 04                	jmp    1dac <vprintf+0x1ce>
    1da8:	c6 45 de 10          	movb   $0x10,-0x22(%ebp)
    1dac:	0f b6 45 de          	movzbl -0x22(%ebp),%eax
    1db0:	88 45 dd             	mov    %al,-0x23(%ebp)
    1db3:	eb 04                	jmp    1db9 <vprintf+0x1db>
    1db5:	c6 45 dd 08          	movb   $0x8,-0x23(%ebp)
    1db9:	0f b6 55 dd          	movzbl -0x23(%ebp),%edx
    1dbd:	88 55 fb             	mov    %dl,-0x5(%ebp)
    1dc0:	80 7d ea 00          	cmpb   $0x0,-0x16(%ebp)
    1dc4:	7e 39                	jle    1dff <vprintf+0x221>
    1dc6:	0f b6 45 fb          	movzbl -0x5(%ebp),%eax
    1dca:	89 44 24 04          	mov    %eax,0x4(%esp)
    1dce:	8b 45 f4             	mov    -0xc(%ebp),%eax
    1dd1:	89 04 24             	mov    %eax,(%esp)
    1dd4:	e8 46 02 00 00       	call   201f <getuwidth>
    1dd9:	88 45 fa             	mov    %al,-0x6(%ebp)
    1ddc:	eb 0c                	jmp    1dea <vprintf+0x20c>
    1dde:	0f be 45 eb          	movsbl -0x15(%ebp),%eax
    1de2:	89 04 24             	mov    %eax,(%esp)
    1de5:	e8 d4 00 00 00       	call   1ebe <putchar>
    1dea:	0f b6 45 fa          	movzbl -0x6(%ebp),%eax
    1dee:	0f be 55 ea          	movsbl -0x16(%ebp),%edx
    1df2:	39 d0                	cmp    %edx,%eax
    1df4:	0f 9c c0             	setl   %al
    1df7:	80 45 fa 01          	addb   $0x1,-0x6(%ebp)
    1dfb:	84 c0                	test   %al,%al
    1dfd:	75 df                	jne    1dde <vprintf+0x200>
    1dff:	80 7d e8 78          	cmpb   $0x78,-0x18(%ebp)
    1e03:	75 18                	jne    1e1d <vprintf+0x23f>
    1e05:	0f b6 45 fb          	movzbl -0x5(%ebp),%eax
    1e09:	89 44 24 04          	mov    %eax,0x4(%esp)
    1e0d:	8b 45 f4             	mov    -0xc(%ebp),%eax
    1e10:	89 04 24             	mov    %eax,(%esp)
    1e13:	e8 ef 03 00 00       	call   2207 <printuSmall>
    1e18:	e9 55 fe ff ff       	jmp    1c72 <vprintf+0x94>
    1e1d:	0f b6 45 fb          	movzbl -0x5(%ebp),%eax
    1e21:	89 44 24 04          	mov    %eax,0x4(%esp)
    1e25:	8b 45 f4             	mov    -0xc(%ebp),%eax
    1e28:	89 04 24             	mov    %eax,(%esp)
    1e2b:	e8 8c 01 00 00       	call   1fbc <printu>
    1e30:	e9 3d fe ff ff       	jmp    1c72 <vprintf+0x94>
    1e35:	8b 55 0c             	mov    0xc(%ebp),%edx
    1e38:	8d 42 04             	lea    0x4(%edx),%eax
    1e3b:	89 45 0c             	mov    %eax,0xc(%ebp)
    1e3e:	89 d0                	mov    %edx,%eax
    1e40:	8b 00                	mov    (%eax),%eax
    1e42:	89 45 ec             	mov    %eax,-0x14(%ebp)
    1e45:	80 7d ea 00          	cmpb   $0x0,-0x16(%ebp)
    1e49:	7e 31                	jle    1e7c <vprintf+0x29e>
    1e4b:	8b 45 ec             	mov    -0x14(%ebp),%eax
    1e4e:	89 04 24             	mov    %eax,(%esp)
    1e51:	e8 b0 02 00 00       	call   2106 <getswidth>
    1e56:	88 45 fa             	mov    %al,-0x6(%ebp)
    1e59:	eb 0c                	jmp    1e67 <vprintf+0x289>
    1e5b:	0f be 45 eb          	movsbl -0x15(%ebp),%eax
    1e5f:	89 04 24             	mov    %eax,(%esp)
    1e62:	e8 57 00 00 00       	call   1ebe <putchar>
    1e67:	0f b6 45 fa          	movzbl -0x6(%ebp),%eax
    1e6b:	0f be 55 ea          	movsbl -0x16(%ebp),%edx
    1e6f:	39 d0                	cmp    %edx,%eax
    1e71:	0f 9c c0             	setl   %al
    1e74:	80 45 fa 01          	addb   $0x1,-0x6(%ebp)
    1e78:	84 c0                	test   %al,%al
    1e7a:	75 df                	jne    1e5b <vprintf+0x27d>
    1e7c:	8b 45 ec             	mov    -0x14(%ebp),%eax
    1e7f:	89 04 24             	mov    %eax,(%esp)
    1e82:	e8 de 01 00 00       	call   2065 <puts>
    1e87:	e9 e6 fd ff ff       	jmp    1c72 <vprintf+0x94>
    1e8c:	8b 55 0c             	mov    0xc(%ebp),%edx
    1e8f:	8d 42 04             	lea    0x4(%edx),%eax
    1e92:	89 45 0c             	mov    %eax,0xc(%ebp)
    1e95:	89 d0                	mov    %edx,%eax
    1e97:	8b 00                	mov    (%eax),%eax
    1e99:	88 45 e9             	mov    %al,-0x17(%ebp)
    1e9c:	0f be 45 e9          	movsbl -0x17(%ebp),%eax
    1ea0:	89 04 24             	mov    %eax,(%esp)
    1ea3:	e8 16 00 00 00       	call   1ebe <putchar>
    1ea8:	e9 c5 fd ff ff       	jmp    1c72 <vprintf+0x94>
    1ead:	0f be 45 e8          	movsbl -0x18(%ebp),%eax
    1eb1:	89 04 24             	mov    %eax,(%esp)
    1eb4:	e8 05 00 00 00       	call   1ebe <putchar>
    1eb9:	e9 b4 fd ff ff       	jmp    1c72 <vprintf+0x94>

00001ebe <putchar>:
    1ebe:	55                   	push   %ebp
    1ebf:	89 e5                	mov    %esp,%ebp
    1ec1:	83 ec 08             	sub    $0x8,%esp
    1ec4:	8b 45 08             	mov    0x8(%ebp),%eax
    1ec7:	88 45 fc             	mov    %al,-0x4(%ebp)
    1eca:	0f b7 05 a0 52 00 00 	movzwl 0x52a0,%eax
    1ed1:	66 3d fe 00          	cmp    $0xfe,%ax
    1ed5:	76 05                	jbe    1edc <putchar+0x1e>
    1ed7:	e8 1f 00 00 00       	call   1efb <flush>
    1edc:	0f b7 0d a0 52 00 00 	movzwl 0x52a0,%ecx
    1ee3:	0f b7 d1             	movzwl %cx,%edx
    1ee6:	0f b6 45 fc          	movzbl -0x4(%ebp),%eax
    1eea:	88 82 c8 52 00 00    	mov    %al,0x52c8(%edx)
    1ef0:	8d 41 01             	lea    0x1(%ecx),%eax
    1ef3:	66 a3 a0 52 00 00    	mov    %ax,0x52a0
    1ef9:	c9                   	leave  
    1efa:	c3                   	ret    

00001efb <flush>:
    1efb:	55                   	push   %ebp
    1efc:	89 e5                	mov    %esp,%ebp
    1efe:	83 ec 18             	sub    $0x18,%esp
    1f01:	0f b7 05 a0 52 00 00 	movzwl 0x52a0,%eax
    1f08:	66 85 c0             	test   %ax,%ax
    1f0b:	74 56                	je     1f63 <flush+0x68>
    1f0d:	0f b7 05 a0 52 00 00 	movzwl 0x52a0,%eax
    1f14:	0f b7 c0             	movzwl %ax,%eax
    1f17:	83 c0 01             	add    $0x1,%eax
    1f1a:	a3 c4 52 00 00       	mov    %eax,0x52c4
    1f1f:	0f b7 05 a0 52 00 00 	movzwl 0x52a0,%eax
    1f26:	0f b7 c0             	movzwl %ax,%eax
    1f29:	c6 80 c8 52 00 00 00 	movb   $0x0,0x52c8(%eax)
    1f30:	0f b7 05 a0 52 00 00 	movzwl 0x52a0,%eax
    1f37:	0f b7 c0             	movzwl %ax,%eax
    1f3a:	83 c0 09             	add    $0x9,%eax
    1f3d:	89 44 24 08          	mov    %eax,0x8(%esp)
    1f41:	c7 44 24 04 c0 52 00 	movl   $0x52c0,0x4(%esp)
    1f48:	00 
    1f49:	c7 04 24 01 00 00 00 	movl   $0x1,(%esp)
    1f50:	e8 26 04 00 00       	call   237b <write>
    1f55:	66 c7 05 a0 52 00 00 	movw   $0x0,0x52a0
    1f5c:	00 00 
    1f5e:	e8 65 05 00 00       	call   24c8 <yield>
    1f63:	c9                   	leave  
    1f64:	c3                   	ret    

00001f65 <putEscape>:
    1f65:	55                   	push   %ebp
    1f66:	89 e5                	mov    %esp,%ebp
    1f68:	83 ec 18             	sub    $0x18,%esp
    1f6b:	8b 45 0c             	mov    0xc(%ebp),%eax
    1f6e:	88 45 ec             	mov    %al,-0x14(%ebp)
    1f71:	8b 45 08             	mov    0x8(%ebp),%eax
    1f74:	89 45 fc             	mov    %eax,-0x4(%ebp)
    1f77:	0f b7 05 a0 52 00 00 	movzwl 0x52a0,%eax
    1f7e:	0f b7 d0             	movzwl %ax,%edx
    1f81:	0f b6 45 ec          	movzbl -0x14(%ebp),%eax
    1f85:	8d 04 02             	lea    (%edx,%eax,1),%eax
    1f88:	3d fe 00 00 00       	cmp    $0xfe,%eax
    1f8d:	7e 1c                	jle    1fab <putEscape+0x46>
    1f8f:	e8 67 ff ff ff       	call   1efb <flush>
    1f94:	eb 15                	jmp    1fab <putEscape+0x46>
    1f96:	8b 45 fc             	mov    -0x4(%ebp),%eax
    1f99:	0f b6 00             	movzbl (%eax),%eax
    1f9c:	0f be c0             	movsbl %al,%eax
    1f9f:	83 45 fc 01          	addl   $0x1,-0x4(%ebp)
    1fa3:	89 04 24             	mov    %eax,(%esp)
    1fa6:	e8 13 ff ff ff       	call   1ebe <putchar>
    1fab:	80 7d ec 00          	cmpb   $0x0,-0x14(%ebp)
    1faf:	0f 95 c0             	setne  %al
    1fb2:	80 6d ec 01          	subb   $0x1,-0x14(%ebp)
    1fb6:	84 c0                	test   %al,%al
    1fb8:	75 dc                	jne    1f96 <putEscape+0x31>
    1fba:	c9                   	leave  
    1fbb:	c3                   	ret    

00001fbc <printu>:
    1fbc:	55                   	push   %ebp
    1fbd:	89 e5                	mov    %esp,%ebp
    1fbf:	83 ec 28             	sub    $0x28,%esp
    1fc2:	8b 45 0c             	mov    0xc(%ebp),%eax
    1fc5:	88 45 fc             	mov    %al,-0x4(%ebp)
    1fc8:	0f b6 45 fc          	movzbl -0x4(%ebp),%eax
    1fcc:	3b 45 08             	cmp    0x8(%ebp),%eax
    1fcf:	77 22                	ja     1ff3 <printu+0x37>
    1fd1:	0f b6 4d fc          	movzbl -0x4(%ebp),%ecx
    1fd5:	0f b6 45 fc          	movzbl -0x4(%ebp),%eax
    1fd9:	89 45 f0             	mov    %eax,-0x10(%ebp)
    1fdc:	8b 45 08             	mov    0x8(%ebp),%eax
    1fdf:	ba 00 00 00 00       	mov    $0x0,%edx
    1fe4:	f7 75 f0             	divl   -0x10(%ebp)
    1fe7:	89 4c 24 04          	mov    %ecx,0x4(%esp)
    1feb:	89 04 24             	mov    %eax,(%esp)
    1fee:	e8 c9 ff ff ff       	call   1fbc <printu>
    1ff3:	0f b6 55 fc          	movzbl -0x4(%ebp),%edx
    1ff7:	8b 4d 08             	mov    0x8(%ebp),%ecx
    1ffa:	89 4d ec             	mov    %ecx,-0x14(%ebp)
    1ffd:	8b 45 ec             	mov    -0x14(%ebp),%eax
    2000:	89 d1                	mov    %edx,%ecx
    2002:	ba 00 00 00 00       	mov    $0x0,%edx
    2007:	f7 f1                	div    %ecx
    2009:	89 d0                	mov    %edx,%eax
    200b:	0f b6 80 64 40 00 00 	movzbl 0x4064(%eax),%eax
    2012:	0f be c0             	movsbl %al,%eax
    2015:	89 04 24             	mov    %eax,(%esp)
    2018:	e8 a1 fe ff ff       	call   1ebe <putchar>
    201d:	c9                   	leave  
    201e:	c3                   	ret    

0000201f <getuwidth>:
    201f:	55                   	push   %ebp
    2020:	89 e5                	mov    %esp,%ebp
    2022:	83 ec 20             	sub    $0x20,%esp
    2025:	8b 45 0c             	mov    0xc(%ebp),%eax
    2028:	88 45 ec             	mov    %al,-0x14(%ebp)
    202b:	c6 45 ff 01          	movb   $0x1,-0x1(%ebp)
    202f:	eb 25                	jmp    2056 <getuwidth+0x37>
    2031:	0f b6 45 ec          	movzbl -0x14(%ebp),%eax
    2035:	89 45 e4             	mov    %eax,-0x1c(%ebp)
    2038:	8b 55 08             	mov    0x8(%ebp),%edx
    203b:	89 55 e0             	mov    %edx,-0x20(%ebp)
    203e:	8b 45 e0             	mov    -0x20(%ebp),%eax
    2041:	ba 00 00 00 00       	mov    $0x0,%edx
    2046:	f7 75 e4             	divl   -0x1c(%ebp)
    2049:	89 45 e4             	mov    %eax,-0x1c(%ebp)
    204c:	8b 45 e4             	mov    -0x1c(%ebp),%eax
    204f:	89 45 08             	mov    %eax,0x8(%ebp)
    2052:	80 45 ff 01          	addb   $0x1,-0x1(%ebp)
    2056:	0f b6 45 ec          	movzbl -0x14(%ebp),%eax
    205a:	3b 45 08             	cmp    0x8(%ebp),%eax
    205d:	76 d2                	jbe    2031 <getuwidth+0x12>
    205f:	0f b6 45 ff          	movzbl -0x1(%ebp),%eax
    2063:	c9                   	leave  
    2064:	c3                   	ret    

00002065 <puts>:
    2065:	55                   	push   %ebp
    2066:	89 e5                	mov    %esp,%ebp
    2068:	83 ec 18             	sub    $0x18,%esp
    206b:	e9 81 00 00 00       	jmp    20f1 <puts+0x8c>
    2070:	80 7d fb 1b          	cmpb   $0x1b,-0x5(%ebp)
    2074:	74 06                	je     207c <puts+0x17>
    2076:	80 7d fb 1b          	cmpb   $0x1b,-0x5(%ebp)
    207a:	75 65                	jne    20e1 <puts+0x7c>
    207c:	8b 45 08             	mov    0x8(%ebp),%eax
    207f:	83 c0 01             	add    $0x1,%eax
    2082:	0f b6 00             	movzbl (%eax),%eax
    2085:	3c 5b                	cmp    $0x5b,%al
    2087:	75 58                	jne    20e1 <puts+0x7c>
    2089:	8b 45 08             	mov    0x8(%ebp),%eax
    208c:	83 e8 01             	sub    $0x1,%eax
    208f:	89 45 fc             	mov    %eax,-0x4(%ebp)
    2092:	83 45 08 02          	addl   $0x2,0x8(%ebp)
    2096:	eb 04                	jmp    209c <puts+0x37>
    2098:	83 45 08 01          	addl   $0x1,0x8(%ebp)
    209c:	8b 45 08             	mov    0x8(%ebp),%eax
    209f:	0f b6 00             	movzbl (%eax),%eax
    20a2:	84 c0                	test   %al,%al
    20a4:	74 0a                	je     20b0 <puts+0x4b>
    20a6:	8b 45 08             	mov    0x8(%ebp),%eax
    20a9:	0f b6 00             	movzbl (%eax),%eax
    20ac:	3c 6d                	cmp    $0x6d,%al
    20ae:	75 e8                	jne    2098 <puts+0x33>
    20b0:	8b 45 08             	mov    0x8(%ebp),%eax
    20b3:	89 c2                	mov    %eax,%edx
    20b5:	8b 45 fc             	mov    -0x4(%ebp),%eax
    20b8:	89 d1                	mov    %edx,%ecx
    20ba:	28 c1                	sub    %al,%cl
    20bc:	89 c8                	mov    %ecx,%eax
    20be:	83 c0 01             	add    $0x1,%eax
    20c1:	0f b6 c0             	movzbl %al,%eax
    20c4:	89 44 24 04          	mov    %eax,0x4(%esp)
    20c8:	8b 45 fc             	mov    -0x4(%ebp),%eax
    20cb:	89 04 24             	mov    %eax,(%esp)
    20ce:	e8 92 fe ff ff       	call   1f65 <putEscape>
    20d3:	8b 45 08             	mov    0x8(%ebp),%eax
    20d6:	0f b6 00             	movzbl (%eax),%eax
    20d9:	84 c0                	test   %al,%al
    20db:	74 04                	je     20e1 <puts+0x7c>
    20dd:	83 45 08 01          	addl   $0x1,0x8(%ebp)
    20e1:	0f be 45 fb          	movsbl -0x5(%ebp),%eax
    20e5:	89 04 24             	mov    %eax,(%esp)
    20e8:	e8 d1 fd ff ff       	call   1ebe <putchar>
    20ed:	83 45 08 01          	addl   $0x1,0x8(%ebp)
    20f1:	8b 45 08             	mov    0x8(%ebp),%eax
    20f4:	0f b6 00             	movzbl (%eax),%eax
    20f7:	88 45 fb             	mov    %al,-0x5(%ebp)
    20fa:	80 7d fb 00          	cmpb   $0x0,-0x5(%ebp)
    20fe:	0f 85 6c ff ff ff    	jne    2070 <puts+0xb>
    2104:	c9                   	leave  
    2105:	c3                   	ret    

00002106 <getswidth>:
    2106:	55                   	push   %ebp
    2107:	89 e5                	mov    %esp,%ebp
    2109:	83 ec 10             	sub    $0x10,%esp
    210c:	c6 45 ff 00          	movb   $0x0,-0x1(%ebp)
    2110:	eb 04                	jmp    2116 <getswidth+0x10>
    2112:	80 45 ff 01          	addb   $0x1,-0x1(%ebp)
    2116:	8b 45 08             	mov    0x8(%ebp),%eax
    2119:	0f b6 00             	movzbl (%eax),%eax
    211c:	84 c0                	test   %al,%al
    211e:	0f 95 c0             	setne  %al
    2121:	83 45 08 01          	addl   $0x1,0x8(%ebp)
    2125:	84 c0                	test   %al,%al
    2127:	75 e9                	jne    2112 <getswidth+0xc>
    2129:	0f b6 45 ff          	movzbl -0x1(%ebp),%eax
    212d:	c9                   	leave  
    212e:	c3                   	ret    

0000212f <printn>:
    212f:	55                   	push   %ebp
    2130:	89 e5                	mov    %esp,%ebp
    2132:	53                   	push   %ebx
    2133:	83 ec 14             	sub    $0x14,%esp
    2136:	83 7d 08 00          	cmpl   $0x0,0x8(%ebp)
    213a:	79 0f                	jns    214b <printn+0x1c>
    213c:	c7 04 24 2d 00 00 00 	movl   $0x2d,(%esp)
    2143:	e8 76 fd ff ff       	call   1ebe <putchar>
    2148:	f7 5d 08             	negl   0x8(%ebp)
    214b:	83 7d 08 09          	cmpl   $0x9,0x8(%ebp)
    214f:	7e 25                	jle    2176 <printn+0x47>
    2151:	8b 4d 08             	mov    0x8(%ebp),%ecx
    2154:	c7 45 f4 67 66 66 66 	movl   $0x66666667,-0xc(%ebp)
    215b:	8b 45 f4             	mov    -0xc(%ebp),%eax
    215e:	f7 e9                	imul   %ecx
    2160:	c1 fa 02             	sar    $0x2,%edx
    2163:	89 c8                	mov    %ecx,%eax
    2165:	c1 f8 1f             	sar    $0x1f,%eax
    2168:	89 d1                	mov    %edx,%ecx
    216a:	29 c1                	sub    %eax,%ecx
    216c:	89 c8                	mov    %ecx,%eax
    216e:	89 04 24             	mov    %eax,(%esp)
    2171:	e8 b9 ff ff ff       	call   212f <printn>
    2176:	8b 4d 08             	mov    0x8(%ebp),%ecx
    2179:	c7 45 f4 67 66 66 66 	movl   $0x66666667,-0xc(%ebp)
    2180:	8b 45 f4             	mov    -0xc(%ebp),%eax
    2183:	f7 e9                	imul   %ecx
    2185:	c1 fa 02             	sar    $0x2,%edx
    2188:	89 c8                	mov    %ecx,%eax
    218a:	c1 f8 1f             	sar    $0x1f,%eax
    218d:	89 d3                	mov    %edx,%ebx
    218f:	29 c3                	sub    %eax,%ebx
    2191:	89 5d f8             	mov    %ebx,-0x8(%ebp)
    2194:	8b 45 f8             	mov    -0x8(%ebp),%eax
    2197:	c1 e0 02             	shl    $0x2,%eax
    219a:	03 45 f8             	add    -0x8(%ebp),%eax
    219d:	01 c0                	add    %eax,%eax
    219f:	89 ca                	mov    %ecx,%edx
    21a1:	29 c2                	sub    %eax,%edx
    21a3:	89 55 f8             	mov    %edx,-0x8(%ebp)
    21a6:	0f b6 45 f8          	movzbl -0x8(%ebp),%eax
    21aa:	83 c0 30             	add    $0x30,%eax
    21ad:	0f be c0             	movsbl %al,%eax
    21b0:	89 04 24             	mov    %eax,(%esp)
    21b3:	e8 06 fd ff ff       	call   1ebe <putchar>
    21b8:	83 c4 14             	add    $0x14,%esp
    21bb:	5b                   	pop    %ebx
    21bc:	5d                   	pop    %ebp
    21bd:	c3                   	ret    

000021be <getnwidth>:
    21be:	55                   	push   %ebp
    21bf:	89 e5                	mov    %esp,%ebp
    21c1:	83 ec 14             	sub    $0x14,%esp
    21c4:	c6 45 ff 01          	movb   $0x1,-0x1(%ebp)
    21c8:	83 7d 08 00          	cmpl   $0x0,0x8(%ebp)
    21cc:	79 2d                	jns    21fb <getnwidth+0x3d>
    21ce:	80 45 ff 01          	addb   $0x1,-0x1(%ebp)
    21d2:	f7 5d 08             	negl   0x8(%ebp)
    21d5:	eb 24                	jmp    21fb <getnwidth+0x3d>
    21d7:	8b 4d 08             	mov    0x8(%ebp),%ecx
    21da:	c7 45 ec 67 66 66 66 	movl   $0x66666667,-0x14(%ebp)
    21e1:	8b 45 ec             	mov    -0x14(%ebp),%eax
    21e4:	f7 e9                	imul   %ecx
    21e6:	c1 fa 02             	sar    $0x2,%edx
    21e9:	89 c8                	mov    %ecx,%eax
    21eb:	c1 f8 1f             	sar    $0x1f,%eax
    21ee:	89 d1                	mov    %edx,%ecx
    21f0:	29 c1                	sub    %eax,%ecx
    21f2:	89 c8                	mov    %ecx,%eax
    21f4:	89 45 08             	mov    %eax,0x8(%ebp)
    21f7:	80 45 ff 01          	addb   $0x1,-0x1(%ebp)
    21fb:	83 7d 08 09          	cmpl   $0x9,0x8(%ebp)
    21ff:	7f d6                	jg     21d7 <getnwidth+0x19>
    2201:	0f b6 45 ff          	movzbl -0x1(%ebp),%eax
    2205:	c9                   	leave  
    2206:	c3                   	ret    

00002207 <printuSmall>:
    2207:	55                   	push   %ebp
    2208:	89 e5                	mov    %esp,%ebp
    220a:	83 ec 28             	sub    $0x28,%esp
    220d:	8b 45 0c             	mov    0xc(%ebp),%eax
    2210:	88 45 fc             	mov    %al,-0x4(%ebp)
    2213:	0f b6 45 fc          	movzbl -0x4(%ebp),%eax
    2217:	3b 45 08             	cmp    0x8(%ebp),%eax
    221a:	77 22                	ja     223e <printuSmall+0x37>
    221c:	0f b6 4d fc          	movzbl -0x4(%ebp),%ecx
    2220:	0f b6 45 fc          	movzbl -0x4(%ebp),%eax
    2224:	89 45 f0             	mov    %eax,-0x10(%ebp)
    2227:	8b 45 08             	mov    0x8(%ebp),%eax
    222a:	ba 00 00 00 00       	mov    $0x0,%edx
    222f:	f7 75 f0             	divl   -0x10(%ebp)
    2232:	89 4c 24 04          	mov    %ecx,0x4(%esp)
    2236:	89 04 24             	mov    %eax,(%esp)
    2239:	e8 c9 ff ff ff       	call   2207 <printuSmall>
    223e:	0f b6 55 fc          	movzbl -0x4(%ebp),%edx
    2242:	8b 4d 08             	mov    0x8(%ebp),%ecx
    2245:	89 4d ec             	mov    %ecx,-0x14(%ebp)
    2248:	8b 45 ec             	mov    -0x14(%ebp),%eax
    224b:	89 d1                	mov    %edx,%ecx
    224d:	ba 00 00 00 00       	mov    $0x0,%edx
    2252:	f7 f1                	div    %ecx
    2254:	89 d0                	mov    %edx,%eax
    2256:	0f b6 80 75 40 00 00 	movzbl 0x4075(%eax),%eax
    225d:	0f be c0             	movsbl %al,%eax
    2260:	89 04 24             	mov    %eax,(%esp)
    2263:	e8 56 fc ff ff       	call   1ebe <putchar>
    2268:	c9                   	leave  
    2269:	c3                   	ret    
    226a:	00 00                	add    %al,(%eax)
    226c:	00 00                	add    %al,(%eax)
	...

00002270 <debugChar>:
    2270:	55                   	push   %ebp
    2271:	89 e5                	mov    %esp,%ebp
    2273:	8b 45 08             	mov    0x8(%ebp),%eax
    2276:	50                   	push   %eax
    2277:	68 02 00 00 00       	push   $0x2
    227c:	cd 30                	int    $0x30
    227e:	81 c4 08 00 00 00    	add    $0x8,%esp
    2284:	c9                   	leave  
    2285:	c3                   	ret    

00002286 <cpu_rdtsc>:
    2286:	0f 31                	rdtsc  
    2288:	c3                   	ret    
    2289:	00 00                	add    %al,(%eax)
    228b:	00 00                	add    %al,(%eax)
    228d:	00 00                	add    %al,(%eax)
	...

00002290 <outByte>:
    2290:	66 8b 54 24 04       	mov    0x4(%esp),%dx
    2295:	8a 44 24 08          	mov    0x8(%esp),%al
    2299:	ee                   	out    %al,(%dx)
    229a:	c3                   	ret    

0000229b <outWord>:
    229b:	66 8b 54 24 04       	mov    0x4(%esp),%dx
    22a0:	66 8b 44 24 08       	mov    0x8(%esp),%ax
    22a5:	66 ef                	out    %ax,(%dx)
    22a7:	c3                   	ret    

000022a8 <inByte>:
    22a8:	66 8b 54 24 04       	mov    0x4(%esp),%dx
    22ad:	ec                   	in     (%dx),%al
    22ae:	c3                   	ret    

000022af <inWord>:
    22af:	66 8b 54 24 04       	mov    0x4(%esp),%dx
    22b4:	66 ed                	in     (%dx),%ax
    22b6:	c3                   	ret    

000022b7 <requestIOPorts>:
    22b7:	55                   	push   %ebp
    22b8:	89 e5                	mov    %esp,%ebp
    22ba:	8b 45 0c             	mov    0xc(%ebp),%eax
    22bd:	50                   	push   %eax
    22be:	8b 45 08             	mov    0x8(%ebp),%eax
    22c1:	50                   	push   %eax
    22c2:	68 0f 00 00 00       	push   $0xf
    22c7:	cd 30                	int    $0x30
    22c9:	58                   	pop    %eax
    22ca:	85 c0                	test   %eax,%eax
    22cc:	74 10                	je     22de <requestIOPortsNoError>
    22ce:	a3 c8 53 00 00       	mov    %eax,0x53c8
    22d3:	81 c4 08 00 00 00    	add    $0x8,%esp
    22d9:	e9 07 00 00 00       	jmp    22e5 <requestIOPortsRet>

000022de <requestIOPortsNoError>:
    22de:	58                   	pop    %eax
    22df:	81 c4 04 00 00 00    	add    $0x4,%esp

000022e5 <requestIOPortsRet>:
    22e5:	c9                   	leave  
    22e6:	c3                   	ret    

000022e7 <releaseIOPorts>:
    22e7:	55                   	push   %ebp
    22e8:	89 e5                	mov    %esp,%ebp
    22ea:	8b 45 0c             	mov    0xc(%ebp),%eax
    22ed:	50                   	push   %eax
    22ee:	8b 45 08             	mov    0x8(%ebp),%eax
    22f1:	50                   	push   %eax
    22f2:	68 10 00 00 00       	push   $0x10
    22f7:	cd 30                	int    $0x30
    22f9:	58                   	pop    %eax
    22fa:	85 c0                	test   %eax,%eax
    22fc:	74 10                	je     230e <releaseIOPortsNoError>
    22fe:	a3 c8 53 00 00       	mov    %eax,0x53c8
    2303:	81 c4 08 00 00 00    	add    $0x8,%esp
    2309:	e9 07 00 00 00       	jmp    2315 <releaseIOPortsRet>

0000230e <releaseIOPortsNoError>:
    230e:	58                   	pop    %eax
    230f:	81 c4 04 00 00 00    	add    $0x4,%esp

00002315 <releaseIOPortsRet>:
    2315:	c9                   	leave  
    2316:	c3                   	ret    

00002317 <open>:
    2317:	55                   	push   %ebp
    2318:	89 e5                	mov    %esp,%ebp
    231a:	8b 45 0c             	mov    0xc(%ebp),%eax
    231d:	50                   	push   %eax
    231e:	8b 45 08             	mov    0x8(%ebp),%eax
    2321:	50                   	push   %eax
    2322:	68 05 00 00 00       	push   $0x5
    2327:	cd 30                	int    $0x30
    2329:	58                   	pop    %eax
    232a:	85 c0                	test   %eax,%eax
    232c:	74 10                	je     233e <openNoError>
    232e:	a3 c8 53 00 00       	mov    %eax,0x53c8
    2333:	81 c4 08 00 00 00    	add    $0x8,%esp
    2339:	e9 07 00 00 00       	jmp    2345 <openRet>

0000233e <openNoError>:
    233e:	58                   	pop    %eax
    233f:	81 c4 04 00 00 00    	add    $0x4,%esp

00002345 <openRet>:
    2345:	c9                   	leave  
    2346:	c3                   	ret    

00002347 <read>:
    2347:	55                   	push   %ebp
    2348:	89 e5                	mov    %esp,%ebp
    234a:	8b 45 10             	mov    0x10(%ebp),%eax
    234d:	50                   	push   %eax
    234e:	8b 45 0c             	mov    0xc(%ebp),%eax
    2351:	50                   	push   %eax
    2352:	8b 45 08             	mov    0x8(%ebp),%eax
    2355:	50                   	push   %eax
    2356:	68 07 00 00 00       	push   $0x7
    235b:	cd 30                	int    $0x30
    235d:	58                   	pop    %eax
    235e:	85 c0                	test   %eax,%eax
    2360:	74 10                	je     2372 <readNoError>
    2362:	a3 c8 53 00 00       	mov    %eax,0x53c8
    2367:	81 c4 0c 00 00 00    	add    $0xc,%esp
    236d:	e9 07 00 00 00       	jmp    2379 <readRet>

00002372 <readNoError>:
    2372:	58                   	pop    %eax
    2373:	81 c4 08 00 00 00    	add    $0x8,%esp

00002379 <readRet>:
    2379:	c9                   	leave  
    237a:	c3                   	ret    

0000237b <write>:
    237b:	55                   	push   %ebp
    237c:	89 e5                	mov    %esp,%ebp
    237e:	8b 45 10             	mov    0x10(%ebp),%eax
    2381:	50                   	push   %eax
    2382:	8b 45 0c             	mov    0xc(%ebp),%eax
    2385:	50                   	push   %eax
    2386:	8b 45 08             	mov    0x8(%ebp),%eax
    2389:	50                   	push   %eax
    238a:	68 0c 00 00 00       	push   $0xc
    238f:	cd 30                	int    $0x30
    2391:	58                   	pop    %eax
    2392:	85 c0                	test   %eax,%eax
    2394:	74 10                	je     23a6 <writeNoError>
    2396:	a3 c8 53 00 00       	mov    %eax,0x53c8
    239b:	81 c4 0c 00 00 00    	add    $0xc,%esp
    23a1:	e9 07 00 00 00       	jmp    23ad <writeRet>

000023a6 <writeNoError>:
    23a6:	58                   	pop    %eax
    23a7:	81 c4 08 00 00 00    	add    $0x8,%esp

000023ad <writeRet>:
    23ad:	c9                   	leave  
    23ae:	c3                   	ret    

000023af <dupFd>:
    23af:	55                   	push   %ebp
    23b0:	89 e5                	mov    %esp,%ebp
    23b2:	8b 45 08             	mov    0x8(%ebp),%eax
    23b5:	50                   	push   %eax
    23b6:	68 11 00 00 00       	push   $0x11
    23bb:	cd 30                	int    $0x30
    23bd:	58                   	pop    %eax
    23be:	85 c0                	test   %eax,%eax
    23c0:	74 10                	je     23d2 <dupFdNoError>
    23c2:	a3 c8 53 00 00       	mov    %eax,0x53c8
    23c7:	81 c4 04 00 00 00    	add    $0x4,%esp
    23cd:	e9 01 00 00 00       	jmp    23d3 <dupFdRet>

000023d2 <dupFdNoError>:
    23d2:	58                   	pop    %eax

000023d3 <dupFdRet>:
    23d3:	c9                   	leave  
    23d4:	c3                   	ret    

000023d5 <redirFd>:
    23d5:	55                   	push   %ebp
    23d6:	89 e5                	mov    %esp,%ebp
    23d8:	8b 45 0c             	mov    0xc(%ebp),%eax
    23db:	50                   	push   %eax
    23dc:	8b 45 08             	mov    0x8(%ebp),%eax
    23df:	50                   	push   %eax
    23e0:	68 12 00 00 00       	push   $0x12
    23e5:	cd 30                	int    $0x30
    23e7:	58                   	pop    %eax
    23e8:	85 c0                	test   %eax,%eax
    23ea:	74 10                	je     23fc <redirFdNoError>
    23ec:	a3 c8 53 00 00       	mov    %eax,0x53c8
    23f1:	81 c4 08 00 00 00    	add    $0x8,%esp
    23f7:	e9 07 00 00 00       	jmp    2403 <redirFdRet>

000023fc <redirFdNoError>:
    23fc:	58                   	pop    %eax
    23fd:	81 c4 04 00 00 00    	add    $0x4,%esp

00002403 <redirFdRet>:
    2403:	c9                   	leave  
    2404:	c3                   	ret    

00002405 <close>:
    2405:	55                   	push   %ebp
    2406:	89 e5                	mov    %esp,%ebp
    2408:	8b 45 08             	mov    0x8(%ebp),%eax
    240b:	50                   	push   %eax
    240c:	68 06 00 00 00       	push   $0x6
    2411:	cd 30                	int    $0x30
    2413:	81 c4 08 00 00 00    	add    $0x8,%esp
    2419:	c9                   	leave  
    241a:	c3                   	ret    
    241b:	00 00                	add    %al,(%eax)
    241d:	00 00                	add    %al,(%eax)
	...

00002420 <changeSize>:
    2420:	55                   	push   %ebp
    2421:	89 e5                	mov    %esp,%ebp
    2423:	8b 45 08             	mov    0x8(%ebp),%eax
    2426:	50                   	push   %eax
    2427:	68 0a 00 00 00       	push   $0xa
    242c:	cd 30                	int    $0x30
    242e:	58                   	pop    %eax
    242f:	85 c0                	test   %eax,%eax
    2431:	74 10                	je     2443 <changeSizeNoError>
    2433:	a3 c8 53 00 00       	mov    %eax,0x53c8
    2438:	81 c4 04 00 00 00    	add    $0x4,%esp
    243e:	e9 01 00 00 00       	jmp    2444 <changeSizeRet>

00002443 <changeSizeNoError>:
    2443:	58                   	pop    %eax

00002444 <changeSizeRet>:
    2444:	c9                   	leave  
    2445:	c3                   	ret    

00002446 <_mapPhysical>:
    2446:	55                   	push   %ebp
    2447:	89 e5                	mov    %esp,%ebp
    2449:	8b 45 0c             	mov    0xc(%ebp),%eax
    244c:	50                   	push   %eax
    244d:	8b 45 08             	mov    0x8(%ebp),%eax
    2450:	50                   	push   %eax
    2451:	68 0b 00 00 00       	push   $0xb
    2456:	cd 30                	int    $0x30
    2458:	58                   	pop    %eax
    2459:	85 c0                	test   %eax,%eax
    245b:	74 10                	je     246d <_mapPhysicalNoError>
    245d:	a3 c8 53 00 00       	mov    %eax,0x53c8
    2462:	81 c4 08 00 00 00    	add    $0x8,%esp
    2468:	e9 07 00 00 00       	jmp    2474 <_mapPhysicalRet>

0000246d <_mapPhysicalNoError>:
    246d:	58                   	pop    %eax
    246e:	81 c4 04 00 00 00    	add    $0x4,%esp

00002474 <_mapPhysicalRet>:
    2474:	c9                   	leave  
    2475:	c3                   	ret    
	...

00002480 <getpid>:
    2480:	55                   	push   %ebp
    2481:	89 e5                	mov    %esp,%ebp
    2483:	68 00 00 00 00       	push   $0x0
    2488:	68 00 00 00 00       	push   $0x0
    248d:	cd 30                	int    $0x30
    248f:	81 c4 04 00 00 00    	add    $0x4,%esp
    2495:	58                   	pop    %eax
    2496:	c9                   	leave  
    2497:	c3                   	ret    

00002498 <getppid>:
    2498:	55                   	push   %ebp
    2499:	89 e5                	mov    %esp,%ebp
    249b:	68 00 00 00 00       	push   $0x0
    24a0:	68 01 00 00 00       	push   $0x1
    24a5:	cd 30                	int    $0x30
    24a7:	81 c4 04 00 00 00    	add    $0x4,%esp
    24ad:	58                   	pop    %eax
    24ae:	c9                   	leave  
    24af:	c3                   	ret    

000024b0 <fork>:
    24b0:	55                   	push   %ebp
    24b1:	89 e5                	mov    %esp,%ebp
    24b3:	68 00 00 00 00       	push   $0x0
    24b8:	68 03 00 00 00       	push   $0x3
    24bd:	cd 30                	int    $0x30
    24bf:	81 c4 04 00 00 00    	add    $0x4,%esp
    24c5:	58                   	pop    %eax
    24c6:	c9                   	leave  
    24c7:	c3                   	ret    

000024c8 <yield>:
    24c8:	55                   	push   %ebp
    24c9:	89 e5                	mov    %esp,%ebp
    24cb:	68 0d 00 00 00       	push   $0xd
    24d0:	cd 30                	int    $0x30
    24d2:	81 c4 04 00 00 00    	add    $0x4,%esp
    24d8:	c9                   	leave  
    24d9:	c3                   	ret    

000024da <sleep>:
    24da:	55                   	push   %ebp
    24db:	89 e5                	mov    %esp,%ebp
    24dd:	68 15 00 00 00       	push   $0x15
    24e2:	cd 30                	int    $0x30
    24e4:	81 c4 04 00 00 00    	add    $0x4,%esp
    24ea:	c9                   	leave  
    24eb:	c3                   	ret    

000024ec <exit>:
    24ec:	55                   	push   %ebp
    24ed:	89 e5                	mov    %esp,%ebp
    24ef:	8b 45 08             	mov    0x8(%ebp),%eax
    24f2:	50                   	push   %eax
    24f3:	68 04 00 00 00       	push   $0x4
    24f8:	cd 30                	int    $0x30
    24fa:	81 c4 08 00 00 00    	add    $0x8,%esp
    2500:	c9                   	leave  
    2501:	c3                   	ret    
	...

00002510 <setSigHandler>:
    2510:	55                   	push   %ebp
    2511:	89 e5                	mov    %esp,%ebp
    2513:	8b 45 0c             	mov    0xc(%ebp),%eax
    2516:	50                   	push   %eax
    2517:	8b 45 08             	mov    0x8(%ebp),%eax
    251a:	50                   	push   %eax
    251b:	68 16 00 00 00       	push   $0x16
    2520:	cd 30                	int    $0x30
    2522:	58                   	pop    %eax
    2523:	85 c0                	test   %eax,%eax
    2525:	74 10                	je     2537 <setSigHandlerNoError>
    2527:	a3 c8 53 00 00       	mov    %eax,0x53c8
    252c:	81 c4 08 00 00 00    	add    $0x8,%esp
    2532:	e9 07 00 00 00       	jmp    253e <setSigHandlerRet>

00002537 <setSigHandlerNoError>:
    2537:	58                   	pop    %eax
    2538:	81 c4 04 00 00 00    	add    $0x4,%esp

0000253e <setSigHandlerRet>:
    253e:	c9                   	leave  
    253f:	c3                   	ret    

00002540 <unsetSigHandler>:
    2540:	55                   	push   %ebp
    2541:	89 e5                	mov    %esp,%ebp
    2543:	8b 45 08             	mov    0x8(%ebp),%eax
    2546:	50                   	push   %eax
    2547:	68 17 00 00 00       	push   $0x17
    254c:	cd 30                	int    $0x30
    254e:	58                   	pop    %eax
    254f:	85 c0                	test   %eax,%eax
    2551:	74 10                	je     2563 <unsetSigHandlerNoError>
    2553:	a3 c8 53 00 00       	mov    %eax,0x53c8
    2558:	81 c4 04 00 00 00    	add    $0x4,%esp
    255e:	e9 01 00 00 00       	jmp    2564 <unsetSigHandlerRet>

00002563 <unsetSigHandlerNoError>:
    2563:	58                   	pop    %eax

00002564 <unsetSigHandlerRet>:
    2564:	c9                   	leave  
    2565:	c3                   	ret    

00002566 <ackSignal>:
    2566:	55                   	push   %ebp
    2567:	89 e5                	mov    %esp,%ebp
    2569:	8b 45 08             	mov    0x8(%ebp),%eax
    256c:	50                   	push   %eax
    256d:	68 18 00 00 00       	push   $0x18
    2572:	cd 30                	int    $0x30
    2574:	81 c4 08 00 00 00    	add    $0x8,%esp
    257a:	c9                   	leave  
    257b:	c3                   	ret    

0000257c <atoi>:
    257c:	55                   	push   %ebp
    257d:	89 e5                	mov    %esp,%ebp
    257f:	83 ec 28             	sub    $0x28,%esp
    2582:	c7 45 f4 00 00 00 00 	movl   $0x0,-0xc(%ebp)
    2589:	c7 45 f8 00 00 00 00 	movl   $0x0,-0x8(%ebp)
    2590:	83 7d 08 00          	cmpl   $0x0,0x8(%ebp)
    2594:	75 36                	jne    25cc <atoi+0x50>
    2596:	c7 44 24 0c 19 00 00 	movl   $0x19,0xc(%esp)
    259d:	00 
    259e:	c7 44 24 08 64 44 00 	movl   $0x4464,0x8(%esp)
    25a5:	00 
    25a6:	c7 44 24 04 69 44 00 	movl   $0x4469,0x4(%esp)
    25ad:	00 
    25ae:	c7 04 24 80 44 00 00 	movl   $0x4480,(%esp)
    25b5:	e8 9f e9 ff ff       	call   f59 <debugf>
    25ba:	c7 04 24 01 00 00 00 	movl   $0x1,(%esp)
    25c1:	e8 26 ff ff ff       	call   24ec <exit>
    25c6:	eb 04                	jmp    25cc <atoi+0x50>
    25c8:	83 45 08 01          	addl   $0x1,0x8(%ebp)
    25cc:	8b 45 08             	mov    0x8(%ebp),%eax
    25cf:	0f b6 00             	movzbl (%eax),%eax
    25d2:	0f be c0             	movsbl %al,%eax
    25d5:	89 04 24             	mov    %eax,(%esp)
    25d8:	e8 e5 0d 00 00       	call   33c2 <isspace>
    25dd:	85 c0                	test   %eax,%eax
    25df:	75 e7                	jne    25c8 <atoi+0x4c>
    25e1:	8b 45 08             	mov    0x8(%ebp),%eax
    25e4:	0f b6 00             	movzbl (%eax),%eax
    25e7:	3c 2d                	cmp    $0x2d,%al
    25e9:	75 2c                	jne    2617 <atoi+0x9b>
    25eb:	c7 45 f8 01 00 00 00 	movl   $0x1,-0x8(%ebp)
    25f2:	83 45 08 01          	addl   $0x1,0x8(%ebp)
    25f6:	eb 1f                	jmp    2617 <atoi+0x9b>
    25f8:	8b 55 f4             	mov    -0xc(%ebp),%edx
    25fb:	89 d0                	mov    %edx,%eax
    25fd:	c1 e0 02             	shl    $0x2,%eax
    2600:	01 d0                	add    %edx,%eax
    2602:	01 c0                	add    %eax,%eax
    2604:	89 c2                	mov    %eax,%edx
    2606:	0f be 45 ff          	movsbl -0x1(%ebp),%eax
    260a:	8d 04 02             	lea    (%edx,%eax,1),%eax
    260d:	83 e8 30             	sub    $0x30,%eax
    2610:	89 45 f4             	mov    %eax,-0xc(%ebp)
    2613:	83 45 08 01          	addl   $0x1,0x8(%ebp)
    2617:	8b 45 08             	mov    0x8(%ebp),%eax
    261a:	0f b6 00             	movzbl (%eax),%eax
    261d:	88 45 ff             	mov    %al,-0x1(%ebp)
    2620:	80 7d ff 2f          	cmpb   $0x2f,-0x1(%ebp)
    2624:	7e 06                	jle    262c <atoi+0xb0>
    2626:	80 7d ff 39          	cmpb   $0x39,-0x1(%ebp)
    262a:	7e cc                	jle    25f8 <atoi+0x7c>
    262c:	83 7d f8 00          	cmpl   $0x0,-0x8(%ebp)
    2630:	74 03                	je     2635 <atoi+0xb9>
    2632:	f7 5d f4             	negl   -0xc(%ebp)
    2635:	8b 45 f4             	mov    -0xc(%ebp),%eax
    2638:	c9                   	leave  
    2639:	c3                   	ret    

0000263a <itoa>:
    263a:	55                   	push   %ebp
    263b:	89 e5                	mov    %esp,%ebp
    263d:	53                   	push   %ebx
    263e:	83 ec 34             	sub    $0x34,%esp
    2641:	8b 45 08             	mov    0x8(%ebp),%eax
    2644:	89 45 ec             	mov    %eax,-0x14(%ebp)
    2647:	8b 45 08             	mov    0x8(%ebp),%eax
    264a:	89 45 f0             	mov    %eax,-0x10(%ebp)
    264d:	83 7d 08 00          	cmpl   $0x0,0x8(%ebp)
    2651:	75 30                	jne    2683 <itoa+0x49>
    2653:	c7 44 24 0c 31 00 00 	movl   $0x31,0xc(%esp)
    265a:	00 
    265b:	c7 44 24 08 af 44 00 	movl   $0x44af,0x8(%esp)
    2662:	00 
    2663:	c7 44 24 04 69 44 00 	movl   $0x4469,0x4(%esp)
    266a:	00 
    266b:	c7 04 24 b4 44 00 00 	movl   $0x44b4,(%esp)
    2672:	e8 e2 e8 ff ff       	call   f59 <debugf>
    2677:	c7 04 24 01 00 00 00 	movl   $0x1,(%esp)
    267e:	e8 69 fe ff ff       	call   24ec <exit>
    2683:	83 7d 0c 00          	cmpl   $0x0,0xc(%ebp)
    2687:	79 12                	jns    269b <itoa+0x61>
    2689:	8b 45 ec             	mov    -0x14(%ebp),%eax
    268c:	c6 00 2d             	movb   $0x2d,(%eax)
    268f:	83 45 ec 01          	addl   $0x1,-0x14(%ebp)
    2693:	8b 45 ec             	mov    -0x14(%ebp),%eax
    2696:	89 45 f0             	mov    %eax,-0x10(%ebp)
    2699:	eb 7d                	jmp    2718 <itoa+0xde>
    269b:	83 7d 0c 00          	cmpl   $0x0,0xc(%ebp)
    269f:	75 0c                	jne    26ad <itoa+0x73>
    26a1:	8b 45 ec             	mov    -0x14(%ebp),%eax
    26a4:	c6 00 30             	movb   $0x30,(%eax)
    26a7:	83 45 ec 01          	addl   $0x1,-0x14(%ebp)
    26ab:	eb 6b                	jmp    2718 <itoa+0xde>
    26ad:	f7 5d 0c             	negl   0xc(%ebp)
    26b0:	eb 66                	jmp    2718 <itoa+0xde>
    26b2:	8b 4d 0c             	mov    0xc(%ebp),%ecx
    26b5:	c7 45 e4 67 66 66 66 	movl   $0x66666667,-0x1c(%ebp)
    26bc:	8b 45 e4             	mov    -0x1c(%ebp),%eax
    26bf:	f7 e9                	imul   %ecx
    26c1:	c1 fa 02             	sar    $0x2,%edx
    26c4:	89 c8                	mov    %ecx,%eax
    26c6:	c1 f8 1f             	sar    $0x1f,%eax
    26c9:	89 d3                	mov    %edx,%ebx
    26cb:	29 c3                	sub    %eax,%ebx
    26cd:	89 5d e8             	mov    %ebx,-0x18(%ebp)
    26d0:	8b 45 e8             	mov    -0x18(%ebp),%eax
    26d3:	c1 e0 02             	shl    $0x2,%eax
    26d6:	03 45 e8             	add    -0x18(%ebp),%eax
    26d9:	01 c0                	add    %eax,%eax
    26db:	89 ca                	mov    %ecx,%edx
    26dd:	29 c2                	sub    %eax,%edx
    26df:	89 55 e8             	mov    %edx,-0x18(%ebp)
    26e2:	0f b6 55 e8          	movzbl -0x18(%ebp),%edx
    26e6:	b8 30 00 00 00       	mov    $0x30,%eax
    26eb:	28 d0                	sub    %dl,%al
    26ed:	89 c2                	mov    %eax,%edx
    26ef:	8b 45 ec             	mov    -0x14(%ebp),%eax
    26f2:	88 10                	mov    %dl,(%eax)
    26f4:	83 45 ec 01          	addl   $0x1,-0x14(%ebp)
    26f8:	8b 4d 0c             	mov    0xc(%ebp),%ecx
    26fb:	c7 45 e4 67 66 66 66 	movl   $0x66666667,-0x1c(%ebp)
    2702:	8b 45 e4             	mov    -0x1c(%ebp),%eax
    2705:	f7 e9                	imul   %ecx
    2707:	c1 fa 02             	sar    $0x2,%edx
    270a:	89 c8                	mov    %ecx,%eax
    270c:	c1 f8 1f             	sar    $0x1f,%eax
    270f:	89 d1                	mov    %edx,%ecx
    2711:	29 c1                	sub    %eax,%ecx
    2713:	89 c8                	mov    %ecx,%eax
    2715:	89 45 0c             	mov    %eax,0xc(%ebp)
    2718:	83 7d 0c 00          	cmpl   $0x0,0xc(%ebp)
    271c:	78 94                	js     26b2 <itoa+0x78>
    271e:	8b 45 ec             	mov    -0x14(%ebp),%eax
    2721:	c6 00 00             	movb   $0x0,(%eax)
    2724:	8b 45 ec             	mov    -0x14(%ebp),%eax
    2727:	83 e8 01             	sub    $0x1,%eax
    272a:	89 45 f4             	mov    %eax,-0xc(%ebp)
    272d:	eb 25                	jmp    2754 <itoa+0x11a>
    272f:	8b 45 f0             	mov    -0x10(%ebp),%eax
    2732:	0f b6 00             	movzbl (%eax),%eax
    2735:	88 45 fb             	mov    %al,-0x5(%ebp)
    2738:	8b 45 f4             	mov    -0xc(%ebp),%eax
    273b:	0f b6 10             	movzbl (%eax),%edx
    273e:	8b 45 f0             	mov    -0x10(%ebp),%eax
    2741:	88 10                	mov    %dl,(%eax)
    2743:	83 45 f0 01          	addl   $0x1,-0x10(%ebp)
    2747:	8b 55 f4             	mov    -0xc(%ebp),%edx
    274a:	0f b6 45 fb          	movzbl -0x5(%ebp),%eax
    274e:	88 02                	mov    %al,(%edx)
    2750:	83 6d f4 01          	subl   $0x1,-0xc(%ebp)
    2754:	8b 45 f0             	mov    -0x10(%ebp),%eax
    2757:	3b 45 f4             	cmp    -0xc(%ebp),%eax
    275a:	72 d3                	jb     272f <itoa+0xf5>
    275c:	83 c4 34             	add    $0x34,%esp
    275f:	5b                   	pop    %ebx
    2760:	5d                   	pop    %ebp
    2761:	c3                   	ret    

00002762 <memchr>:
    2762:	55                   	push   %ebp
    2763:	89 e5                	mov    %esp,%ebp
    2765:	83 ec 14             	sub    $0x14,%esp
    2768:	8b 45 08             	mov    0x8(%ebp),%eax
    276b:	89 45 fc             	mov    %eax,-0x4(%ebp)
    276e:	eb 1a                	jmp    278a <memchr+0x28>
    2770:	8b 45 fc             	mov    -0x4(%ebp),%eax
    2773:	0f b6 00             	movzbl (%eax),%eax
    2776:	0f be c0             	movsbl %al,%eax
    2779:	3b 45 0c             	cmp    0xc(%ebp),%eax
    277c:	75 08                	jne    2786 <memchr+0x24>
    277e:	8b 45 fc             	mov    -0x4(%ebp),%eax
    2781:	89 45 ec             	mov    %eax,-0x14(%ebp)
    2784:	eb 24                	jmp    27aa <memchr+0x48>
    2786:	83 45 fc 01          	addl   $0x1,-0x4(%ebp)
    278a:	8b 45 fc             	mov    -0x4(%ebp),%eax
    278d:	0f b6 00             	movzbl (%eax),%eax
    2790:	84 c0                	test   %al,%al
    2792:	74 0f                	je     27a3 <memchr+0x41>
    2794:	83 7d 10 00          	cmpl   $0x0,0x10(%ebp)
    2798:	0f 95 c0             	setne  %al
    279b:	83 6d 10 01          	subl   $0x1,0x10(%ebp)
    279f:	84 c0                	test   %al,%al
    27a1:	75 cd                	jne    2770 <memchr+0xe>
    27a3:	c7 45 ec 00 00 00 00 	movl   $0x0,-0x14(%ebp)
    27aa:	8b 45 ec             	mov    -0x14(%ebp),%eax
    27ad:	c9                   	leave  
    27ae:	c3                   	ret    

000027af <memcpy>:
    27af:	55                   	push   %ebp
    27b0:	89 e5                	mov    %esp,%ebp
    27b2:	83 ec 20             	sub    $0x20,%esp
    27b5:	8b 45 10             	mov    0x10(%ebp),%eax
    27b8:	83 e0 03             	and    $0x3,%eax
    27bb:	89 45 e8             	mov    %eax,-0x18(%ebp)
    27be:	8b 55 e8             	mov    -0x18(%ebp),%edx
    27c1:	8b 45 10             	mov    0x10(%ebp),%eax
    27c4:	29 d0                	sub    %edx,%eax
    27c6:	c1 e8 02             	shr    $0x2,%eax
    27c9:	89 45 ec             	mov    %eax,-0x14(%ebp)
    27cc:	8b 45 08             	mov    0x8(%ebp),%eax
    27cf:	89 45 f0             	mov    %eax,-0x10(%ebp)
    27d2:	8b 45 0c             	mov    0xc(%ebp),%eax
    27d5:	89 45 f4             	mov    %eax,-0xc(%ebp)
    27d8:	eb 12                	jmp    27ec <memcpy+0x3d>
    27da:	8b 45 f4             	mov    -0xc(%ebp),%eax
    27dd:	8b 10                	mov    (%eax),%edx
    27df:	8b 45 f0             	mov    -0x10(%ebp),%eax
    27e2:	89 10                	mov    %edx,(%eax)
    27e4:	83 45 f0 04          	addl   $0x4,-0x10(%ebp)
    27e8:	83 45 f4 04          	addl   $0x4,-0xc(%ebp)
    27ec:	83 7d ec 00          	cmpl   $0x0,-0x14(%ebp)
    27f0:	0f 95 c0             	setne  %al
    27f3:	83 6d ec 01          	subl   $0x1,-0x14(%ebp)
    27f7:	84 c0                	test   %al,%al
    27f9:	75 df                	jne    27da <memcpy+0x2b>
    27fb:	8b 45 f0             	mov    -0x10(%ebp),%eax
    27fe:	89 45 f8             	mov    %eax,-0x8(%ebp)
    2801:	8b 45 f4             	mov    -0xc(%ebp),%eax
    2804:	89 45 fc             	mov    %eax,-0x4(%ebp)
    2807:	eb 13                	jmp    281c <memcpy+0x6d>
    2809:	8b 45 fc             	mov    -0x4(%ebp),%eax
    280c:	0f b6 10             	movzbl (%eax),%edx
    280f:	8b 45 f8             	mov    -0x8(%ebp),%eax
    2812:	88 10                	mov    %dl,(%eax)
    2814:	83 45 f8 01          	addl   $0x1,-0x8(%ebp)
    2818:	83 45 fc 01          	addl   $0x1,-0x4(%ebp)
    281c:	83 7d e8 00          	cmpl   $0x0,-0x18(%ebp)
    2820:	0f 95 c0             	setne  %al
    2823:	83 6d e8 01          	subl   $0x1,-0x18(%ebp)
    2827:	84 c0                	test   %al,%al
    2829:	75 de                	jne    2809 <memcpy+0x5a>
    282b:	8b 45 08             	mov    0x8(%ebp),%eax
    282e:	c9                   	leave  
    282f:	c3                   	ret    

00002830 <memcmp>:
    2830:	55                   	push   %ebp
    2831:	89 e5                	mov    %esp,%ebp
    2833:	83 ec 18             	sub    $0x18,%esp
    2836:	8b 45 08             	mov    0x8(%ebp),%eax
    2839:	89 45 f8             	mov    %eax,-0x8(%ebp)
    283c:	8b 45 0c             	mov    0xc(%ebp),%eax
    283f:	89 45 fc             	mov    %eax,-0x4(%ebp)
    2842:	eb 4b                	jmp    288f <memcmp+0x5f>
    2844:	8b 45 f8             	mov    -0x8(%ebp),%eax
    2847:	0f b6 10             	movzbl (%eax),%edx
    284a:	8b 45 fc             	mov    -0x4(%ebp),%eax
    284d:	0f b6 00             	movzbl (%eax),%eax
    2850:	38 c2                	cmp    %al,%dl
    2852:	0f 95 c0             	setne  %al
    2855:	83 45 f8 01          	addl   $0x1,-0x8(%ebp)
    2859:	83 45 fc 01          	addl   $0x1,-0x4(%ebp)
    285d:	84 c0                	test   %al,%al
    285f:	74 2e                	je     288f <memcmp+0x5f>
    2861:	8b 45 f8             	mov    -0x8(%ebp),%eax
    2864:	83 e8 01             	sub    $0x1,%eax
    2867:	0f b6 10             	movzbl (%eax),%edx
    286a:	8b 45 fc             	mov    -0x4(%ebp),%eax
    286d:	83 e8 01             	sub    $0x1,%eax
    2870:	0f b6 00             	movzbl (%eax),%eax
    2873:	38 c2                	cmp    %al,%dl
    2875:	73 09                	jae    2880 <memcmp+0x50>
    2877:	c7 45 ec ff ff ff ff 	movl   $0xffffffff,-0x14(%ebp)
    287e:	eb 07                	jmp    2887 <memcmp+0x57>
    2880:	c7 45 ec 01 00 00 00 	movl   $0x1,-0x14(%ebp)
    2887:	8b 45 ec             	mov    -0x14(%ebp),%eax
    288a:	89 45 e8             	mov    %eax,-0x18(%ebp)
    288d:	eb 16                	jmp    28a5 <memcmp+0x75>
    288f:	83 7d 10 00          	cmpl   $0x0,0x10(%ebp)
    2893:	0f 95 c0             	setne  %al
    2896:	83 6d 10 01          	subl   $0x1,0x10(%ebp)
    289a:	84 c0                	test   %al,%al
    289c:	75 a6                	jne    2844 <memcmp+0x14>
    289e:	c7 45 e8 00 00 00 00 	movl   $0x0,-0x18(%ebp)
    28a5:	8b 45 e8             	mov    -0x18(%ebp),%eax
    28a8:	c9                   	leave  
    28a9:	c3                   	ret    

000028aa <memset>:
    28aa:	55                   	push   %ebp
    28ab:	89 e5                	mov    %esp,%ebp
    28ad:	83 ec 10             	sub    $0x10,%esp
    28b0:	8b 45 10             	mov    0x10(%ebp),%eax
    28b3:	83 e0 03             	and    $0x3,%eax
    28b6:	89 45 f0             	mov    %eax,-0x10(%ebp)
    28b9:	8b 55 f0             	mov    -0x10(%ebp),%edx
    28bc:	8b 45 10             	mov    0x10(%ebp),%eax
    28bf:	29 d0                	sub    %edx,%eax
    28c1:	c1 e8 02             	shr    $0x2,%eax
    28c4:	89 45 f4             	mov    %eax,-0xc(%ebp)
    28c7:	8b 45 08             	mov    0x8(%ebp),%eax
    28ca:	89 45 f8             	mov    %eax,-0x8(%ebp)
    28cd:	eb 0c                	jmp    28db <memset+0x31>
    28cf:	8b 55 f8             	mov    -0x8(%ebp),%edx
    28d2:	8b 45 0c             	mov    0xc(%ebp),%eax
    28d5:	89 02                	mov    %eax,(%edx)
    28d7:	83 45 f8 04          	addl   $0x4,-0x8(%ebp)
    28db:	83 7d f4 00          	cmpl   $0x0,-0xc(%ebp)
    28df:	0f 95 c0             	setne  %al
    28e2:	83 6d f4 01          	subl   $0x1,-0xc(%ebp)
    28e6:	84 c0                	test   %al,%al
    28e8:	75 e5                	jne    28cf <memset+0x25>
    28ea:	8b 45 f8             	mov    -0x8(%ebp),%eax
    28ed:	89 45 fc             	mov    %eax,-0x4(%ebp)
    28f0:	eb 0e                	jmp    2900 <memset+0x56>
    28f2:	8b 45 0c             	mov    0xc(%ebp),%eax
    28f5:	89 c2                	mov    %eax,%edx
    28f7:	8b 45 fc             	mov    -0x4(%ebp),%eax
    28fa:	88 10                	mov    %dl,(%eax)
    28fc:	83 45 fc 01          	addl   $0x1,-0x4(%ebp)
    2900:	83 7d f0 00          	cmpl   $0x0,-0x10(%ebp)
    2904:	0f 95 c0             	setne  %al
    2907:	83 6d f0 01          	subl   $0x1,-0x10(%ebp)
    290b:	84 c0                	test   %al,%al
    290d:	75 e3                	jne    28f2 <memset+0x48>
    290f:	c9                   	leave  
    2910:	c3                   	ret    

00002911 <memmove>:
    2911:	55                   	push   %ebp
    2912:	89 e5                	mov    %esp,%ebp
    2914:	83 ec 14             	sub    $0x14,%esp
    2917:	8b 55 08             	mov    0x8(%ebp),%edx
    291a:	8b 45 0c             	mov    0xc(%ebp),%eax
    291d:	39 c2                	cmp    %eax,%edx
    291f:	75 0b                	jne    292c <memmove+0x1b>
    2921:	8b 45 08             	mov    0x8(%ebp),%eax
    2924:	89 45 ec             	mov    %eax,-0x14(%ebp)
    2927:	e9 84 00 00 00       	jmp    29b0 <memmove+0x9f>
    292c:	8b 55 08             	mov    0x8(%ebp),%edx
    292f:	8b 45 0c             	mov    0xc(%ebp),%eax
    2932:	39 c2                	cmp    %eax,%edx
    2934:	76 44                	jbe    297a <memmove+0x69>
    2936:	8b 55 0c             	mov    0xc(%ebp),%edx
    2939:	8b 45 10             	mov    0x10(%ebp),%eax
    293c:	83 e8 01             	sub    $0x1,%eax
    293f:	8d 04 02             	lea    (%edx,%eax,1),%eax
    2942:	89 45 f8             	mov    %eax,-0x8(%ebp)
    2945:	8b 55 08             	mov    0x8(%ebp),%edx
    2948:	8b 45 10             	mov    0x10(%ebp),%eax
    294b:	83 e8 01             	sub    $0x1,%eax
    294e:	8d 04 02             	lea    (%edx,%eax,1),%eax
    2951:	89 45 fc             	mov    %eax,-0x4(%ebp)
    2954:	eb 13                	jmp    2969 <memmove+0x58>
    2956:	8b 45 f8             	mov    -0x8(%ebp),%eax
    2959:	0f b6 10             	movzbl (%eax),%edx
    295c:	8b 45 fc             	mov    -0x4(%ebp),%eax
    295f:	88 10                	mov    %dl,(%eax)
    2961:	83 6d fc 01          	subl   $0x1,-0x4(%ebp)
    2965:	83 6d f8 01          	subl   $0x1,-0x8(%ebp)
    2969:	83 7d 10 00          	cmpl   $0x0,0x10(%ebp)
    296d:	0f 95 c0             	setne  %al
    2970:	83 6d 10 01          	subl   $0x1,0x10(%ebp)
    2974:	84 c0                	test   %al,%al
    2976:	75 de                	jne    2956 <memmove+0x45>
    2978:	eb 30                	jmp    29aa <memmove+0x99>
    297a:	8b 45 0c             	mov    0xc(%ebp),%eax
    297d:	89 45 f8             	mov    %eax,-0x8(%ebp)
    2980:	8b 45 08             	mov    0x8(%ebp),%eax
    2983:	89 45 fc             	mov    %eax,-0x4(%ebp)
    2986:	eb 13                	jmp    299b <memmove+0x8a>
    2988:	8b 45 f8             	mov    -0x8(%ebp),%eax
    298b:	0f b6 10             	movzbl (%eax),%edx
    298e:	8b 45 fc             	mov    -0x4(%ebp),%eax
    2991:	88 10                	mov    %dl,(%eax)
    2993:	83 45 fc 01          	addl   $0x1,-0x4(%ebp)
    2997:	83 45 f8 01          	addl   $0x1,-0x8(%ebp)
    299b:	83 7d 10 00          	cmpl   $0x0,0x10(%ebp)
    299f:	0f 95 c0             	setne  %al
    29a2:	83 6d 10 01          	subl   $0x1,0x10(%ebp)
    29a6:	84 c0                	test   %al,%al
    29a8:	75 de                	jne    2988 <memmove+0x77>
    29aa:	8b 45 08             	mov    0x8(%ebp),%eax
    29ad:	89 45 ec             	mov    %eax,-0x14(%ebp)
    29b0:	8b 45 ec             	mov    -0x14(%ebp),%eax
    29b3:	c9                   	leave  
    29b4:	c3                   	ret    

000029b5 <strcpy>:
    29b5:	55                   	push   %ebp
    29b6:	89 e5                	mov    %esp,%ebp
    29b8:	83 ec 28             	sub    $0x28,%esp
    29bb:	8b 45 08             	mov    0x8(%ebp),%eax
    29be:	89 45 fc             	mov    %eax,-0x4(%ebp)
    29c1:	83 7d 0c 00          	cmpl   $0x0,0xc(%ebp)
    29c5:	75 30                	jne    29f7 <strcpy+0x42>
    29c7:	c7 44 24 0c a2 00 00 	movl   $0xa2,0xc(%esp)
    29ce:	00 
    29cf:	c7 44 24 08 e6 44 00 	movl   $0x44e6,0x8(%esp)
    29d6:	00 
    29d7:	c7 44 24 04 69 44 00 	movl   $0x4469,0x4(%esp)
    29de:	00 
    29df:	c7 04 24 f0 44 00 00 	movl   $0x44f0,(%esp)
    29e6:	e8 6e e5 ff ff       	call   f59 <debugf>
    29eb:	c7 04 24 01 00 00 00 	movl   $0x1,(%esp)
    29f2:	e8 f5 fa ff ff       	call   24ec <exit>
    29f7:	83 7d 08 00          	cmpl   $0x0,0x8(%ebp)
    29fb:	75 45                	jne    2a42 <strcpy+0x8d>
    29fd:	c7 44 24 0c a3 00 00 	movl   $0xa3,0xc(%esp)
    2a04:	00 
    2a05:	c7 44 24 08 e6 44 00 	movl   $0x44e6,0x8(%esp)
    2a0c:	00 
    2a0d:	c7 44 24 04 69 44 00 	movl   $0x4469,0x4(%esp)
    2a14:	00 
    2a15:	c7 04 24 20 45 00 00 	movl   $0x4520,(%esp)
    2a1c:	e8 38 e5 ff ff       	call   f59 <debugf>
    2a21:	c7 04 24 01 00 00 00 	movl   $0x1,(%esp)
    2a28:	e8 bf fa ff ff       	call   24ec <exit>
    2a2d:	eb 13                	jmp    2a42 <strcpy+0x8d>
    2a2f:	8b 45 0c             	mov    0xc(%ebp),%eax
    2a32:	0f b6 10             	movzbl (%eax),%edx
    2a35:	8b 45 08             	mov    0x8(%ebp),%eax
    2a38:	88 10                	mov    %dl,(%eax)
    2a3a:	83 45 08 01          	addl   $0x1,0x8(%ebp)
    2a3e:	83 45 0c 01          	addl   $0x1,0xc(%ebp)
    2a42:	8b 45 0c             	mov    0xc(%ebp),%eax
    2a45:	0f b6 00             	movzbl (%eax),%eax
    2a48:	84 c0                	test   %al,%al
    2a4a:	75 e3                	jne    2a2f <strcpy+0x7a>
    2a4c:	8b 45 08             	mov    0x8(%ebp),%eax
    2a4f:	c6 00 00             	movb   $0x0,(%eax)
    2a52:	8b 45 fc             	mov    -0x4(%ebp),%eax
    2a55:	c9                   	leave  
    2a56:	c3                   	ret    

00002a57 <strncpy>:
    2a57:	55                   	push   %ebp
    2a58:	89 e5                	mov    %esp,%ebp
    2a5a:	83 ec 28             	sub    $0x28,%esp
    2a5d:	8b 45 08             	mov    0x8(%ebp),%eax
    2a60:	89 45 fc             	mov    %eax,-0x4(%ebp)
    2a63:	83 7d 0c 00          	cmpl   $0x0,0xc(%ebp)
    2a67:	75 30                	jne    2a99 <strncpy+0x42>
    2a69:	c7 44 24 0c af 00 00 	movl   $0xaf,0xc(%esp)
    2a70:	00 
    2a71:	c7 44 24 08 4e 45 00 	movl   $0x454e,0x8(%esp)
    2a78:	00 
    2a79:	c7 44 24 04 69 44 00 	movl   $0x4469,0x4(%esp)
    2a80:	00 
    2a81:	c7 04 24 f0 44 00 00 	movl   $0x44f0,(%esp)
    2a88:	e8 cc e4 ff ff       	call   f59 <debugf>
    2a8d:	c7 04 24 01 00 00 00 	movl   $0x1,(%esp)
    2a94:	e8 53 fa ff ff       	call   24ec <exit>
    2a99:	83 7d 08 00          	cmpl   $0x0,0x8(%ebp)
    2a9d:	75 49                	jne    2ae8 <strncpy+0x91>
    2a9f:	c7 44 24 0c b0 00 00 	movl   $0xb0,0xc(%esp)
    2aa6:	00 
    2aa7:	c7 44 24 08 4e 45 00 	movl   $0x454e,0x8(%esp)
    2aae:	00 
    2aaf:	c7 44 24 04 69 44 00 	movl   $0x4469,0x4(%esp)
    2ab6:	00 
    2ab7:	c7 04 24 20 45 00 00 	movl   $0x4520,(%esp)
    2abe:	e8 96 e4 ff ff       	call   f59 <debugf>
    2ac3:	c7 04 24 01 00 00 00 	movl   $0x1,(%esp)
    2aca:	e8 1d fa ff ff       	call   24ec <exit>
    2acf:	eb 17                	jmp    2ae8 <strncpy+0x91>
    2ad1:	8b 45 0c             	mov    0xc(%ebp),%eax
    2ad4:	0f b6 10             	movzbl (%eax),%edx
    2ad7:	8b 45 08             	mov    0x8(%ebp),%eax
    2ada:	88 10                	mov    %dl,(%eax)
    2adc:	83 45 08 01          	addl   $0x1,0x8(%ebp)
    2ae0:	83 45 0c 01          	addl   $0x1,0xc(%ebp)
    2ae4:	83 6d 10 01          	subl   $0x1,0x10(%ebp)
    2ae8:	8b 45 0c             	mov    0xc(%ebp),%eax
    2aeb:	0f b6 00             	movzbl (%eax),%eax
    2aee:	84 c0                	test   %al,%al
    2af0:	74 06                	je     2af8 <strncpy+0xa1>
    2af2:	83 7d 10 00          	cmpl   $0x0,0x10(%ebp)
    2af6:	75 d9                	jne    2ad1 <strncpy+0x7a>
    2af8:	8b 45 08             	mov    0x8(%ebp),%eax
    2afb:	c6 00 00             	movb   $0x0,(%eax)
    2afe:	83 45 08 01          	addl   $0x1,0x8(%ebp)
    2b02:	83 7d 10 00          	cmpl   $0x0,0x10(%ebp)
    2b06:	0f 95 c0             	setne  %al
    2b09:	83 6d 10 01          	subl   $0x1,0x10(%ebp)
    2b0d:	84 c0                	test   %al,%al
    2b0f:	75 e7                	jne    2af8 <strncpy+0xa1>
    2b11:	8b 45 fc             	mov    -0x4(%ebp),%eax
    2b14:	c9                   	leave  
    2b15:	c3                   	ret    

00002b16 <strcat>:
    2b16:	55                   	push   %ebp
    2b17:	89 e5                	mov    %esp,%ebp
    2b19:	83 ec 28             	sub    $0x28,%esp
    2b1c:	8b 45 08             	mov    0x8(%ebp),%eax
    2b1f:	89 45 fc             	mov    %eax,-0x4(%ebp)
    2b22:	83 7d 08 00          	cmpl   $0x0,0x8(%ebp)
    2b26:	75 30                	jne    2b58 <strcat+0x42>
    2b28:	c7 44 24 0c c2 00 00 	movl   $0xc2,0xc(%esp)
    2b2f:	00 
    2b30:	c7 44 24 08 56 45 00 	movl   $0x4556,0x8(%esp)
    2b37:	00 
    2b38:	c7 44 24 04 69 44 00 	movl   $0x4469,0x4(%esp)
    2b3f:	00 
    2b40:	c7 04 24 60 45 00 00 	movl   $0x4560,(%esp)
    2b47:	e8 0d e4 ff ff       	call   f59 <debugf>
    2b4c:	c7 04 24 01 00 00 00 	movl   $0x1,(%esp)
    2b53:	e8 94 f9 ff ff       	call   24ec <exit>
    2b58:	83 7d 0c 00          	cmpl   $0x0,0xc(%ebp)
    2b5c:	75 36                	jne    2b94 <strcat+0x7e>
    2b5e:	c7 44 24 0c c3 00 00 	movl   $0xc3,0xc(%esp)
    2b65:	00 
    2b66:	c7 44 24 08 56 45 00 	movl   $0x4556,0x8(%esp)
    2b6d:	00 
    2b6e:	c7 44 24 04 69 44 00 	movl   $0x4469,0x4(%esp)
    2b75:	00 
    2b76:	c7 04 24 90 45 00 00 	movl   $0x4590,(%esp)
    2b7d:	e8 d7 e3 ff ff       	call   f59 <debugf>
    2b82:	c7 04 24 01 00 00 00 	movl   $0x1,(%esp)
    2b89:	e8 5e f9 ff ff       	call   24ec <exit>
    2b8e:	eb 04                	jmp    2b94 <strcat+0x7e>
    2b90:	83 45 08 01          	addl   $0x1,0x8(%ebp)
    2b94:	8b 45 08             	mov    0x8(%ebp),%eax
    2b97:	0f b6 00             	movzbl (%eax),%eax
    2b9a:	84 c0                	test   %al,%al
    2b9c:	75 f2                	jne    2b90 <strcat+0x7a>
    2b9e:	eb 13                	jmp    2bb3 <strcat+0x9d>
    2ba0:	8b 45 0c             	mov    0xc(%ebp),%eax
    2ba3:	0f b6 10             	movzbl (%eax),%edx
    2ba6:	8b 45 08             	mov    0x8(%ebp),%eax
    2ba9:	88 10                	mov    %dl,(%eax)
    2bab:	83 45 08 01          	addl   $0x1,0x8(%ebp)
    2baf:	83 45 0c 01          	addl   $0x1,0xc(%ebp)
    2bb3:	8b 45 0c             	mov    0xc(%ebp),%eax
    2bb6:	0f b6 00             	movzbl (%eax),%eax
    2bb9:	84 c0                	test   %al,%al
    2bbb:	75 e3                	jne    2ba0 <strcat+0x8a>
    2bbd:	8b 45 fc             	mov    -0x4(%ebp),%eax
    2bc0:	c9                   	leave  
    2bc1:	c3                   	ret    

00002bc2 <strncat>:
    2bc2:	55                   	push   %ebp
    2bc3:	89 e5                	mov    %esp,%ebp
    2bc5:	83 ec 28             	sub    $0x28,%esp
    2bc8:	8b 45 08             	mov    0x8(%ebp),%eax
    2bcb:	89 45 fc             	mov    %eax,-0x4(%ebp)
    2bce:	83 7d 08 00          	cmpl   $0x0,0x8(%ebp)
    2bd2:	75 30                	jne    2c04 <strncat+0x42>
    2bd4:	c7 44 24 0c d1 00 00 	movl   $0xd1,0xc(%esp)
    2bdb:	00 
    2bdc:	c7 44 24 08 c0 45 00 	movl   $0x45c0,0x8(%esp)
    2be3:	00 
    2be4:	c7 44 24 04 69 44 00 	movl   $0x4469,0x4(%esp)
    2beb:	00 
    2bec:	c7 04 24 60 45 00 00 	movl   $0x4560,(%esp)
    2bf3:	e8 61 e3 ff ff       	call   f59 <debugf>
    2bf8:	c7 04 24 01 00 00 00 	movl   $0x1,(%esp)
    2bff:	e8 e8 f8 ff ff       	call   24ec <exit>
    2c04:	83 7d 0c 00          	cmpl   $0x0,0xc(%ebp)
    2c08:	75 36                	jne    2c40 <strncat+0x7e>
    2c0a:	c7 44 24 0c d2 00 00 	movl   $0xd2,0xc(%esp)
    2c11:	00 
    2c12:	c7 44 24 08 c0 45 00 	movl   $0x45c0,0x8(%esp)
    2c19:	00 
    2c1a:	c7 44 24 04 69 44 00 	movl   $0x4469,0x4(%esp)
    2c21:	00 
    2c22:	c7 04 24 90 45 00 00 	movl   $0x4590,(%esp)
    2c29:	e8 2b e3 ff ff       	call   f59 <debugf>
    2c2e:	c7 04 24 01 00 00 00 	movl   $0x1,(%esp)
    2c35:	e8 b2 f8 ff ff       	call   24ec <exit>
    2c3a:	eb 04                	jmp    2c40 <strncat+0x7e>
    2c3c:	83 45 08 01          	addl   $0x1,0x8(%ebp)
    2c40:	8b 45 08             	mov    0x8(%ebp),%eax
    2c43:	0f b6 00             	movzbl (%eax),%eax
    2c46:	84 c0                	test   %al,%al
    2c48:	75 f2                	jne    2c3c <strncat+0x7a>
    2c4a:	eb 13                	jmp    2c5f <strncat+0x9d>
    2c4c:	8b 45 0c             	mov    0xc(%ebp),%eax
    2c4f:	0f b6 10             	movzbl (%eax),%edx
    2c52:	8b 45 08             	mov    0x8(%ebp),%eax
    2c55:	88 10                	mov    %dl,(%eax)
    2c57:	83 45 08 01          	addl   $0x1,0x8(%ebp)
    2c5b:	83 45 0c 01          	addl   $0x1,0xc(%ebp)
    2c5f:	8b 45 0c             	mov    0xc(%ebp),%eax
    2c62:	0f b6 00             	movzbl (%eax),%eax
    2c65:	84 c0                	test   %al,%al
    2c67:	74 0f                	je     2c78 <strncat+0xb6>
    2c69:	83 7d 10 00          	cmpl   $0x0,0x10(%ebp)
    2c6d:	0f 95 c0             	setne  %al
    2c70:	83 6d 10 01          	subl   $0x1,0x10(%ebp)
    2c74:	84 c0                	test   %al,%al
    2c76:	75 d4                	jne    2c4c <strncat+0x8a>
    2c78:	8b 45 08             	mov    0x8(%ebp),%eax
    2c7b:	c6 00 00             	movb   $0x0,(%eax)
    2c7e:	8b 45 fc             	mov    -0x4(%ebp),%eax
    2c81:	c9                   	leave  
    2c82:	c3                   	ret    

00002c83 <strcmp>:
    2c83:	55                   	push   %ebp
    2c84:	89 e5                	mov    %esp,%ebp
    2c86:	83 ec 28             	sub    $0x28,%esp
    2c89:	8b 45 08             	mov    0x8(%ebp),%eax
    2c8c:	0f b6 00             	movzbl (%eax),%eax
    2c8f:	88 45 fe             	mov    %al,-0x2(%ebp)
    2c92:	8b 45 0c             	mov    0xc(%ebp),%eax
    2c95:	0f b6 00             	movzbl (%eax),%eax
    2c98:	88 45 ff             	mov    %al,-0x1(%ebp)
    2c9b:	83 7d 08 00          	cmpl   $0x0,0x8(%ebp)
    2c9f:	75 30                	jne    2cd1 <strcmp+0x4e>
    2ca1:	c7 44 24 0c e2 00 00 	movl   $0xe2,0xc(%esp)
    2ca8:	00 
    2ca9:	c7 44 24 08 c8 45 00 	movl   $0x45c8,0x8(%esp)
    2cb0:	00 
    2cb1:	c7 44 24 04 69 44 00 	movl   $0x4469,0x4(%esp)
    2cb8:	00 
    2cb9:	c7 04 24 60 45 00 00 	movl   $0x4560,(%esp)
    2cc0:	e8 94 e2 ff ff       	call   f59 <debugf>
    2cc5:	c7 04 24 01 00 00 00 	movl   $0x1,(%esp)
    2ccc:	e8 1b f8 ff ff       	call   24ec <exit>
    2cd1:	83 7d 0c 00          	cmpl   $0x0,0xc(%ebp)
    2cd5:	75 70                	jne    2d47 <strcmp+0xc4>
    2cd7:	c7 44 24 0c e3 00 00 	movl   $0xe3,0xc(%esp)
    2cde:	00 
    2cdf:	c7 44 24 08 c8 45 00 	movl   $0x45c8,0x8(%esp)
    2ce6:	00 
    2ce7:	c7 44 24 04 69 44 00 	movl   $0x4469,0x4(%esp)
    2cee:	00 
    2cef:	c7 04 24 90 45 00 00 	movl   $0x4590,(%esp)
    2cf6:	e8 5e e2 ff ff       	call   f59 <debugf>
    2cfb:	c7 04 24 01 00 00 00 	movl   $0x1,(%esp)
    2d02:	e8 e5 f7 ff ff       	call   24ec <exit>
    2d07:	eb 3e                	jmp    2d47 <strcmp+0xc4>
    2d09:	0f b6 45 fe          	movzbl -0x2(%ebp),%eax
    2d0d:	3a 45 ff             	cmp    -0x1(%ebp),%al
    2d10:	74 1b                	je     2d2d <strcmp+0xaa>
    2d12:	0f b6 45 fe          	movzbl -0x2(%ebp),%eax
    2d16:	3a 45 ff             	cmp    -0x1(%ebp),%al
    2d19:	7e 09                	jle    2d24 <strcmp+0xa1>
    2d1b:	c7 45 ec 01 00 00 00 	movl   $0x1,-0x14(%ebp)
    2d22:	eb 60                	jmp    2d84 <strcmp+0x101>
    2d24:	c7 45 ec ff ff ff ff 	movl   $0xffffffff,-0x14(%ebp)
    2d2b:	eb 57                	jmp    2d84 <strcmp+0x101>
    2d2d:	83 45 08 01          	addl   $0x1,0x8(%ebp)
    2d31:	8b 45 08             	mov    0x8(%ebp),%eax
    2d34:	0f b6 00             	movzbl (%eax),%eax
    2d37:	88 45 fe             	mov    %al,-0x2(%ebp)
    2d3a:	83 45 0c 01          	addl   $0x1,0xc(%ebp)
    2d3e:	8b 45 0c             	mov    0xc(%ebp),%eax
    2d41:	0f b6 00             	movzbl (%eax),%eax
    2d44:	88 45 ff             	mov    %al,-0x1(%ebp)
    2d47:	80 7d fe 00          	cmpb   $0x0,-0x2(%ebp)
    2d4b:	74 06                	je     2d53 <strcmp+0xd0>
    2d4d:	80 7d ff 00          	cmpb   $0x0,-0x1(%ebp)
    2d51:	75 b6                	jne    2d09 <strcmp+0x86>
    2d53:	80 7d fe 00          	cmpb   $0x0,-0x2(%ebp)
    2d57:	75 0f                	jne    2d68 <strcmp+0xe5>
    2d59:	80 7d ff 00          	cmpb   $0x0,-0x1(%ebp)
    2d5d:	75 09                	jne    2d68 <strcmp+0xe5>
    2d5f:	c7 45 ec 00 00 00 00 	movl   $0x0,-0x14(%ebp)
    2d66:	eb 1c                	jmp    2d84 <strcmp+0x101>
    2d68:	80 7d fe 00          	cmpb   $0x0,-0x2(%ebp)
    2d6c:	75 0f                	jne    2d7d <strcmp+0xfa>
    2d6e:	80 7d ff 00          	cmpb   $0x0,-0x1(%ebp)
    2d72:	74 09                	je     2d7d <strcmp+0xfa>
    2d74:	c7 45 ec ff ff ff ff 	movl   $0xffffffff,-0x14(%ebp)
    2d7b:	eb 07                	jmp    2d84 <strcmp+0x101>
    2d7d:	c7 45 ec 01 00 00 00 	movl   $0x1,-0x14(%ebp)
    2d84:	8b 45 ec             	mov    -0x14(%ebp),%eax
    2d87:	c9                   	leave  
    2d88:	c3                   	ret    

00002d89 <strncmp>:
    2d89:	55                   	push   %ebp
    2d8a:	89 e5                	mov    %esp,%ebp
    2d8c:	83 ec 18             	sub    $0x18,%esp
    2d8f:	83 7d 08 00          	cmpl   $0x0,0x8(%ebp)
    2d93:	75 30                	jne    2dc5 <strncmp+0x3c>
    2d95:	c7 44 24 0c f8 00 00 	movl   $0xf8,0xc(%esp)
    2d9c:	00 
    2d9d:	c7 44 24 08 cf 45 00 	movl   $0x45cf,0x8(%esp)
    2da4:	00 
    2da5:	c7 44 24 04 69 44 00 	movl   $0x4469,0x4(%esp)
    2dac:	00 
    2dad:	c7 04 24 60 45 00 00 	movl   $0x4560,(%esp)
    2db4:	e8 a0 e1 ff ff       	call   f59 <debugf>
    2db9:	c7 04 24 01 00 00 00 	movl   $0x1,(%esp)
    2dc0:	e8 27 f7 ff ff       	call   24ec <exit>
    2dc5:	83 7d 0c 00          	cmpl   $0x0,0xc(%ebp)
    2dc9:	75 7d                	jne    2e48 <strncmp+0xbf>
    2dcb:	c7 44 24 0c f9 00 00 	movl   $0xf9,0xc(%esp)
    2dd2:	00 
    2dd3:	c7 44 24 08 cf 45 00 	movl   $0x45cf,0x8(%esp)
    2dda:	00 
    2ddb:	c7 44 24 04 69 44 00 	movl   $0x4469,0x4(%esp)
    2de2:	00 
    2de3:	c7 04 24 90 45 00 00 	movl   $0x4590,(%esp)
    2dea:	e8 6a e1 ff ff       	call   f59 <debugf>
    2def:	c7 04 24 01 00 00 00 	movl   $0x1,(%esp)
    2df6:	e8 f1 f6 ff ff       	call   24ec <exit>
    2dfb:	eb 4b                	jmp    2e48 <strncmp+0xbf>
    2dfd:	8b 45 08             	mov    0x8(%ebp),%eax
    2e00:	0f b6 10             	movzbl (%eax),%edx
    2e03:	8b 45 0c             	mov    0xc(%ebp),%eax
    2e06:	0f b6 00             	movzbl (%eax),%eax
    2e09:	38 c2                	cmp    %al,%dl
    2e0b:	0f 95 c0             	setne  %al
    2e0e:	83 45 08 01          	addl   $0x1,0x8(%ebp)
    2e12:	83 45 0c 01          	addl   $0x1,0xc(%ebp)
    2e16:	84 c0                	test   %al,%al
    2e18:	74 2e                	je     2e48 <strncmp+0xbf>
    2e1a:	8b 45 08             	mov    0x8(%ebp),%eax
    2e1d:	83 e8 01             	sub    $0x1,%eax
    2e20:	0f b6 10             	movzbl (%eax),%edx
    2e23:	8b 45 0c             	mov    0xc(%ebp),%eax
    2e26:	83 e8 01             	sub    $0x1,%eax
    2e29:	0f b6 00             	movzbl (%eax),%eax
    2e2c:	38 c2                	cmp    %al,%dl
    2e2e:	7d 09                	jge    2e39 <strncmp+0xb0>
    2e30:	c7 45 fc ff ff ff ff 	movl   $0xffffffff,-0x4(%ebp)
    2e37:	eb 07                	jmp    2e40 <strncmp+0xb7>
    2e39:	c7 45 fc 01 00 00 00 	movl   $0x1,-0x4(%ebp)
    2e40:	8b 45 fc             	mov    -0x4(%ebp),%eax
    2e43:	89 45 f8             	mov    %eax,-0x8(%ebp)
    2e46:	eb 16                	jmp    2e5e <strncmp+0xd5>
    2e48:	83 7d 10 00          	cmpl   $0x0,0x10(%ebp)
    2e4c:	0f 95 c0             	setne  %al
    2e4f:	83 6d 10 01          	subl   $0x1,0x10(%ebp)
    2e53:	84 c0                	test   %al,%al
    2e55:	75 a6                	jne    2dfd <strncmp+0x74>
    2e57:	c7 45 f8 00 00 00 00 	movl   $0x0,-0x8(%ebp)
    2e5e:	8b 45 f8             	mov    -0x8(%ebp),%eax
    2e61:	c9                   	leave  
    2e62:	c3                   	ret    

00002e63 <strchr>:
    2e63:	55                   	push   %ebp
    2e64:	89 e5                	mov    %esp,%ebp
    2e66:	83 ec 18             	sub    $0x18,%esp
    2e69:	83 7d 08 00          	cmpl   $0x0,0x8(%ebp)
    2e6d:	75 54                	jne    2ec3 <strchr+0x60>
    2e6f:	c7 44 24 0c 03 01 00 	movl   $0x103,0xc(%esp)
    2e76:	00 
    2e77:	c7 44 24 08 d7 45 00 	movl   $0x45d7,0x8(%esp)
    2e7e:	00 
    2e7f:	c7 44 24 04 69 44 00 	movl   $0x4469,0x4(%esp)
    2e86:	00 
    2e87:	c7 04 24 80 44 00 00 	movl   $0x4480,(%esp)
    2e8e:	e8 c6 e0 ff ff       	call   f59 <debugf>
    2e93:	c7 04 24 01 00 00 00 	movl   $0x1,(%esp)
    2e9a:	e8 4d f6 ff ff       	call   24ec <exit>
    2e9f:	eb 22                	jmp    2ec3 <strchr+0x60>
    2ea1:	8b 45 08             	mov    0x8(%ebp),%eax
    2ea4:	0f b6 00             	movzbl (%eax),%eax
    2ea7:	0f be c0             	movsbl %al,%eax
    2eaa:	3b 45 0c             	cmp    0xc(%ebp),%eax
    2ead:	0f 94 c0             	sete   %al
    2eb0:	83 45 08 01          	addl   $0x1,0x8(%ebp)
    2eb4:	84 c0                	test   %al,%al
    2eb6:	74 0b                	je     2ec3 <strchr+0x60>
    2eb8:	8b 45 08             	mov    0x8(%ebp),%eax
    2ebb:	83 e8 01             	sub    $0x1,%eax
    2ebe:	89 45 fc             	mov    %eax,-0x4(%ebp)
    2ec1:	eb 11                	jmp    2ed4 <strchr+0x71>
    2ec3:	8b 45 08             	mov    0x8(%ebp),%eax
    2ec6:	0f b6 00             	movzbl (%eax),%eax
    2ec9:	84 c0                	test   %al,%al
    2ecb:	75 d4                	jne    2ea1 <strchr+0x3e>
    2ecd:	c7 45 fc 00 00 00 00 	movl   $0x0,-0x4(%ebp)
    2ed4:	8b 45 fc             	mov    -0x4(%ebp),%eax
    2ed7:	c9                   	leave  
    2ed8:	c3                   	ret    

00002ed9 <strchri>:
    2ed9:	55                   	push   %ebp
    2eda:	89 e5                	mov    %esp,%ebp
    2edc:	83 ec 28             	sub    $0x28,%esp
    2edf:	8b 45 08             	mov    0x8(%ebp),%eax
    2ee2:	89 45 fc             	mov    %eax,-0x4(%ebp)
    2ee5:	83 7d 08 00          	cmpl   $0x0,0x8(%ebp)
    2ee9:	75 59                	jne    2f44 <strchri+0x6b>
    2eeb:	c7 44 24 0c 0f 01 00 	movl   $0x10f,0xc(%esp)
    2ef2:	00 
    2ef3:	c7 44 24 08 de 45 00 	movl   $0x45de,0x8(%esp)
    2efa:	00 
    2efb:	c7 44 24 04 69 44 00 	movl   $0x4469,0x4(%esp)
    2f02:	00 
    2f03:	c7 04 24 80 44 00 00 	movl   $0x4480,(%esp)
    2f0a:	e8 4a e0 ff ff       	call   f59 <debugf>
    2f0f:	c7 04 24 01 00 00 00 	movl   $0x1,(%esp)
    2f16:	e8 d1 f5 ff ff       	call   24ec <exit>
    2f1b:	eb 27                	jmp    2f44 <strchri+0x6b>
    2f1d:	8b 45 08             	mov    0x8(%ebp),%eax
    2f20:	0f b6 00             	movzbl (%eax),%eax
    2f23:	0f be c0             	movsbl %al,%eax
    2f26:	3b 45 0c             	cmp    0xc(%ebp),%eax
    2f29:	0f 94 c0             	sete   %al
    2f2c:	83 45 08 01          	addl   $0x1,0x8(%ebp)
    2f30:	84 c0                	test   %al,%al
    2f32:	74 10                	je     2f44 <strchri+0x6b>
    2f34:	8b 45 08             	mov    0x8(%ebp),%eax
    2f37:	8b 55 fc             	mov    -0x4(%ebp),%edx
    2f3a:	29 d0                	sub    %edx,%eax
    2f3c:	83 e8 01             	sub    $0x1,%eax
    2f3f:	89 45 ec             	mov    %eax,-0x14(%ebp)
    2f42:	eb 17                	jmp    2f5b <strchri+0x82>
    2f44:	8b 45 08             	mov    0x8(%ebp),%eax
    2f47:	0f b6 00             	movzbl (%eax),%eax
    2f4a:	84 c0                	test   %al,%al
    2f4c:	75 cf                	jne    2f1d <strchri+0x44>
    2f4e:	8b 55 08             	mov    0x8(%ebp),%edx
    2f51:	8b 45 fc             	mov    -0x4(%ebp),%eax
    2f54:	89 d1                	mov    %edx,%ecx
    2f56:	29 c1                	sub    %eax,%ecx
    2f58:	89 4d ec             	mov    %ecx,-0x14(%ebp)
    2f5b:	8b 45 ec             	mov    -0x14(%ebp),%eax
    2f5e:	c9                   	leave  
    2f5f:	c3                   	ret    

00002f60 <strrchr>:
    2f60:	55                   	push   %ebp
    2f61:	89 e5                	mov    %esp,%ebp
    2f63:	83 ec 28             	sub    $0x28,%esp
    2f66:	c7 45 fc 00 00 00 00 	movl   $0x0,-0x4(%ebp)
    2f6d:	83 7d 08 00          	cmpl   $0x0,0x8(%ebp)
    2f71:	75 52                	jne    2fc5 <strrchr+0x65>
    2f73:	c7 44 24 0c 1b 01 00 	movl   $0x11b,0xc(%esp)
    2f7a:	00 
    2f7b:	c7 44 24 08 e6 45 00 	movl   $0x45e6,0x8(%esp)
    2f82:	00 
    2f83:	c7 44 24 04 69 44 00 	movl   $0x4469,0x4(%esp)
    2f8a:	00 
    2f8b:	c7 04 24 80 44 00 00 	movl   $0x4480,(%esp)
    2f92:	e8 c2 df ff ff       	call   f59 <debugf>
    2f97:	c7 04 24 01 00 00 00 	movl   $0x1,(%esp)
    2f9e:	e8 49 f5 ff ff       	call   24ec <exit>
    2fa3:	eb 20                	jmp    2fc5 <strrchr+0x65>
    2fa5:	8b 45 08             	mov    0x8(%ebp),%eax
    2fa8:	0f b6 00             	movzbl (%eax),%eax
    2fab:	0f be c0             	movsbl %al,%eax
    2fae:	3b 45 0c             	cmp    0xc(%ebp),%eax
    2fb1:	0f 94 c0             	sete   %al
    2fb4:	83 45 08 01          	addl   $0x1,0x8(%ebp)
    2fb8:	84 c0                	test   %al,%al
    2fba:	74 09                	je     2fc5 <strrchr+0x65>
    2fbc:	8b 45 08             	mov    0x8(%ebp),%eax
    2fbf:	83 e8 01             	sub    $0x1,%eax
    2fc2:	89 45 fc             	mov    %eax,-0x4(%ebp)
    2fc5:	8b 45 08             	mov    0x8(%ebp),%eax
    2fc8:	0f b6 00             	movzbl (%eax),%eax
    2fcb:	84 c0                	test   %al,%al
    2fcd:	75 d6                	jne    2fa5 <strrchr+0x45>
    2fcf:	8b 45 fc             	mov    -0x4(%ebp),%eax
    2fd2:	c9                   	leave  
    2fd3:	c3                   	ret    

00002fd4 <strstr>:
    2fd4:	55                   	push   %ebp
    2fd5:	89 e5                	mov    %esp,%ebp
    2fd7:	83 ec 28             	sub    $0x28,%esp
    2fda:	c7 45 f8 00 00 00 00 	movl   $0x0,-0x8(%ebp)
    2fe1:	83 7d 08 00          	cmpl   $0x0,0x8(%ebp)
    2fe5:	75 30                	jne    3017 <strstr+0x43>
    2fe7:	c7 44 24 0c 28 01 00 	movl   $0x128,0xc(%esp)
    2fee:	00 
    2fef:	c7 44 24 08 ee 45 00 	movl   $0x45ee,0x8(%esp)
    2ff6:	00 
    2ff7:	c7 44 24 04 69 44 00 	movl   $0x4469,0x4(%esp)
    2ffe:	00 
    2fff:	c7 04 24 60 45 00 00 	movl   $0x4560,(%esp)
    3006:	e8 4e df ff ff       	call   f59 <debugf>
    300b:	c7 04 24 01 00 00 00 	movl   $0x1,(%esp)
    3012:	e8 d5 f4 ff ff       	call   24ec <exit>
    3017:	83 7d 0c 00          	cmpl   $0x0,0xc(%ebp)
    301b:	75 30                	jne    304d <strstr+0x79>
    301d:	c7 44 24 0c 29 01 00 	movl   $0x129,0xc(%esp)
    3024:	00 
    3025:	c7 44 24 08 ee 45 00 	movl   $0x45ee,0x8(%esp)
    302c:	00 
    302d:	c7 44 24 04 69 44 00 	movl   $0x4469,0x4(%esp)
    3034:	00 
    3035:	c7 04 24 90 45 00 00 	movl   $0x4590,(%esp)
    303c:	e8 18 df ff ff       	call   f59 <debugf>
    3041:	c7 04 24 01 00 00 00 	movl   $0x1,(%esp)
    3048:	e8 9f f4 ff ff       	call   24ec <exit>
    304d:	8b 45 0c             	mov    0xc(%ebp),%eax
    3050:	0f b6 00             	movzbl (%eax),%eax
    3053:	84 c0                	test   %al,%al
    3055:	75 68                	jne    30bf <strstr+0xeb>
    3057:	c7 45 ec 00 00 00 00 	movl   $0x0,-0x14(%ebp)
    305e:	eb 70                	jmp    30d0 <strstr+0xfc>
    3060:	8b 45 08             	mov    0x8(%ebp),%eax
    3063:	0f b6 10             	movzbl (%eax),%edx
    3066:	8b 45 0c             	mov    0xc(%ebp),%eax
    3069:	0f b6 00             	movzbl (%eax),%eax
    306c:	38 c2                	cmp    %al,%dl
    306e:	0f 94 c0             	sete   %al
    3071:	83 45 08 01          	addl   $0x1,0x8(%ebp)
    3075:	84 c0                	test   %al,%al
    3077:	74 46                	je     30bf <strstr+0xeb>
    3079:	83 6d 08 01          	subl   $0x1,0x8(%ebp)
    307d:	8b 45 08             	mov    0x8(%ebp),%eax
    3080:	89 45 f8             	mov    %eax,-0x8(%ebp)
    3083:	8b 45 0c             	mov    0xc(%ebp),%eax
    3086:	89 45 fc             	mov    %eax,-0x4(%ebp)
    3089:	eb 08                	jmp    3093 <strstr+0xbf>
    308b:	83 45 08 01          	addl   $0x1,0x8(%ebp)
    308f:	83 45 fc 01          	addl   $0x1,-0x4(%ebp)
    3093:	8b 45 fc             	mov    -0x4(%ebp),%eax
    3096:	0f b6 00             	movzbl (%eax),%eax
    3099:	84 c0                	test   %al,%al
    309b:	74 10                	je     30ad <strstr+0xd9>
    309d:	8b 45 08             	mov    0x8(%ebp),%eax
    30a0:	0f b6 10             	movzbl (%eax),%edx
    30a3:	8b 45 fc             	mov    -0x4(%ebp),%eax
    30a6:	0f b6 00             	movzbl (%eax),%eax
    30a9:	38 c2                	cmp    %al,%dl
    30ab:	74 de                	je     308b <strstr+0xb7>
    30ad:	8b 45 fc             	mov    -0x4(%ebp),%eax
    30b0:	0f b6 00             	movzbl (%eax),%eax
    30b3:	84 c0                	test   %al,%al
    30b5:	75 08                	jne    30bf <strstr+0xeb>
    30b7:	8b 45 f8             	mov    -0x8(%ebp),%eax
    30ba:	89 45 ec             	mov    %eax,-0x14(%ebp)
    30bd:	eb 11                	jmp    30d0 <strstr+0xfc>
    30bf:	8b 45 08             	mov    0x8(%ebp),%eax
    30c2:	0f b6 00             	movzbl (%eax),%eax
    30c5:	84 c0                	test   %al,%al
    30c7:	75 97                	jne    3060 <strstr+0x8c>
    30c9:	c7 45 ec 00 00 00 00 	movl   $0x0,-0x14(%ebp)
    30d0:	8b 45 ec             	mov    -0x14(%ebp),%eax
    30d3:	c9                   	leave  
    30d4:	c3                   	ret    

000030d5 <strcspn>:
    30d5:	55                   	push   %ebp
    30d6:	89 e5                	mov    %esp,%ebp
    30d8:	83 ec 28             	sub    $0x28,%esp
    30db:	c7 45 fc 00 00 00 00 	movl   $0x0,-0x4(%ebp)
    30e2:	83 7d 08 00          	cmpl   $0x0,0x8(%ebp)
    30e6:	75 30                	jne    3118 <strcspn+0x43>
    30e8:	c7 44 24 0c 43 01 00 	movl   $0x143,0xc(%esp)
    30ef:	00 
    30f0:	c7 44 24 08 f5 45 00 	movl   $0x45f5,0x8(%esp)
    30f7:	00 
    30f8:	c7 44 24 04 69 44 00 	movl   $0x4469,0x4(%esp)
    30ff:	00 
    3100:	c7 04 24 60 45 00 00 	movl   $0x4560,(%esp)
    3107:	e8 4d de ff ff       	call   f59 <debugf>
    310c:	c7 04 24 01 00 00 00 	movl   $0x1,(%esp)
    3113:	e8 d4 f3 ff ff       	call   24ec <exit>
    3118:	83 7d 0c 00          	cmpl   $0x0,0xc(%ebp)
    311c:	75 5e                	jne    317c <strcspn+0xa7>
    311e:	c7 44 24 0c 44 01 00 	movl   $0x144,0xc(%esp)
    3125:	00 
    3126:	c7 44 24 08 f5 45 00 	movl   $0x45f5,0x8(%esp)
    312d:	00 
    312e:	c7 44 24 04 69 44 00 	movl   $0x4469,0x4(%esp)
    3135:	00 
    3136:	c7 04 24 90 45 00 00 	movl   $0x4590,(%esp)
    313d:	e8 17 de ff ff       	call   f59 <debugf>
    3142:	c7 04 24 01 00 00 00 	movl   $0x1,(%esp)
    3149:	e8 9e f3 ff ff       	call   24ec <exit>
    314e:	eb 2c                	jmp    317c <strcspn+0xa7>
    3150:	8b 45 08             	mov    0x8(%ebp),%eax
    3153:	0f b6 00             	movzbl (%eax),%eax
    3156:	0f be c0             	movsbl %al,%eax
    3159:	83 45 08 01          	addl   $0x1,0x8(%ebp)
    315d:	89 44 24 04          	mov    %eax,0x4(%esp)
    3161:	8b 45 0c             	mov    0xc(%ebp),%eax
    3164:	89 04 24             	mov    %eax,(%esp)
    3167:	e8 f7 fc ff ff       	call   2e63 <strchr>
    316c:	85 c0                	test   %eax,%eax
    316e:	74 08                	je     3178 <strcspn+0xa3>
    3170:	8b 45 fc             	mov    -0x4(%ebp),%eax
    3173:	89 45 ec             	mov    %eax,-0x14(%ebp)
    3176:	eb 14                	jmp    318c <strcspn+0xb7>
    3178:	83 45 fc 01          	addl   $0x1,-0x4(%ebp)
    317c:	8b 45 08             	mov    0x8(%ebp),%eax
    317f:	0f b6 00             	movzbl (%eax),%eax
    3182:	84 c0                	test   %al,%al
    3184:	75 ca                	jne    3150 <strcspn+0x7b>
    3186:	8b 45 fc             	mov    -0x4(%ebp),%eax
    3189:	89 45 ec             	mov    %eax,-0x14(%ebp)
    318c:	8b 45 ec             	mov    -0x14(%ebp),%eax
    318f:	c9                   	leave  
    3190:	c3                   	ret    

00003191 <strcut>:
    3191:	55                   	push   %ebp
    3192:	89 e5                	mov    %esp,%ebp
    3194:	83 ec 28             	sub    $0x28,%esp
    3197:	8b 45 08             	mov    0x8(%ebp),%eax
    319a:	89 45 fc             	mov    %eax,-0x4(%ebp)
    319d:	83 7d 08 00          	cmpl   $0x0,0x8(%ebp)
    31a1:	75 30                	jne    31d3 <strcut+0x42>
    31a3:	c7 44 24 0c 51 01 00 	movl   $0x151,0xc(%esp)
    31aa:	00 
    31ab:	c7 44 24 08 fd 45 00 	movl   $0x45fd,0x8(%esp)
    31b2:	00 
    31b3:	c7 44 24 04 69 44 00 	movl   $0x4469,0x4(%esp)
    31ba:	00 
    31bb:	c7 04 24 80 44 00 00 	movl   $0x4480,(%esp)
    31c2:	e8 92 dd ff ff       	call   f59 <debugf>
    31c7:	c7 04 24 01 00 00 00 	movl   $0x1,(%esp)
    31ce:	e8 19 f3 ff ff       	call   24ec <exit>
    31d3:	83 7d 0c 00          	cmpl   $0x0,0xc(%ebp)
    31d7:	74 33                	je     320c <strcut+0x7b>
    31d9:	8b 45 0c             	mov    0xc(%ebp),%eax
    31dc:	01 45 08             	add    %eax,0x8(%ebp)
    31df:	eb 16                	jmp    31f7 <strcut+0x66>
    31e1:	8b 45 0c             	mov    0xc(%ebp),%eax
    31e4:	f7 d8                	neg    %eax
    31e6:	89 c2                	mov    %eax,%edx
    31e8:	03 55 08             	add    0x8(%ebp),%edx
    31eb:	8b 45 08             	mov    0x8(%ebp),%eax
    31ee:	0f b6 00             	movzbl (%eax),%eax
    31f1:	88 02                	mov    %al,(%edx)
    31f3:	83 45 08 01          	addl   $0x1,0x8(%ebp)
    31f7:	8b 45 08             	mov    0x8(%ebp),%eax
    31fa:	0f b6 00             	movzbl (%eax),%eax
    31fd:	84 c0                	test   %al,%al
    31ff:	75 e0                	jne    31e1 <strcut+0x50>
    3201:	8b 45 0c             	mov    0xc(%ebp),%eax
    3204:	f7 d8                	neg    %eax
    3206:	03 45 08             	add    0x8(%ebp),%eax
    3209:	c6 00 00             	movb   $0x0,(%eax)
    320c:	8b 45 fc             	mov    -0x4(%ebp),%eax
    320f:	c9                   	leave  
    3210:	c3                   	ret    

00003211 <strlen>:
    3211:	55                   	push   %ebp
    3212:	89 e5                	mov    %esp,%ebp
    3214:	83 ec 28             	sub    $0x28,%esp
    3217:	c7 45 fc 00 00 00 00 	movl   $0x0,-0x4(%ebp)
    321e:	83 7d 08 00          	cmpl   $0x0,0x8(%ebp)
    3222:	75 36                	jne    325a <strlen+0x49>
    3224:	c7 44 24 0c 61 01 00 	movl   $0x161,0xc(%esp)
    322b:	00 
    322c:	c7 44 24 08 04 46 00 	movl   $0x4604,0x8(%esp)
    3233:	00 
    3234:	c7 44 24 04 69 44 00 	movl   $0x4469,0x4(%esp)
    323b:	00 
    323c:	c7 04 24 80 44 00 00 	movl   $0x4480,(%esp)
    3243:	e8 11 dd ff ff       	call   f59 <debugf>
    3248:	c7 04 24 01 00 00 00 	movl   $0x1,(%esp)
    324f:	e8 98 f2 ff ff       	call   24ec <exit>
    3254:	eb 04                	jmp    325a <strlen+0x49>
    3256:	83 45 fc 01          	addl   $0x1,-0x4(%ebp)
    325a:	8b 45 08             	mov    0x8(%ebp),%eax
    325d:	0f b6 00             	movzbl (%eax),%eax
    3260:	84 c0                	test   %al,%al
    3262:	0f 95 c0             	setne  %al
    3265:	83 45 08 01          	addl   $0x1,0x8(%ebp)
    3269:	84 c0                	test   %al,%al
    326b:	75 e9                	jne    3256 <strlen+0x45>
    326d:	8b 45 fc             	mov    -0x4(%ebp),%eax
    3270:	c9                   	leave  
    3271:	c3                   	ret    

00003272 <tolower>:
    3272:	55                   	push   %ebp
    3273:	89 e5                	mov    %esp,%ebp
    3275:	83 ec 04             	sub    $0x4,%esp
    3278:	83 7d 08 40          	cmpl   $0x40,0x8(%ebp)
    327c:	7e 11                	jle    328f <tolower+0x1d>
    327e:	83 7d 08 5a          	cmpl   $0x5a,0x8(%ebp)
    3282:	7f 0b                	jg     328f <tolower+0x1d>
    3284:	8b 45 08             	mov    0x8(%ebp),%eax
    3287:	83 c0 20             	add    $0x20,%eax
    328a:	89 45 fc             	mov    %eax,-0x4(%ebp)
    328d:	eb 06                	jmp    3295 <tolower+0x23>
    328f:	8b 45 08             	mov    0x8(%ebp),%eax
    3292:	89 45 fc             	mov    %eax,-0x4(%ebp)
    3295:	8b 45 fc             	mov    -0x4(%ebp),%eax
    3298:	c9                   	leave  
    3299:	c3                   	ret    

0000329a <toupper>:
    329a:	55                   	push   %ebp
    329b:	89 e5                	mov    %esp,%ebp
    329d:	83 ec 04             	sub    $0x4,%esp
    32a0:	83 7d 08 60          	cmpl   $0x60,0x8(%ebp)
    32a4:	7e 11                	jle    32b7 <toupper+0x1d>
    32a6:	83 7d 08 7a          	cmpl   $0x7a,0x8(%ebp)
    32aa:	7f 0b                	jg     32b7 <toupper+0x1d>
    32ac:	8b 45 08             	mov    0x8(%ebp),%eax
    32af:	83 e8 20             	sub    $0x20,%eax
    32b2:	89 45 fc             	mov    %eax,-0x4(%ebp)
    32b5:	eb 06                	jmp    32bd <toupper+0x23>
    32b7:	8b 45 08             	mov    0x8(%ebp),%eax
    32ba:	89 45 fc             	mov    %eax,-0x4(%ebp)
    32bd:	8b 45 fc             	mov    -0x4(%ebp),%eax
    32c0:	c9                   	leave  
    32c1:	c3                   	ret    

000032c2 <isalnumstr>:
    32c2:	55                   	push   %ebp
    32c3:	89 e5                	mov    %esp,%ebp
    32c5:	83 ec 08             	sub    $0x8,%esp
    32c8:	eb 22                	jmp    32ec <isalnumstr+0x2a>
    32ca:	8b 45 08             	mov    0x8(%ebp),%eax
    32cd:	0f b6 00             	movzbl (%eax),%eax
    32d0:	0f be c0             	movsbl %al,%eax
    32d3:	83 45 08 01          	addl   $0x1,0x8(%ebp)
    32d7:	89 04 24             	mov    %eax,(%esp)
    32da:	e8 23 00 00 00       	call   3302 <isalnum>
    32df:	85 c0                	test   %eax,%eax
    32e1:	75 09                	jne    32ec <isalnumstr+0x2a>
    32e3:	c7 45 fc 00 00 00 00 	movl   $0x0,-0x4(%ebp)
    32ea:	eb 11                	jmp    32fd <isalnumstr+0x3b>
    32ec:	8b 45 08             	mov    0x8(%ebp),%eax
    32ef:	0f b6 00             	movzbl (%eax),%eax
    32f2:	84 c0                	test   %al,%al
    32f4:	75 d4                	jne    32ca <isalnumstr+0x8>
    32f6:	c7 45 fc 01 00 00 00 	movl   $0x1,-0x4(%ebp)
    32fd:	8b 45 fc             	mov    -0x4(%ebp),%eax
    3300:	c9                   	leave  
    3301:	c3                   	ret    

00003302 <isalnum>:
    3302:	55                   	push   %ebp
    3303:	89 e5                	mov    %esp,%ebp
    3305:	83 ec 04             	sub    $0x4,%esp
    3308:	83 7d 08 60          	cmpl   $0x60,0x8(%ebp)
    330c:	7e 06                	jle    3314 <isalnum+0x12>
    330e:	83 7d 08 7a          	cmpl   $0x7a,0x8(%ebp)
    3312:	7e 18                	jle    332c <isalnum+0x2a>
    3314:	83 7d 08 40          	cmpl   $0x40,0x8(%ebp)
    3318:	7e 06                	jle    3320 <isalnum+0x1e>
    331a:	83 7d 08 5a          	cmpl   $0x5a,0x8(%ebp)
    331e:	7e 0c                	jle    332c <isalnum+0x2a>
    3320:	83 7d 08 2f          	cmpl   $0x2f,0x8(%ebp)
    3324:	7e 0f                	jle    3335 <isalnum+0x33>
    3326:	83 7d 08 39          	cmpl   $0x39,0x8(%ebp)
    332a:	7f 09                	jg     3335 <isalnum+0x33>
    332c:	c7 45 fc 01 00 00 00 	movl   $0x1,-0x4(%ebp)
    3333:	eb 07                	jmp    333c <isalnum+0x3a>
    3335:	c7 45 fc 00 00 00 00 	movl   $0x0,-0x4(%ebp)
    333c:	8b 45 fc             	mov    -0x4(%ebp),%eax
    333f:	c9                   	leave  
    3340:	c3                   	ret    

00003341 <isalpha>:
    3341:	55                   	push   %ebp
    3342:	89 e5                	mov    %esp,%ebp
    3344:	83 ec 04             	sub    $0x4,%esp
    3347:	83 7d 08 60          	cmpl   $0x60,0x8(%ebp)
    334b:	7e 06                	jle    3353 <isalpha+0x12>
    334d:	83 7d 08 7a          	cmpl   $0x7a,0x8(%ebp)
    3351:	7e 0c                	jle    335f <isalpha+0x1e>
    3353:	83 7d 08 40          	cmpl   $0x40,0x8(%ebp)
    3357:	7e 0f                	jle    3368 <isalpha+0x27>
    3359:	83 7d 08 5a          	cmpl   $0x5a,0x8(%ebp)
    335d:	7f 09                	jg     3368 <isalpha+0x27>
    335f:	c7 45 fc 01 00 00 00 	movl   $0x1,-0x4(%ebp)
    3366:	eb 07                	jmp    336f <isalpha+0x2e>
    3368:	c7 45 fc 00 00 00 00 	movl   $0x0,-0x4(%ebp)
    336f:	8b 45 fc             	mov    -0x4(%ebp),%eax
    3372:	c9                   	leave  
    3373:	c3                   	ret    

00003374 <isdigit>:
    3374:	55                   	push   %ebp
    3375:	89 e5                	mov    %esp,%ebp
    3377:	83 ec 04             	sub    $0x4,%esp
    337a:	83 7d 08 2f          	cmpl   $0x2f,0x8(%ebp)
    337e:	7e 0f                	jle    338f <isdigit+0x1b>
    3380:	83 7d 08 39          	cmpl   $0x39,0x8(%ebp)
    3384:	7f 09                	jg     338f <isdigit+0x1b>
    3386:	c7 45 fc 01 00 00 00 	movl   $0x1,-0x4(%ebp)
    338d:	eb 07                	jmp    3396 <isdigit+0x22>
    338f:	c7 45 fc 00 00 00 00 	movl   $0x0,-0x4(%ebp)
    3396:	8b 45 fc             	mov    -0x4(%ebp),%eax
    3399:	c9                   	leave  
    339a:	c3                   	ret    

0000339b <islower>:
    339b:	55                   	push   %ebp
    339c:	89 e5                	mov    %esp,%ebp
    339e:	83 ec 04             	sub    $0x4,%esp
    33a1:	83 7d 08 60          	cmpl   $0x60,0x8(%ebp)
    33a5:	7e 0f                	jle    33b6 <islower+0x1b>
    33a7:	83 7d 08 7a          	cmpl   $0x7a,0x8(%ebp)
    33ab:	7f 09                	jg     33b6 <islower+0x1b>
    33ad:	c7 45 fc 01 00 00 00 	movl   $0x1,-0x4(%ebp)
    33b4:	eb 07                	jmp    33bd <islower+0x22>
    33b6:	c7 45 fc 00 00 00 00 	movl   $0x0,-0x4(%ebp)
    33bd:	8b 45 fc             	mov    -0x4(%ebp),%eax
    33c0:	c9                   	leave  
    33c1:	c3                   	ret    

000033c2 <isspace>:
    33c2:	55                   	push   %ebp
    33c3:	89 e5                	mov    %esp,%ebp
    33c5:	83 ec 04             	sub    $0x4,%esp
    33c8:	83 7d 08 20          	cmpl   $0x20,0x8(%ebp)
    33cc:	74 1e                	je     33ec <isspace+0x2a>
    33ce:	83 7d 08 0d          	cmpl   $0xd,0x8(%ebp)
    33d2:	74 18                	je     33ec <isspace+0x2a>
    33d4:	83 7d 08 0a          	cmpl   $0xa,0x8(%ebp)
    33d8:	74 12                	je     33ec <isspace+0x2a>
    33da:	83 7d 08 09          	cmpl   $0x9,0x8(%ebp)
    33de:	74 0c                	je     33ec <isspace+0x2a>
    33e0:	83 7d 08 0c          	cmpl   $0xc,0x8(%ebp)
    33e4:	74 06                	je     33ec <isspace+0x2a>
    33e6:	83 7d 08 0b          	cmpl   $0xb,0x8(%ebp)
    33ea:	75 09                	jne    33f5 <isspace+0x33>
    33ec:	c7 45 fc 01 00 00 00 	movl   $0x1,-0x4(%ebp)
    33f3:	eb 07                	jmp    33fc <isspace+0x3a>
    33f5:	c7 45 fc 00 00 00 00 	movl   $0x0,-0x4(%ebp)
    33fc:	8b 45 fc             	mov    -0x4(%ebp),%eax
    33ff:	c9                   	leave  
    3400:	c3                   	ret    

00003401 <isupper>:
    3401:	55                   	push   %ebp
    3402:	89 e5                	mov    %esp,%ebp
    3404:	83 ec 04             	sub    $0x4,%esp
    3407:	83 7d 08 40          	cmpl   $0x40,0x8(%ebp)
    340b:	7e 0f                	jle    341c <isupper+0x1b>
    340d:	83 7d 08 5a          	cmpl   $0x5a,0x8(%ebp)
    3411:	7f 09                	jg     341c <isupper+0x1b>
    3413:	c7 45 fc 01 00 00 00 	movl   $0x1,-0x4(%ebp)
    341a:	eb 07                	jmp    3423 <isupper+0x22>
    341c:	c7 45 fc 00 00 00 00 	movl   $0x0,-0x4(%ebp)
    3423:	8b 45 fc             	mov    -0x4(%ebp),%eax
    3426:	c9                   	leave  
    3427:	c3                   	ret    

00003428 <printLastError>:
    3428:	55                   	push   %ebp
    3429:	89 e5                	mov    %esp,%ebp
    342b:	83 ec 18             	sub    $0x18,%esp
    342e:	a1 c8 53 00 00       	mov    0x53c8,%eax
    3433:	89 44 24 04          	mov    %eax,0x4(%esp)
    3437:	c7 04 24 0c 46 00 00 	movl   $0x460c,(%esp)
    343e:	e8 16 db ff ff       	call   f59 <debugf>
    3443:	a1 c8 53 00 00       	mov    0x53c8,%eax
    3448:	83 c0 18             	add    $0x18,%eax
    344b:	89 45 fc             	mov    %eax,-0x4(%ebp)
    344e:	83 7d fc 17          	cmpl   $0x17,-0x4(%ebp)
    3452:	0f 87 89 01 00 00    	ja     35e1 <printLastError+0x1b9>
    3458:	8b 55 fc             	mov    -0x4(%ebp),%edx
    345b:	8b 04 95 8c 49 00 00 	mov    0x498c(,%edx,4),%eax
    3462:	ff e0                	jmp    *%eax
    3464:	c7 04 24 17 46 00 00 	movl   $0x4617,(%esp)
    346b:	e8 e9 da ff ff       	call   f59 <debugf>
    3470:	e9 78 01 00 00       	jmp    35ed <printLastError+0x1c5>
    3475:	c7 04 24 33 46 00 00 	movl   $0x4633,(%esp)
    347c:	e8 d8 da ff ff       	call   f59 <debugf>
    3481:	e9 67 01 00 00       	jmp    35ed <printLastError+0x1c5>
    3486:	c7 04 24 50 46 00 00 	movl   $0x4650,(%esp)
    348d:	e8 c7 da ff ff       	call   f59 <debugf>
    3492:	e9 56 01 00 00       	jmp    35ed <printLastError+0x1c5>
    3497:	c7 04 24 88 46 00 00 	movl   $0x4688,(%esp)
    349e:	e8 b6 da ff ff       	call   f59 <debugf>
    34a3:	e9 45 01 00 00       	jmp    35ed <printLastError+0x1c5>
    34a8:	c7 04 24 b7 46 00 00 	movl   $0x46b7,(%esp)
    34af:	e8 a5 da ff ff       	call   f59 <debugf>
    34b4:	e9 34 01 00 00       	jmp    35ed <printLastError+0x1c5>
    34b9:	c7 04 24 d3 46 00 00 	movl   $0x46d3,(%esp)
    34c0:	e8 94 da ff ff       	call   f59 <debugf>
    34c5:	e9 23 01 00 00       	jmp    35ed <printLastError+0x1c5>
    34ca:	c7 04 24 ec 46 00 00 	movl   $0x46ec,(%esp)
    34d1:	e8 83 da ff ff       	call   f59 <debugf>
    34d6:	e9 12 01 00 00       	jmp    35ed <printLastError+0x1c5>
    34db:	c7 04 24 fa 46 00 00 	movl   $0x46fa,(%esp)
    34e2:	e8 72 da ff ff       	call   f59 <debugf>
    34e7:	e9 01 01 00 00       	jmp    35ed <printLastError+0x1c5>
    34ec:	c7 04 24 0e 47 00 00 	movl   $0x470e,(%esp)
    34f3:	e8 61 da ff ff       	call   f59 <debugf>
    34f8:	e9 f0 00 00 00       	jmp    35ed <printLastError+0x1c5>
    34fd:	c7 04 24 24 47 00 00 	movl   $0x4724,(%esp)
    3504:	e8 50 da ff ff       	call   f59 <debugf>
    3509:	e9 df 00 00 00       	jmp    35ed <printLastError+0x1c5>
    350e:	c7 04 24 62 47 00 00 	movl   $0x4762,(%esp)
    3515:	e8 3f da ff ff       	call   f59 <debugf>
    351a:	e9 ce 00 00 00       	jmp    35ed <printLastError+0x1c5>
    351f:	c7 04 24 78 47 00 00 	movl   $0x4778,(%esp)
    3526:	e8 2e da ff ff       	call   f59 <debugf>
    352b:	e9 bd 00 00 00       	jmp    35ed <printLastError+0x1c5>
    3530:	c7 04 24 ab 47 00 00 	movl   $0x47ab,(%esp)
    3537:	e8 1d da ff ff       	call   f59 <debugf>
    353c:	e9 ac 00 00 00       	jmp    35ed <printLastError+0x1c5>
    3541:	c7 04 24 c8 47 00 00 	movl   $0x47c8,(%esp)
    3548:	e8 0c da ff ff       	call   f59 <debugf>
    354d:	e9 9b 00 00 00       	jmp    35ed <printLastError+0x1c5>
    3552:	c7 04 24 f8 47 00 00 	movl   $0x47f8,(%esp)
    3559:	e8 fb d9 ff ff       	call   f59 <debugf>
    355e:	e9 8a 00 00 00       	jmp    35ed <printLastError+0x1c5>
    3563:	c7 04 24 28 48 00 00 	movl   $0x4828,(%esp)
    356a:	e8 ea d9 ff ff       	call   f59 <debugf>
    356f:	eb 7c                	jmp    35ed <printLastError+0x1c5>
    3571:	c7 04 24 4c 48 00 00 	movl   $0x484c,(%esp)
    3578:	e8 dc d9 ff ff       	call   f59 <debugf>
    357d:	eb 6e                	jmp    35ed <printLastError+0x1c5>
    357f:	c7 04 24 74 48 00 00 	movl   $0x4874,(%esp)
    3586:	e8 ce d9 ff ff       	call   f59 <debugf>
    358b:	eb 60                	jmp    35ed <printLastError+0x1c5>
    358d:	c7 04 24 b0 48 00 00 	movl   $0x48b0,(%esp)
    3594:	e8 c0 d9 ff ff       	call   f59 <debugf>
    3599:	eb 52                	jmp    35ed <printLastError+0x1c5>
    359b:	c7 04 24 ec 48 00 00 	movl   $0x48ec,(%esp)
    35a2:	e8 b2 d9 ff ff       	call   f59 <debugf>
    35a7:	eb 44                	jmp    35ed <printLastError+0x1c5>
    35a9:	c7 04 24 10 49 00 00 	movl   $0x4910,(%esp)
    35b0:	e8 a4 d9 ff ff       	call   f59 <debugf>
    35b5:	eb 36                	jmp    35ed <printLastError+0x1c5>
    35b7:	c7 04 24 34 49 00 00 	movl   $0x4934,(%esp)
    35be:	e8 96 d9 ff ff       	call   f59 <debugf>
    35c3:	eb 28                	jmp    35ed <printLastError+0x1c5>
    35c5:	c7 04 24 54 49 00 00 	movl   $0x4954,(%esp)
    35cc:	e8 88 d9 ff ff       	call   f59 <debugf>
    35d1:	eb 1a                	jmp    35ed <printLastError+0x1c5>
    35d3:	c7 04 24 72 49 00 00 	movl   $0x4972,(%esp)
    35da:	e8 7a d9 ff ff       	call   f59 <debugf>
    35df:	eb 0c                	jmp    35ed <printLastError+0x1c5>
    35e1:	c7 04 24 82 49 00 00 	movl   $0x4982,(%esp)
    35e8:	e8 6c d9 ff ff       	call   f59 <debugf>
    35ed:	c9                   	leave  
    35ee:	c3                   	ret    
